SF:/Users/samcolak/Source Code/rust/distdb/distdb/common/src/helpers/aes.rs
FN:109,_RNvNtNtNtCs4dhADRbsRh6_6common7helpers3aes4tests_9aes_tests
FN:75,_RNvNtNtCs4dhADRbsRh6_6common7helpers3aes11aes_decrypt
FN:50,_RNvNtNtCs4dhADRbsRh6_6common7helpers3aes11aes_encrypt
FN:15,_RNvNtNtCs4dhADRbsRh6_6common7helpers3aes11random_salt
FN:23,_RNvNtNtCs4dhADRbsRh6_6common7helpers3aes16evp_bytes_to_key
FNDA:1,_RNvNtNtNtCs4dhADRbsRh6_6common7helpers3aes4tests_9aes_tests
FNDA:1,_RNvNtNtCs4dhADRbsRh6_6common7helpers3aes11aes_decrypt
FNDA:1,_RNvNtNtCs4dhADRbsRh6_6common7helpers3aes11aes_encrypt
FNDA:1,_RNvNtNtCs4dhADRbsRh6_6common7helpers3aes11random_salt
FNDA:2,_RNvNtNtCs4dhADRbsRh6_6common7helpers3aes16evp_bytes_to_key
FNF:5
FNH:5
DA:15,1
DA:16,1
DA:17,1
DA:18,1
DA:19,1
DA:23,2
DA:25,2
DA:26,2
DA:27,2
DA:28,2
DA:30,8
DA:31,6
DA:32,6
DA:33,4
DA:34,4
DA:35,6
DA:36,6
DA:38,6
DA:39,6
DA:42,2
DA:43,2
DA:45,2
DA:47,2
DA:50,1
DA:52,1
DA:55,1
DA:57,1
DA:58,1
DA:59,1
DA:60,1
DA:61,1
DA:62,1
DA:65,1
DA:66,1
DA:67,1
DA:68,1
DA:70,1
DA:72,1
DA:75,1
DA:77,1
DA:78,1
DA:82,1
DA:83,0
DA:84,1
DA:86,1
DA:87,1
DA:90,1
DA:92,1
DA:93,1
DA:94,1
DA:95,1
DA:96,1
DA:97,1
DA:99,1
DA:101,1
DA:109,1
DA:113,1
DA:114,1
DA:117,1
DA:119,1
DA:120,1
DA:122,1
DA:123,1
DA:124,1
DA:126,1
DA:128,1
BRF:0
BRH:0
LF:66
LH:65
end_of_record
SF:/Users/samcolak/Source Code/rust/distdb/distdb/common/src/helpers/base64.rs
FN:183,_RNvNtNtNtCs4dhADRbsRh6_6common7helpers6base645testss_28decode_invalid_returns_empty
FN:171,_RNvNtNtNtCs4dhADRbsRh6_6common7helpers6base645testss_32decode_accepts_url_safe_variants
FN:178,_RNvNtNtNtCs4dhADRbsRh6_6common7helpers6base645testss_38decode_accepts_mixed_alphabet_fallback
FN:156,_RNvNtNtNtCs4dhADRbsRh6_6common7helpers6base645testss_38encode_matches_standard_no_pad_vectors
FN:165,_RNvNtNtNtCs4dhADRbsRh6_6common7helpers6base645testss_40decode_accepts_standard_and_padded_input
FN:146,_RNvNtNtCs4dhADRbsRh6_6common7helpers6base6410b64_decode
FN:73,_RNvNtNtCs4dhADRbsRh6_6common7helpers6base6411decode_charB5_
FN:82,_RNvNtNtCs4dhADRbsRh6_6common7helpers6base6415b64_decode_impl
FN:2,_RNvNtNtCs4dhADRbsRh6_6common7helpers6base6416b64_encode_bytes
FN:47,_RNvNtNtCs4dhADRbsRh6_6common7helpers6base6418build_decode_table
FNDA:1,_RNvNtNtNtCs4dhADRbsRh6_6common7helpers6base645testss_28decode_invalid_returns_empty
FNDA:1,_RNvNtNtNtCs4dhADRbsRh6_6common7helpers6base645testss_32decode_accepts_url_safe_variants
FNDA:1,_RNvNtNtNtCs4dhADRbsRh6_6common7helpers6base645testss_38decode_accepts_mixed_alphabet_fallback
FNDA:1,_RNvNtNtNtCs4dhADRbsRh6_6common7helpers6base645testss_38encode_matches_standard_no_pad_vectors
FNDA:1,_RNvNtNtNtCs4dhADRbsRh6_6common7helpers6base645testss_40decode_accepts_standard_and_padded_input
FNDA:9,_RNvNtNtCs4dhADRbsRh6_6common7helpers6base6410b64_decode
FNDA:88,_RNvNtNtCs4dhADRbsRh6_6common7helpers6base6411decode_charB5_
FNDA:9,_RNvNtNtCs4dhADRbsRh6_6common7helpers6base6415b64_decode_impl
FNDA:6,_RNvNtNtCs4dhADRbsRh6_6common7helpers6base6416b64_encode_bytes
FNDA:0,_RNvNtNtCs4dhADRbsRh6_6common7helpers6base6418build_decode_table
FNF:10
FNH:9
DA:2,6
DA:6,6
DA:7,1
DA:8,5
DA:10,5
DA:11,5
DA:13,19
DA:14,14
DA:15,14
DA:16,14
DA:17,14
DA:18,14
DA:19,14
DA:20,14
DA:21,14
DA:22,14
DA:23,14
DA:24,14
DA:26,5
DA:27,1
DA:28,1
DA:29,1
DA:30,1
DA:31,1
DA:32,3
DA:33,3
DA:34,3
DA:35,3
DA:36,3
DA:37,3
DA:38,1
DA:41,5
DA:43,6
DA:47,0
DA:48,0
DA:49,0
DA:51,0
DA:52,0
DA:53,0
DA:54,0
DA:55,0
DA:57,0
DA:58,0
DA:59,0
DA:60,0
DA:61,0
DA:63,0
DA:64,0
DA:65,0
DA:66,0
DA:67,0
DA:68,0
DA:73,88
DA:74,88
DA:75,88
DA:76,1
DA:78,87
DA:80,88
DA:82,9
DA:84,9
DA:85,0
DA:86,9
DA:88,9
DA:89,9
DA:90,9
DA:92,10
DA:93,1
DA:94,1
DA:95,1
DA:97,9
DA:98,0
DA:99,9
DA:101,9
DA:102,9
DA:103,1
DA:104,8
DA:106,8
DA:107,8
DA:109,25
DA:110,18
DA:111,18
DA:112,18
DA:113,18
DA:115,17
DA:116,17
DA:117,17
DA:118,17
DA:120,17
DA:123,7
DA:124,1
DA:126,2
DA:127,2
DA:128,2
DA:129,2
DA:132,4
DA:133,4
DA:134,4
DA:135,4
DA:136,4
DA:137,4
DA:139,0
DA:142,7
DA:144,9
DA:146,9
DA:147,9
DA:148,9
DA:156,1
DA:157,1
DA:158,1
DA:159,1
DA:160,1
DA:161,1
DA:162,1
DA:165,1
DA:166,1
DA:167,1
DA:168,1
DA:171,1
DA:172,1
DA:173,1
DA:174,1
DA:175,1
DA:178,1
DA:179,1
DA:180,1
DA:183,1
DA:184,1
DA:185,1
DA:186,1
BRF:0
BRH:0
LF:129
LH:107
end_of_record
SF:/Users/samcolak/Source Code/rust/distdb/distdb/common/src/helpers/format.rs
FN:16,_RNvMNtNtCs4dhADRbsRh6_6common7helpers6formatNtB2_9MagicCode3new
FN:20,_RNvMNtNtCs4dhADRbsRh6_6common7helpers6formatNtB2_9MagicCode8as_bytes
FN:41,_RNvMs0_NtNtCs4dhADRbsRh6_6common7helpers6formatNtB5_8FileKind5magic
FN:33,_RNvMs0_NtNtCs4dhADRbsRh6_6common7helpers6formatNtB5_8FileKind9extension
FN:90,_RNvNtNtCs4dhADRbsRh6_6common7helpers6format11make_header
FN:99,_RNvNtNtCs4dhADRbsRh6_6common7helpers6format13verify_header
FN:26,_RNvXs_NtNtCs4dhADRbsRh6_6common7helpers6formatNtB4_9MagicCodeINtNtCsfOyy81DYK0U_4core7convert5AsRefShE6as_ref
FN:131,_RNvNtNtNtCs4dhADRbsRh6_6common7helpers6format5testss_24verify_rejects_bad_magic
FN:145,_RNvNtNtNtCs4dhADRbsRh6_6common7helpers6format5testss_24verify_rejects_too_short
FN:138,_RNvNtNtNtCs4dhADRbsRh6_6common7helpers6format5testss_28verify_rejects_wrong_version
FN:150,_RNvNtNtNtCs4dhADRbsRh6_6common7helpers6format5testss_36file_kind_formats_extension_and_name
FN:124,_RNvNtNtNtCs4dhADRbsRh6_6common7helpers6format5testss_38make_header_round_trips_through_verify
FN:49,_RINvMs0_NtNtCs4dhADRbsRh6_6common7helpers6formatNtB6_8FileKind9file_nameReEBa_
FN:56,_RNvXs1_NtNtCs4dhADRbsRh6_6common7helpers6formatNtB5_8FileKindNtNtCsfOyy81DYK0U_4core3fmt7Display3fmt
FN:76,_RNvXs2_NtNtCs4dhADRbsRh6_6common7helpers6formatNtB5_11HeaderErrorNtNtCsfOyy81DYK0U_4core3fmt7Display3fmt
FNDA:9,_RNvMNtNtCs4dhADRbsRh6_6common7helpers6formatNtB2_9MagicCode3new
FNDA:3,_RNvMNtNtCs4dhADRbsRh6_6common7helpers6formatNtB2_9MagicCode8as_bytes
FNDA:9,_RNvMs0_NtNtCs4dhADRbsRh6_6common7helpers6formatNtB5_8FileKind5magic
FNDA:5,_RNvMs0_NtNtCs4dhADRbsRh6_6common7helpers6formatNtB5_8FileKind9extension
FNDA:3,_RNvNtNtCs4dhADRbsRh6_6common7helpers6format11make_header
FNDA:4,_RNvNtNtCs4dhADRbsRh6_6common7helpers6format13verify_header
FNDA:6,_RNvXs_NtNtCs4dhADRbsRh6_6common7helpers6formatNtB4_9MagicCodeINtNtCsfOyy81DYK0U_4core7convert5AsRefShE6as_ref
FNDA:1,_RNvNtNtNtCs4dhADRbsRh6_6common7helpers6format5testss_24verify_rejects_bad_magic
FNDA:1,_RNvNtNtNtCs4dhADRbsRh6_6common7helpers6format5testss_24verify_rejects_too_short
FNDA:1,_RNvNtNtNtCs4dhADRbsRh6_6common7helpers6format5testss_28verify_rejects_wrong_version
FNDA:1,_RNvNtNtNtCs4dhADRbsRh6_6common7helpers6format5testss_36file_kind_formats_extension_and_name
FNDA:1,_RNvNtNtNtCs4dhADRbsRh6_6common7helpers6format5testss_38make_header_round_trips_through_verify
FNDA:2,_RINvMs0_NtNtCs4dhADRbsRh6_6common7helpers6formatNtB6_8FileKind9file_nameReEBa_
FNDA:0,_RNvXs1_NtNtCs4dhADRbsRh6_6common7helpers6formatNtB5_8FileKindNtNtCsfOyy81DYK0U_4core3fmt7Display3fmt
FNDA:0,_RNvXs2_NtNtCs4dhADRbsRh6_6common7helpers6formatNtB5_11HeaderErrorNtNtCsfOyy81DYK0U_4core3fmt7Display3fmt
FNF:15
FNH:13
DA:16,9
DA:17,9
DA:18,9
DA:20,3
DA:21,3
DA:22,3
DA:26,6
DA:27,6
DA:28,6
DA:33,5
DA:34,5
DA:35,1
DA:36,2
DA:37,2
DA:39,5
DA:41,9
DA:42,9
DA:43,7
DA:44,1
DA:45,1
DA:47,9
DA:49,2
DA:50,2
DA:51,2
DA:56,0
DA:57,0
DA:58,0
DA:76,0
DA:77,0
DA:78,0
DA:79,0
DA:80,0
DA:81,0
DA:84,0
DA:90,3
DA:91,3
DA:92,3
DA:93,3
DA:94,3
DA:95,3
DA:99,4
DA:101,4
DA:102,1
DA:103,3
DA:105,3
DA:106,1
DA:107,2
DA:109,2
DA:110,2
DA:111,1
DA:112,1
DA:114,1
DA:116,4
DA:124,1
DA:125,1
DA:126,1
DA:127,1
DA:128,1
DA:131,1
DA:132,1
DA:133,1
DA:134,1
DA:135,1
DA:138,1
DA:139,1
DA:140,1
DA:141,1
DA:142,1
DA:145,1
DA:146,1
DA:147,1
DA:150,1
DA:151,1
DA:152,1
DA:153,1
DA:154,1
DA:155,1
DA:156,1
DA:157,1
DA:158,1
DA:159,1
BRF:0
BRH:0
LF:81
LH:71
end_of_record
SF:/Users/samcolak/Source Code/rust/distdb/distdb/common/src/helpers/hash.rs
FN:2,_RNvNtNtCs4dhADRbsRh6_6common7helpers4hash9stable_id
FNDA:0,_RNvNtNtCs4dhADRbsRh6_6common7helpers4hash9stable_id
FNF:1
FNH:0
DA:2,0
DA:4,0
DA:5,0
DA:6,0
DA:7,0
DA:8,0
DA:10,0
DA:12,0
DA:14,0
BRF:0
BRH:0
LF:9
LH:0
end_of_record
SF:/Users/samcolak/Source Code/rust/distdb/distdb/common/src/helpers/io.rs
FN:17,_RINvNtNtCs4dhADRbsRh6_6common7helpers2io10read_bytesRNtNtCsgL88BVMLsDE_3std4path7PathBufEB6_
FN:21,_RINvNtNtCs4dhADRbsRh6_6common7helpers2io10write_textRNtNtCsgL88BVMLsDE_3std4path7PathBufEB6_
FN:25,_RINvNtNtCs4dhADRbsRh6_6common7helpers2io11write_bytesRNtNtCsgL88BVMLsDE_3std4path7PathBufEB6_
FN:36,_RINvNtNtCs4dhADRbsRh6_6common7helpers2io18write_bytes_atomicRNtNtCsgL88BVMLsDE_3std4path7PathBufEB6_
FN:13,_RINvNtNtCs4dhADRbsRh6_6common7helpers2io9read_textRNtNtCsgL88BVMLsDE_3std4path7PathBufEB6_
FN:42,_RNCINvNtNtCs4dhADRbsRh6_6common7helpers2io18write_bytes_atomicRNtNtCsgL88BVMLsDE_3std4path7PathBufE0B8_
FN:50,_RNCINvNtNtCs4dhADRbsRh6_6common7helpers2io18write_bytes_atomicRNtNtCsgL88BVMLsDE_3std4path7PathBufEs0_0B8_
FN:43,_RNCINvNtNtCs4dhADRbsRh6_6common7helpers2io18write_bytes_atomicRNtNtCsgL88BVMLsDE_3std4path7PathBufEs_0B8_
FN:102,_RNvNtNtNtCs4dhADRbsRh6_6common7helpers2io5tests16unique_temp_file
FN:141,_RNvNtNtNtCs4dhADRbsRh6_6common7helpers2io5testss_29write_bytes_atomic_round_trip
FN:111,_RNvNtNtNtCs4dhADRbsRh6_6common7helpers2io5testss_30write_and_read_text_round_trip
FN:122,_RNvNtNtNtCs4dhADRbsRh6_6common7helpers2io5testss_32write_creates_parent_directories
FN:9,_RINvNtNtCs4dhADRbsRh6_6common7helpers2io10create_dirpEB6_
FN:85,_RINvNtNtCs4dhADRbsRh6_6common7helpers2io10list_filespEB6_
FN:72,_RINvNtNtCs4dhADRbsRh6_6common7helpers2io12append_bytespEB6_
FNDA:2,_RINvNtNtCs4dhADRbsRh6_6common7helpers2io10read_bytesRNtNtCsgL88BVMLsDE_3std4path7PathBufEB6_
FNDA:1,_RINvNtNtCs4dhADRbsRh6_6common7helpers2io10write_textRNtNtCsgL88BVMLsDE_3std4path7PathBufEB6_
FNDA:2,_RINvNtNtCs4dhADRbsRh6_6common7helpers2io11write_bytesRNtNtCsgL88BVMLsDE_3std4path7PathBufEB6_
FNDA:1,_RINvNtNtCs4dhADRbsRh6_6common7helpers2io18write_bytes_atomicRNtNtCsgL88BVMLsDE_3std4path7PathBufEB6_
FNDA:1,_RINvNtNtCs4dhADRbsRh6_6common7helpers2io9read_textRNtNtCsgL88BVMLsDE_3std4path7PathBufEB6_
FNDA:1,_RNCINvNtNtCs4dhADRbsRh6_6common7helpers2io18write_bytes_atomicRNtNtCsgL88BVMLsDE_3std4path7PathBufE0B8_
FNDA:1,_RNCINvNtNtCs4dhADRbsRh6_6common7helpers2io18write_bytes_atomicRNtNtCsgL88BVMLsDE_3std4path7PathBufEs0_0B8_
FNDA:0,_RNCINvNtNtCs4dhADRbsRh6_6common7helpers2io18write_bytes_atomicRNtNtCsgL88BVMLsDE_3std4path7PathBufEs_0B8_
FNDA:2,_RNvNtNtNtCs4dhADRbsRh6_6common7helpers2io5tests16unique_temp_file
FNDA:1,_RNvNtNtNtCs4dhADRbsRh6_6common7helpers2io5testss_29write_bytes_atomic_round_trip
FNDA:1,_RNvNtNtNtCs4dhADRbsRh6_6common7helpers2io5testss_30write_and_read_text_round_trip
FNDA:1,_RNvNtNtNtCs4dhADRbsRh6_6common7helpers2io5testss_32write_creates_parent_directories
FNDA:0,_RINvNtNtCs4dhADRbsRh6_6common7helpers2io10create_dirpEB6_
FNDA:0,_RINvNtNtCs4dhADRbsRh6_6common7helpers2io10list_filespEB6_
FNDA:0,_RINvNtNtCs4dhADRbsRh6_6common7helpers2io12append_bytespEB6_
FNF:15
FNH:11
DA:9,0
DA:10,0
DA:11,0
DA:13,1
DA:14,1
DA:15,1
DA:17,2
DA:18,2
DA:19,2
DA:21,1
DA:22,1
DA:23,1
DA:25,2
DA:26,2
DA:28,2
DA:29,2
DA:30,2
DA:31,0
DA:33,2
DA:34,2
DA:36,1
DA:38,1
DA:40,1
DA:41,1
DA:42,1
DA:43,1
DA:45,1
DA:47,1
DA:49,1
DA:50,1
DA:51,1
DA:52,1
DA:53,1
DA:55,1
DA:57,1
DA:58,1
DA:59,1
DA:60,1
DA:62,1
DA:64,1
DA:65,1
DA:66,1
DA:68,1
DA:70,1
DA:72,0
DA:74,0
DA:76,0
DA:77,0
DA:78,0
DA:79,0
DA:81,0
DA:82,0
DA:83,0
DA:85,0
DA:86,0
DA:87,0
DA:88,0
DA:89,0
DA:90,0
DA:91,0
DA:92,0
DA:94,0
DA:95,0
DA:102,2
DA:103,2
DA:104,2
DA:105,2
DA:106,2
DA:107,2
DA:108,2
DA:111,1
DA:112,1
DA:114,1
DA:115,1
DA:117,1
DA:118,1
DA:119,1
DA:122,1
DA:123,1
DA:124,1
DA:125,1
DA:126,1
DA:127,1
DA:128,1
DA:129,1
DA:130,1
DA:132,1
DA:133,1
DA:135,1
DA:136,1
DA:137,1
DA:138,1
DA:141,1
DA:143,1
DA:145,1
DA:146,1
DA:148,1
DA:149,1
DA:151,1
BRF:0
BRH:0
LF:102
LH:78
end_of_record
SF:/Users/samcolak/Source Code/rust/distdb/distdb/common/src/helpers/p2p.rs
FN:71,_RNvNtNtCs4dhADRbsRh6_6common7helpers3p2p21is_ca_bootstrap_frame
FN:35,_RNvNtNtCs4dhADRbsRh6_6common7helpers3p2p27decode_ca_bootstrap_request
FN:28,_RNvNtNtCs4dhADRbsRh6_6common7helpers3p2p27encode_ca_bootstrap_request
FN:58,_RNvNtNtCs4dhADRbsRh6_6common7helpers3p2p28decode_ca_bootstrap_response
FN:48,_RNvNtNtCs4dhADRbsRh6_6common7helpers3p2p28encode_ca_bootstrap_response
FNDA:0,_RNvNtNtCs4dhADRbsRh6_6common7helpers3p2p21is_ca_bootstrap_frame
FNDA:0,_RNvNtNtCs4dhADRbsRh6_6common7helpers3p2p27decode_ca_bootstrap_request
FNDA:0,_RNvNtNtCs4dhADRbsRh6_6common7helpers3p2p27encode_ca_bootstrap_request
FNDA:0,_RNvNtNtCs4dhADRbsRh6_6common7helpers3p2p28decode_ca_bootstrap_response
FNDA:0,_RNvNtNtCs4dhADRbsRh6_6common7helpers3p2p28encode_ca_bootstrap_response
FNF:5
FNH:0
DA:28,0
DA:29,0
DA:30,0
DA:31,0
DA:32,0
DA:33,0
DA:35,0
DA:37,0
DA:38,0
DA:39,0
DA:40,0
DA:41,0
DA:42,0
DA:44,0
DA:46,0
DA:48,0
DA:50,0
DA:51,0
DA:53,0
DA:54,0
DA:56,0
DA:58,0
DA:60,0
DA:61,0
DA:62,0
DA:63,0
DA:64,0
DA:65,0
DA:67,0
DA:69,0
DA:71,0
DA:73,0
DA:74,0
DA:76,0
BRF:0
BRH:0
LF:34
LH:0
end_of_record
SF:/Users/samcolak/Source Code/rust/distdb/distdb/common/src/helpers/tphashset.rs
FN:276,_RNvNtNtNtCs4dhADRbsRh6_6common7helpers9tphashset5testss_20reverse_lookup_works
FN:266,_RNvNtNtNtCs4dhADRbsRh6_6common7helpers9tphashset5testss_24insert_and_get_roundtrip
FN:350,_RNvNtNtNtCs4dhADRbsRh6_6common7helpers9tphashset5testss_26remove_clears_both_indexes
FN:339,_RNvNtNtNtCs4dhADRbsRh6_6common7helpers9tphashset5testss_29gap_search_refines_candidates
FN:312,_RNvNtNtNtCs4dhADRbsRh6_6common7helpers9tphashset5testss_32suffix_search_uses_reverse_index
FN:297,_RNvNtNtNtCs4dhADRbsRh6_6common7helpers9tphashset5testss_35prefix_search_can_ignore_ascii_case
FN:323,_RNvNtNtNtCs4dhADRbsRh6_6common7helpers9tphashset5testss_35suffix_search_can_ignore_ascii_case
FN:286,_RNvNtNtNtCs4dhADRbsRh6_6common7helpers9tphashset5testss_36prefix_search_returns_sorted_matches
FN:306,_RNCNvNtNtNtCs4dhADRbsRh6_6common7helpers9tphashset5testss_35prefix_search_can_ignore_ascii_case0B9_
FN:332,_RNCNvNtNtNtCs4dhADRbsRh6_6common7helpers9tphashset5testss_35suffix_search_can_ignore_ascii_case0B9_
FN:29,_RNvMs_NtNtCs4dhADRbsRh6_6common7helpers9tphashsetINtB4_9TPHashSetpE4iterB8_
FN:153,_RNvMs_NtNtCs4dhADRbsRh6_6common7helpers9tphashsetINtB4_9TPHashSetpE5clearB8_
FN:89,_RNCNCNvMs_NtNtCs4dhADRbsRh6_6common7helpers9tphashsetINtB8_9TPHashSetlE13search_suffix00Bc_
FN:114,_RNCNvMs_NtNtCs4dhADRbsRh6_6common7helpers9tphashsetINtB6_9TPHashSetlE11search_like0Ba_
FN:134,_RNCNvMs_NtNtCs4dhADRbsRh6_6common7helpers9tphashsetINtB6_9TPHashSetlE11search_likes_0Ba_
FN:68,_RNCNvMs_NtNtCs4dhADRbsRh6_6common7helpers9tphashsetINtB6_9TPHashSetlE13search_prefix0Ba_
FN:74,_RNCNvMs_NtNtCs4dhADRbsRh6_6common7helpers9tphashsetINtB6_9TPHashSetlE13search_prefixs_0Ba_
FN:87,_RNCNvMs_NtNtCs4dhADRbsRh6_6common7helpers9tphashsetINtB6_9TPHashSetlE13search_suffix0Ba_
FN:99,_RNCNvMs_NtNtCs4dhADRbsRh6_6common7helpers9tphashsetINtB6_9TPHashSetlE13search_suffixs_0Ba_
FN:142,_RNCNvMs_NtNtCs4dhADRbsRh6_6common7helpers9tphashsetINtB6_9TPHashSetlE16search_like_keys0Ba_
FN:50,_RNCNvMs_NtNtCs4dhADRbsRh6_6common7helpers9tphashsetINtB6_9TPHashSetlE18get_by_reverse_key0Ba_
FN:193,_RNCNvMs_NtNtCs4dhADRbsRh6_6common7helpers9tphashsetINtB6_9TPHashSetlE27ends_with_ignore_ascii_case0Ba_
FN:179,_RNCNvMs_NtNtCs4dhADRbsRh6_6common7helpers9tphashsetINtB6_9TPHashSetlE29starts_with_ignore_ascii_case0Ba_
FN:158,_RNvMs_NtNtCs4dhADRbsRh6_6common7helpers9tphashsetINtB4_9TPHashSetlE11reverse_keyB8_
FN:104,_RNvMs_NtNtCs4dhADRbsRh6_6common7helpers9tphashsetINtB4_9TPHashSetlE11search_likeB8_
FN:53,_RNvMs_NtNtCs4dhADRbsRh6_6common7helpers9tphashsetINtB4_9TPHashSetlE12contains_keyB8_
FN:197,_RNvMs_NtNtCs4dhADRbsRh6_6common7helpers9tphashsetINtB4_9TPHashSetlE12like_matchesB8_
FN:61,_RNvMs_NtNtCs4dhADRbsRh6_6common7helpers9tphashsetINtB4_9TPHashSetlE13search_prefixB8_
FN:79,_RNvMs_NtNtCs4dhADRbsRh6_6common7helpers9tphashsetINtB4_9TPHashSetlE13search_suffixB8_
FN:139,_RNvMs_NtNtCs4dhADRbsRh6_6common7helpers9tphashsetINtB4_9TPHashSetlE16search_like_keysB8_
FN:47,_RNvMs_NtNtCs4dhADRbsRh6_6common7helpers9tphashsetINtB4_9TPHashSetlE18get_by_reverse_keyB8_
FN:203,_RNvMs_NtNtCs4dhADRbsRh6_6common7helpers9tphashsetINtB4_9TPHashSetlE18like_matches_charsB8_
FN:162,_RNvMs_NtNtCs4dhADRbsRh6_6common7helpers9tphashsetINtB4_9TPHashSetlE18prefix_upper_boundB8_
FN:57,_RNvMs_NtNtCs4dhADRbsRh6_6common7helpers9tphashsetINtB4_9TPHashSetlE20contains_reverse_keyB8_
FN:183,_RNvMs_NtNtCs4dhADRbsRh6_6common7helpers9tphashsetINtB4_9TPHashSetlE27ends_with_ignore_ascii_caseB8_
FN:169,_RNvMs_NtNtCs4dhADRbsRh6_6common7helpers9tphashsetINtB4_9TPHashSetlE29starts_with_ignore_ascii_caseB8_
FN:43,_RNvMs_NtNtCs4dhADRbsRh6_6common7helpers9tphashsetINtB4_9TPHashSetlE3getB8_
FN:25,_RNvMs_NtNtCs4dhADRbsRh6_6common7helpers9tphashsetINtB4_9TPHashSetlE3lenB8_
FN:21,_RNvMs_NtNtCs4dhADRbsRh6_6common7helpers9tphashsetINtB4_9TPHashSetlE3newB8_
FN:37,_RNvMs_NtNtCs4dhADRbsRh6_6common7helpers9tphashsetINtB4_9TPHashSetlE6insertB8_
FN:146,_RNvMs_NtNtCs4dhADRbsRh6_6common7helpers9tphashsetINtB4_9TPHashSetlE6removeB8_
FN:33,_RNvMs_NtNtCs4dhADRbsRh6_6common7helpers9tphashsetINtB4_9TPHashSetlE8is_emptyB8_
FN:11,_RNvXNtNtCs4dhADRbsRh6_6common7helpers9tphashsetINtB2_9TPHashSetlENtNtCsfOyy81DYK0U_4core7default7Default7defaultB6_
FNDA:1,_RNvNtNtNtCs4dhADRbsRh6_6common7helpers9tphashset5testss_20reverse_lookup_works
FNDA:1,_RNvNtNtNtCs4dhADRbsRh6_6common7helpers9tphashset5testss_24insert_and_get_roundtrip
FNDA:1,_RNvNtNtNtCs4dhADRbsRh6_6common7helpers9tphashset5testss_26remove_clears_both_indexes
FNDA:1,_RNvNtNtNtCs4dhADRbsRh6_6common7helpers9tphashset5testss_29gap_search_refines_candidates
FNDA:1,_RNvNtNtNtCs4dhADRbsRh6_6common7helpers9tphashset5testss_32suffix_search_uses_reverse_index
FNDA:1,_RNvNtNtNtCs4dhADRbsRh6_6common7helpers9tphashset5testss_35prefix_search_can_ignore_ascii_case
FNDA:1,_RNvNtNtNtCs4dhADRbsRh6_6common7helpers9tphashset5testss_35suffix_search_can_ignore_ascii_case
FNDA:1,_RNvNtNtNtCs4dhADRbsRh6_6common7helpers9tphashset5testss_36prefix_search_returns_sorted_matches
FNDA:2,_RNCNvNtNtNtCs4dhADRbsRh6_6common7helpers9tphashset5testss_35prefix_search_can_ignore_ascii_case0B9_
FNDA:2,_RNCNvNtNtNtCs4dhADRbsRh6_6common7helpers9tphashset5testss_35suffix_search_can_ignore_ascii_case0B9_
FNDA:0,_RNvMs_NtNtCs4dhADRbsRh6_6common7helpers9tphashsetINtB4_9TPHashSetpE4iterB8_
FNDA:0,_RNvMs_NtNtCs4dhADRbsRh6_6common7helpers9tphashsetINtB4_9TPHashSetpE5clearB8_
FNDA:3,_RNCNCNvMs_NtNtCs4dhADRbsRh6_6common7helpers9tphashsetINtB8_9TPHashSetlE13search_suffix00Bc_
FNDA:0,_RNCNvMs_NtNtCs4dhADRbsRh6_6common7helpers9tphashsetINtB6_9TPHashSetlE11search_like0Ba_
FNDA:3,_RNCNvMs_NtNtCs4dhADRbsRh6_6common7helpers9tphashsetINtB6_9TPHashSetlE11search_likes_0Ba_
FNDA:2,_RNCNvMs_NtNtCs4dhADRbsRh6_6common7helpers9tphashsetINtB6_9TPHashSetlE13search_prefix0Ba_
FNDA:3,_RNCNvMs_NtNtCs4dhADRbsRh6_6common7helpers9tphashsetINtB6_9TPHashSetlE13search_prefixs_0Ba_
FNDA:3,_RNCNvMs_NtNtCs4dhADRbsRh6_6common7helpers9tphashsetINtB6_9TPHashSetlE13search_suffix0Ba_
FNDA:3,_RNCNvMs_NtNtCs4dhADRbsRh6_6common7helpers9tphashsetINtB6_9TPHashSetlE13search_suffixs_0Ba_
FNDA:7,_RNCNvMs_NtNtCs4dhADRbsRh6_6common7helpers9tphashsetINtB6_9TPHashSetlE16search_like_keys0Ba_
FNDA:1,_RNCNvMs_NtNtCs4dhADRbsRh6_6common7helpers9tphashsetINtB6_9TPHashSetlE18get_by_reverse_key0Ba_
FNDA:3,_RNCNvMs_NtNtCs4dhADRbsRh6_6common7helpers9tphashsetINtB6_9TPHashSetlE27ends_with_ignore_ascii_case0Ba_
FNDA:3,_RNCNvMs_NtNtCs4dhADRbsRh6_6common7helpers9tphashsetINtB6_9TPHashSetlE29starts_with_ignore_ascii_case0Ba_
FNDA:23,_RNvMs_NtNtCs4dhADRbsRh6_6common7helpers9tphashsetINtB4_9TPHashSetlE11reverse_keyB8_
FNDA:3,_RNvMs_NtNtCs4dhADRbsRh6_6common7helpers9tphashsetINtB4_9TPHashSetlE11search_likeB8_
FNDA:1,_RNvMs_NtNtCs4dhADRbsRh6_6common7helpers9tphashsetINtB4_9TPHashSetlE12contains_keyB8_
FNDA:3,_RNvMs_NtNtCs4dhADRbsRh6_6common7helpers9tphashsetINtB4_9TPHashSetlE12like_matchesB8_
FNDA:2,_RNvMs_NtNtCs4dhADRbsRh6_6common7helpers9tphashsetINtB4_9TPHashSetlE13search_prefixB8_
FNDA:2,_RNvMs_NtNtCs4dhADRbsRh6_6common7helpers9tphashsetINtB4_9TPHashSetlE13search_suffixB8_
FNDA:3,_RNvMs_NtNtCs4dhADRbsRh6_6common7helpers9tphashsetINtB4_9TPHashSetlE16search_like_keysB8_
FNDA:2,_RNvMs_NtNtCs4dhADRbsRh6_6common7helpers9tphashsetINtB4_9TPHashSetlE18get_by_reverse_keyB8_
FNDA:3,_RNvMs_NtNtCs4dhADRbsRh6_6common7helpers9tphashsetINtB4_9TPHashSetlE18like_matches_charsB8_
FNDA:2,_RNvMs_NtNtCs4dhADRbsRh6_6common7helpers9tphashsetINtB4_9TPHashSetlE18prefix_upper_boundB8_
FNDA:1,_RNvMs_NtNtCs4dhADRbsRh6_6common7helpers9tphashsetINtB4_9TPHashSetlE20contains_reverse_keyB8_
FNDA:3,_RNvMs_NtNtCs4dhADRbsRh6_6common7helpers9tphashsetINtB4_9TPHashSetlE27ends_with_ignore_ascii_caseB8_
FNDA:3,_RNvMs_NtNtCs4dhADRbsRh6_6common7helpers9tphashsetINtB4_9TPHashSetlE29starts_with_ignore_ascii_caseB8_
FNDA:2,_RNvMs_NtNtCs4dhADRbsRh6_6common7helpers9tphashsetINtB4_9TPHashSetlE3getB8_
FNDA:1,_RNvMs_NtNtCs4dhADRbsRh6_6common7helpers9tphashsetINtB4_9TPHashSetlE3lenB8_
FNDA:8,_RNvMs_NtNtCs4dhADRbsRh6_6common7helpers9tphashsetINtB4_9TPHashSetlE3newB8_
FNDA:18,_RNvMs_NtNtCs4dhADRbsRh6_6common7helpers9tphashsetINtB4_9TPHashSetlE6insertB8_
FNDA:1,_RNvMs_NtNtCs4dhADRbsRh6_6common7helpers9tphashsetINtB4_9TPHashSetlE6removeB8_
FNDA:1,_RNvMs_NtNtCs4dhADRbsRh6_6common7helpers9tphashsetINtB4_9TPHashSetlE8is_emptyB8_
FNDA:8,_RNvXNtNtCs4dhADRbsRh6_6common7helpers9tphashsetINtB2_9TPHashSetlENtNtCsfOyy81DYK0U_4core7default7Default7defaultB6_
FNF:43
FNH:40
DA:11,8
DA:12,8
DA:13,8
DA:14,8
DA:15,8
DA:16,8
DA:21,8
DA:22,8
DA:23,8
DA:25,1
DA:26,1
DA:27,1
DA:29,0
DA:30,0
DA:31,0
DA:33,1
DA:34,1
DA:35,1
DA:37,18
DA:38,18
DA:39,18
DA:40,18
DA:41,18
DA:43,2
DA:44,2
DA:45,2
DA:47,2
DA:48,2
DA:49,2
DA:50,2
DA:51,2
DA:53,1
DA:54,1
DA:55,1
DA:57,1
DA:58,1
DA:59,1
DA:61,2
DA:63,2
DA:64,1
DA:66,1
DA:67,1
DA:68,2
DA:69,1
DA:70,1
DA:72,1
DA:73,1
DA:74,3
DA:75,1
DA:77,2
DA:79,2
DA:81,2
DA:82,1
DA:83,1
DA:85,1
DA:86,1
DA:87,3
DA:88,3
DA:89,3
DA:91,0
DA:93,3
DA:94,1
DA:95,1
DA:97,1
DA:98,1
DA:99,3
DA:100,1
DA:102,2
DA:104,3
DA:106,3
DA:107,0
DA:108,3
DA:110,3
DA:111,0
DA:112,0
DA:113,0
DA:114,0
DA:115,0
DA:116,3
DA:118,3
DA:119,2
DA:120,1
DA:122,1
DA:123,2
DA:125,2
DA:126,1
DA:127,1
DA:129,1
DA:130,1
DA:132,1
DA:133,1
DA:134,3
DA:135,1
DA:137,3
DA:139,3
DA:140,3
DA:141,3
DA:142,7
DA:143,3
DA:144,3
DA:146,1
DA:147,1
DA:148,1
DA:149,1
DA:150,1
DA:151,1
DA:153,0
DA:154,0
DA:155,0
DA:156,0
DA:158,23
DA:159,23
DA:160,23
DA:162,2
DA:163,2
DA:164,2
DA:165,2
DA:166,2
DA:167,2
DA:169,3
DA:170,3
DA:171,3
DA:173,3
DA:174,0
DA:175,3
DA:177,3
DA:178,3
DA:179,3
DA:180,3
DA:181,3
DA:183,3
DA:184,3
DA:185,3
DA:187,3
DA:188,0
DA:189,3
DA:191,3
DA:192,3
DA:193,3
DA:194,3
DA:195,3
DA:197,3
DA:198,3
DA:199,3
DA:200,3
DA:201,3
DA:203,3
DA:205,3
DA:206,3
DA:207,3
DA:208,3
DA:210,33
DA:212,30
DA:214,30
DA:217,0
DA:218,0
DA:219,0
DA:223,5
DA:224,5
DA:225,5
DA:226,5
DA:229,25
DA:230,25
DA:231,12
DA:232,12
DA:233,12
DA:234,13
DA:239,0
DA:241,13
DA:242,13
DA:243,13
DA:244,13
DA:245,13
DA:246,0
DA:248,0
DA:251,3
DA:252,0
DA:253,0
DA:255,3
DA:257,3
DA:266,1
DA:267,1
DA:269,1
DA:270,1
DA:271,1
DA:272,1
DA:273,1
DA:276,1
DA:277,1
DA:279,1
DA:281,1
DA:282,1
DA:283,1
DA:286,1
DA:287,1
DA:288,1
DA:289,1
DA:290,1
DA:292,1
DA:293,1
DA:294,1
DA:297,1
DA:298,1
DA:299,1
DA:300,1
DA:301,1
DA:303,1
DA:304,1
DA:305,1
DA:306,2
DA:307,1
DA:308,1
DA:309,1
DA:312,1
DA:313,1
DA:314,1
DA:315,1
DA:316,1
DA:318,1
DA:319,1
DA:320,1
DA:323,1
DA:324,1
DA:325,1
DA:326,1
DA:327,1
DA:329,1
DA:330,1
DA:331,1
DA:332,2
DA:333,1
DA:335,1
DA:336,1
DA:339,1
DA:340,1
DA:341,1
DA:342,1
DA:343,1
DA:345,1
DA:346,1
DA:347,1
DA:350,1
DA:351,1
DA:353,1
DA:354,1
DA:355,1
DA:356,1
DA:357,1
DA:358,1
BRF:0
BRH:0
LF:262
LH:237
end_of_record
SF:/Users/samcolak/Source Code/rust/distdb/distdb/common/src/helpers/utils.rs
FN:83,_RNvNtNtNtCs4dhADRbsRh6_6common7helpers5utils5testss_41normalize_identifier_strips_double_quotes
FN:88,_RNvNtNtNtCs4dhADRbsRh6_6common7helpers5utils5testss_41normalize_identifier_strips_single_quotes
FN:78,_RNvNtNtNtCs4dhADRbsRh6_6common7helpers5utils5testss_43normalize_identifier_strips_backtick_quotes
FN:49,_RNvNtNtCs4dhADRbsRh6_6common7helpers5utils11epoch_nanos
FN:12,_RINvNtNtCs4dhADRbsRh6_6common7helpers5utils20normalize_identifierReEB6_
FN:57,_RNvNtNtCs4dhADRbsRh6_6common7helpers5utils16epoch_to_utcdate
FN:68,_RNvNtNtCs4dhADRbsRh6_6common7helpers5utils3md5
FN:33,_RNvNtNtCs4dhADRbsRh6_6common7helpers5utils5epoch
FN:41,_RNvNtNtCs4dhADRbsRh6_6common7helpers5utils8epoch_ms
FN:63,_RNvNtNtCs4dhADRbsRh6_6common7helpers5utils8md5_hash
FN:7,_RNvNtNtCs4dhADRbsRh6_6common7helpers5utils9unique_id
FNDA:1,_RNvNtNtNtCs4dhADRbsRh6_6common7helpers5utils5testss_41normalize_identifier_strips_double_quotes
FNDA:1,_RNvNtNtNtCs4dhADRbsRh6_6common7helpers5utils5testss_41normalize_identifier_strips_single_quotes
FNDA:1,_RNvNtNtNtCs4dhADRbsRh6_6common7helpers5utils5testss_43normalize_identifier_strips_backtick_quotes
FNDA:1,_RNvNtNtCs4dhADRbsRh6_6common7helpers5utils11epoch_nanos
FNDA:3,_RINvNtNtCs4dhADRbsRh6_6common7helpers5utils20normalize_identifierReEB6_
FNDA:0,_RNvNtNtCs4dhADRbsRh6_6common7helpers5utils16epoch_to_utcdate
FNDA:0,_RNvNtNtCs4dhADRbsRh6_6common7helpers5utils3md5
FNDA:0,_RNvNtNtCs4dhADRbsRh6_6common7helpers5utils5epoch
FNDA:0,_RNvNtNtCs4dhADRbsRh6_6common7helpers5utils8epoch_ms
FNDA:0,_RNvNtNtCs4dhADRbsRh6_6common7helpers5utils8md5_hash
FNDA:0,_RNvNtNtCs4dhADRbsRh6_6common7helpers5utils9unique_id
FNF:11
FNH:5
DA:7,0
DA:8,0
DA:9,0
DA:12,3
DA:13,3
DA:16,6
DA:17,6
DA:18,5
DA:19,4
DA:21,6
DA:22,3
DA:23,3
DA:25,3
DA:26,3
DA:29,3
DA:30,3
DA:33,0
DA:34,0
DA:35,0
DA:36,0
DA:38,0
DA:41,0
DA:42,0
DA:43,0
DA:44,0
DA:46,0
DA:49,1
DA:50,1
DA:51,1
DA:52,0
DA:54,1
DA:57,0
DA:58,0
DA:59,0
DA:60,0
DA:63,0
DA:64,0
DA:65,0
DA:68,0
DA:69,0
DA:70,0
DA:71,0
DA:78,1
DA:79,1
DA:80,1
DA:83,1
DA:84,1
DA:85,1
DA:88,1
DA:89,1
DA:90,1
BRF:0
BRH:0
LF:51
LH:26
end_of_record
SF:/Users/samcolak/Source Code/rust/distdb/distdb/common/src/schema/field_kind.rs
FN:33,_RNCNvMNtNtCs4dhADRbsRh6_6common6schema10field_kindNtB4_9FieldKind24sql_variant_display_name0B8_
FN:102,_RNvNtNtNtCs4dhADRbsRh6_6common6schema10field_kind5testss_42to_sql_string_matches_variant_display_name
FN:74,_RNvNtNtNtCs4dhADRbsRh6_6common6schema10field_kind5testss_45sql_variant_display_name_formats_scalar_types
FN:93,_RNvNtNtNtCs4dhADRbsRh6_6common6schema10field_kind5testss_46sql_variant_display_name_formats_enum_variants
FN:43,_RNvMNtNtCs4dhADRbsRh6_6common6schema10field_kindNtB2_9FieldKind13to_sql_string
FN:19,_RNvMNtNtCs4dhADRbsRh6_6common6schema10field_kindNtB2_9FieldKind24sql_variant_display_name
FN:49,_RNvNtNtCs4dhADRbsRh6_6common6schema10field_kind20int_sql_display_name
FN:59,_RNvNtNtCs4dhADRbsRh6_6common6schema10field_kind21uint_sql_display_name
FNDA:2,_RNCNvMNtNtCs4dhADRbsRh6_6common6schema10field_kindNtB4_9FieldKind24sql_variant_display_name0B8_
FNDA:1,_RNvNtNtNtCs4dhADRbsRh6_6common6schema10field_kind5testss_42to_sql_string_matches_variant_display_name
FNDA:1,_RNvNtNtNtCs4dhADRbsRh6_6common6schema10field_kind5testss_45sql_variant_display_name_formats_scalar_types
FNDA:1,_RNvNtNtNtCs4dhADRbsRh6_6common6schema10field_kind5testss_46sql_variant_display_name_formats_enum_variants
FNDA:1,_RNvMNtNtCs4dhADRbsRh6_6common6schema10field_kindNtB2_9FieldKind13to_sql_string
FNDA:18,_RNvMNtNtCs4dhADRbsRh6_6common6schema10field_kindNtB2_9FieldKind24sql_variant_display_name
FNDA:4,_RNvNtNtCs4dhADRbsRh6_6common6schema10field_kind20int_sql_display_name
FNDA:3,_RNvNtNtCs4dhADRbsRh6_6common6schema10field_kind21uint_sql_display_name
FNF:8
FNH:8
DA:19,18
DA:21,18
DA:22,4
DA:23,3
DA:24,1
DA:25,1
DA:26,1
DA:27,1
DA:28,3
DA:29,1
DA:30,1
DA:31,1
DA:32,1
DA:33,2
DA:34,1
DA:35,1
DA:36,1
DA:38,1
DA:39,1
DA:41,18
DA:43,1
DA:44,1
DA:45,1
DA:49,4
DA:50,4
DA:51,1
DA:52,1
DA:53,1
DA:54,1
DA:55,0
DA:57,4
DA:59,3
DA:60,3
DA:61,1
DA:62,1
DA:63,1
DA:64,0
DA:65,0
DA:67,3
DA:74,1
DA:75,1
DA:76,1
DA:77,1
DA:78,1
DA:79,1
DA:80,1
DA:81,1
DA:82,1
DA:83,1
DA:84,1
DA:85,1
DA:86,1
DA:87,1
DA:88,1
DA:89,1
DA:90,1
DA:93,1
DA:94,1
DA:95,1
DA:96,1
DA:99,1
DA:102,1
DA:103,1
DA:104,1
DA:105,1
BRF:0
BRH:0
LF:66
LH:63
end_of_record
SF:/Users/samcolak/Source Code/rust/distdb/distdb/common/src/schema/field_metadata.rs
FN:26,_RNvMNtNtCs4dhADRbsRh6_6common6schema14field_metadataNtB2_13FieldMetadata9is_hidden
FNDA:0,_RNvMNtNtCs4dhADRbsRh6_6common6schema14field_metadataNtB2_13FieldMetadata9is_hidden
FNF:1
FNH:0
DA:26,0
DA:27,0
DA:28,0
BRF:0
BRH:0
LF:3
LH:0
end_of_record
SF:/Users/samcolak/Source Code/rust/distdb/distdb/common/src/schema/peer_session.rs
FN:47,_RNvMNtNtCs4dhADRbsRh6_6common6schema12peer_sessionNtB2_11PeerSession17with_service_type
FN:52,_RNvMNtNtCs4dhADRbsRh6_6common6schema12peer_sessionNtB2_11PeerSession22clear_connection_state
FN:23,_RNvMNtNtCs4dhADRbsRh6_6common6schema12peer_sessionNtB2_11PeerSession3new
FN:42,_RINvMNtNtCs4dhADRbsRh6_6common6schema12peer_sessionNtB3_11PeerSession12with_user_idReEB7_
FN:27,_RINvMNtNtCs4dhADRbsRh6_6common6schema12peer_sessionNtB3_11PeerSession13with_databaseReEB7_
FN:32,_RINvMNtNtCs4dhADRbsRh6_6common6schema12peer_sessionNtB3_11PeerSession15with_auth_tokenReEB7_
FN:37,_RINvMNtNtCs4dhADRbsRh6_6common6schema12peer_sessionNtB3_11PeerSession15with_session_idReEB7_
FN:78,_RNvNtNtNtCs4dhADRbsRh6_6common6schema12peer_session5testss_20service_type_is_copy
FN:67,_RNvNtNtNtCs4dhADRbsRh6_6common6schema12peer_session5testss_30default_service_type_is_client
FN:72,_RNvNtNtNtCs4dhADRbsRh6_6common6schema12peer_session5testss_32with_service_type_sets_data_node
FN:85,_RNvNtNtNtCs4dhADRbsRh6_6common6schema12peer_session5testss_47clear_connection_state_resets_connection_fields
FNDA:2,_RNvMNtNtCs4dhADRbsRh6_6common6schema12peer_sessionNtB2_11PeerSession17with_service_type
FNDA:1,_RNvMNtNtCs4dhADRbsRh6_6common6schema12peer_sessionNtB2_11PeerSession22clear_connection_state
FNDA:3,_RNvMNtNtCs4dhADRbsRh6_6common6schema12peer_sessionNtB2_11PeerSession3new
FNDA:1,_RINvMNtNtCs4dhADRbsRh6_6common6schema12peer_sessionNtB3_11PeerSession12with_user_idReEB7_
FNDA:1,_RINvMNtNtCs4dhADRbsRh6_6common6schema12peer_sessionNtB3_11PeerSession13with_databaseReEB7_
FNDA:1,_RINvMNtNtCs4dhADRbsRh6_6common6schema12peer_sessionNtB3_11PeerSession15with_auth_tokenReEB7_
FNDA:1,_RINvMNtNtCs4dhADRbsRh6_6common6schema12peer_sessionNtB3_11PeerSession15with_session_idReEB7_
FNDA:1,_RNvNtNtNtCs4dhADRbsRh6_6common6schema12peer_session5testss_20service_type_is_copy
FNDA:1,_RNvNtNtNtCs4dhADRbsRh6_6common6schema12peer_session5testss_30default_service_type_is_client
FNDA:1,_RNvNtNtNtCs4dhADRbsRh6_6common6schema12peer_session5testss_32with_service_type_sets_data_node
FNDA:1,_RNvNtNtNtCs4dhADRbsRh6_6common6schema12peer_session5testss_47clear_connection_state_resets_connection_fields
FNF:11
FNH:11
DA:23,3
DA:24,3
DA:25,3
DA:27,1
DA:28,1
DA:29,1
DA:30,1
DA:32,1
DA:33,1
DA:34,1
DA:35,1
DA:37,1
DA:38,1
DA:39,1
DA:40,1
DA:42,1
DA:43,1
DA:44,1
DA:45,1
DA:47,2
DA:48,2
DA:49,2
DA:50,2
DA:52,1
DA:53,1
DA:54,1
DA:55,1
DA:56,1
DA:57,1
DA:67,1
DA:68,1
DA:69,1
DA:72,1
DA:73,1
DA:74,1
DA:75,1
DA:78,1
DA:79,1
DA:80,1
DA:81,1
DA:82,1
DA:85,1
DA:86,1
DA:87,1
DA:88,1
DA:89,1
DA:90,1
DA:91,1
DA:93,1
DA:95,1
DA:96,1
DA:97,1
DA:98,1
DA:99,1
DA:100,1
BRF:0
BRH:0
LF:55
LH:55
end_of_record
SF:/Users/samcolak/Source Code/rust/distdb/distdb/common/src/schema/session_log.rs
FN:63,_RINvMs0_NtNtCs4dhADRbsRh6_6common6schema11session_logNtB6_10SessionLog9add_entrypEBa_
FN:40,_RINvMs_NtNtCs4dhADRbsRh6_6common6schema11session_logNtB5_15SessionLogEntry3newpEB9_
FN:44,_RNCINvMs_NtNtCs4dhADRbsRh6_6common6schema11session_logNtB7_15SessionLogEntry3newpE0Bb_
FN:72,_RNCNvMs0_NtNtCs4dhADRbsRh6_6common6schema11session_logNtB7_10SessionLog15entries_by_type0Bb_
FN:67,_RNvMs0_NtNtCs4dhADRbsRh6_6common6schema11session_logNtB5_10SessionLog10last_entry
FN:71,_RNvMs0_NtNtCs4dhADRbsRh6_6common6schema11session_logNtB5_10SessionLog15entries_by_type
FN:59,_RNvMs0_NtNtCs4dhADRbsRh6_6common6schema11session_logNtB5_10SessionLog3new
FN:16,_RNvXNtNtCs4dhADRbsRh6_6common6schema11session_logNtB2_19SessionLogEventTypeNtNtCsfOyy81DYK0U_4core3fmt7Display3fmt
FNDA:0,_RINvMs0_NtNtCs4dhADRbsRh6_6common6schema11session_logNtB6_10SessionLog9add_entrypEBa_
FNDA:0,_RINvMs_NtNtCs4dhADRbsRh6_6common6schema11session_logNtB5_15SessionLogEntry3newpEB9_
FNDA:0,_RNCINvMs_NtNtCs4dhADRbsRh6_6common6schema11session_logNtB7_15SessionLogEntry3newpE0Bb_
FNDA:0,_RNCNvMs0_NtNtCs4dhADRbsRh6_6common6schema11session_logNtB7_10SessionLog15entries_by_type0Bb_
FNDA:0,_RNvMs0_NtNtCs4dhADRbsRh6_6common6schema11session_logNtB5_10SessionLog10last_entry
FNDA:0,_RNvMs0_NtNtCs4dhADRbsRh6_6common6schema11session_logNtB5_10SessionLog15entries_by_type
FNDA:0,_RNvMs0_NtNtCs4dhADRbsRh6_6common6schema11session_logNtB5_10SessionLog3new
FNDA:0,_RNvXNtNtCs4dhADRbsRh6_6common6schema11session_logNtB2_19SessionLogEventTypeNtNtCsfOyy81DYK0U_4core3fmt7Display3fmt
FNF:8
FNH:0
DA:16,0
DA:17,0
DA:18,0
DA:19,0
DA:20,0
DA:21,0
DA:22,0
DA:23,0
DA:24,0
DA:25,0
DA:26,0
DA:28,0
DA:40,0
DA:42,0
DA:43,0
DA:44,0
DA:45,0
DA:46,0
DA:47,0
DA:48,0
DA:50,0
DA:59,0
DA:60,0
DA:61,0
DA:63,0
DA:64,0
DA:65,0
DA:67,0
DA:68,0
DA:69,0
DA:71,0
DA:72,0
DA:73,0
BRF:0
BRH:0
LF:35
LH:0
end_of_record
SF:/Users/samcolak/Source Code/rust/distdb/distdb/common/src/schema/tls_mode.rs
FN:19,_RNvMNtNtCs4dhADRbsRh6_6common6schema8tls_modeNtB2_7TlsMode5parse
FN:11,_RNvMNtNtCs4dhADRbsRh6_6common6schema8tls_modeNtB2_7TlsMode6as_str
FNDA:0,_RNvMNtNtCs4dhADRbsRh6_6common6schema8tls_modeNtB2_7TlsMode5parse
FNDA:0,_RNvMNtNtCs4dhADRbsRh6_6common6schema8tls_modeNtB2_7TlsMode6as_str
FNF:2
FNH:0
DA:11,0
DA:12,0
DA:13,0
DA:14,0
DA:15,0
DA:17,0
DA:19,0
DA:20,0
DA:21,0
DA:22,0
DA:23,0
DA:24,0
DA:26,0
BRF:0
BRH:0
LF:13
LH:0
end_of_record
SF:/Users/samcolak/Source Code/rust/distdb/distdb/common/src/schema/validation.rs
FN:40,_RNvNtNtCs4dhADRbsRh6_6common6schema10validation19validate_field_kind
FN:32,_RNvNtNtCs4dhADRbsRh6_6common6schema10validation20normalize_field_name
FN:91,_RNvNtNtNtCs4dhADRbsRh6_6common6schema10validation5testss_34normalize_field_name_rejects_empty
FN:85,_RNvNtNtNtCs4dhADRbsRh6_6common6schema10validation5testss_38validate_field_kind_rejects_empty_enum
FN:79,_RNvNtNtNtCs4dhADRbsRh6_6common6schema10validation5testss_45validate_field_kind_rejects_invalid_bit_width
FN:58,_RNCNvNtNtCs4dhADRbsRh6_6common6schema10validation19validate_field_kind0B7_
FN:13,_RNvXNtNtCs4dhADRbsRh6_6common6schema10validationNtB2_21SchemaValidationErrorNtNtCsfOyy81DYK0U_4core3fmt7Display3fmt
FNDA:2,_RNvNtNtCs4dhADRbsRh6_6common6schema10validation19validate_field_kind
FNDA:1,_RNvNtNtCs4dhADRbsRh6_6common6schema10validation20normalize_field_name
FNDA:1,_RNvNtNtNtCs4dhADRbsRh6_6common6schema10validation5testss_34normalize_field_name_rejects_empty
FNDA:1,_RNvNtNtNtCs4dhADRbsRh6_6common6schema10validation5testss_38validate_field_kind_rejects_empty_enum
FNDA:1,_RNvNtNtNtCs4dhADRbsRh6_6common6schema10validation5testss_45validate_field_kind_rejects_invalid_bit_width
FNDA:0,_RNCNvNtNtCs4dhADRbsRh6_6common6schema10validation19validate_field_kind0B7_
FNDA:0,_RNvXNtNtCs4dhADRbsRh6_6common6schema10validationNtB2_21SchemaValidationErrorNtNtCsfOyy81DYK0U_4core3fmt7Display3fmt
FNF:7
FNH:5
DA:13,0
DA:14,0
DA:15,0
DA:17,0
DA:20,0
DA:22,0
DA:24,0
DA:27,0
DA:32,1
DA:33,1
DA:34,1
DA:35,1
DA:36,0
DA:37,0
DA:38,1
DA:40,2
DA:41,2
DA:42,1
DA:43,1
DA:44,1
DA:45,0
DA:48,0
DA:49,0
DA:50,0
DA:51,0
DA:54,1
DA:55,1
DA:56,1
DA:57,0
DA:58,0
DA:59,0
DA:60,0
DA:68,0
DA:71,0
DA:72,2
DA:79,1
DA:80,1
DA:81,1
DA:82,1
DA:85,1
DA:86,1
DA:87,1
DA:88,1
DA:91,1
DA:92,1
DA:93,1
DA:94,1
BRF:0
BRH:0
LF:48
LH:26
end_of_record