SF:/Users/samcolak/Source Code/rust/distdb/distdb/connector/src/core/client.rs
FN:115,_RNvNtNtNtCs3BJmCuGNA9W_9connector4core6client5testss_30execute_returns_rejected_error
FN:92,_RNvNtNtNtCs3BJmCuGNA9W_9connector4core6client5testss_32execute_returns_applied_response
FN:185,_RNvNtNtNtCs3BJmCuGNA9W_9connector4core6client5testss_34execute_propagates_transport_error
FN:202,_RNvNtNtNtCs3BJmCuGNA9W_9connector4core6client5testss_40connector_error_display_formats_messages
FN:134,_RNvNtNtNtCs3BJmCuGNA9W_9connector4core6client5testss_55execute_returns_invalid_response_on_request_id_mismatch
FN:159,_RNvNtNtNtCs3BJmCuGNA9W_9connector4core6client5testss_67execute_returns_invalid_response_when_rejected_payload_is_not_error
FN:75,_RNvXNtNtNtCs3BJmCuGNA9W_9connector4core6client5testsNtB2_13StubTransportNtB4_18ConnectorTransport7request
FN:86,_RNvXs_NtNtNtCs3BJmCuGNA9W_9connector4core6client5testsNtB4_14ErrorTransportNtB6_18ConnectorTransport7request
FN:12,_RNvXNtNtCs3BJmCuGNA9W_9connector4core6clientNtB2_14ConnectorErrorNtNtCsfOyy81DYK0U_4core3fmt7Display3fmt
FN:34,_RNvMs0_NtNtCs3BJmCuGNA9W_9connector4core6clientINtB5_15ConnectorClientNtNtB5_5tests13StubTransportE3newB9_
FN:38,_RNvMs0_NtNtCs3BJmCuGNA9W_9connector4core6clientINtB5_15ConnectorClientNtNtB5_5tests13StubTransportE7executeB9_
FN:34,_RNvMs0_NtNtCs3BJmCuGNA9W_9connector4core6clientINtB5_15ConnectorClientNtNtB5_5tests14ErrorTransportE3newB9_
FN:38,_RNvMs0_NtNtCs3BJmCuGNA9W_9connector4core6clientINtB5_15ConnectorClientNtNtB5_5tests14ErrorTransportE7executeB9_
FNDA:1,_RNvNtNtNtCs3BJmCuGNA9W_9connector4core6client5testss_30execute_returns_rejected_error
FNDA:1,_RNvNtNtNtCs3BJmCuGNA9W_9connector4core6client5testss_32execute_returns_applied_response
FNDA:1,_RNvNtNtNtCs3BJmCuGNA9W_9connector4core6client5testss_34execute_propagates_transport_error
FNDA:1,_RNvNtNtNtCs3BJmCuGNA9W_9connector4core6client5testss_40connector_error_display_formats_messages
FNDA:1,_RNvNtNtNtCs3BJmCuGNA9W_9connector4core6client5testss_55execute_returns_invalid_response_on_request_id_mismatch
FNDA:1,_RNvNtNtNtCs3BJmCuGNA9W_9connector4core6client5testss_67execute_returns_invalid_response_when_rejected_payload_is_not_error
FNDA:4,_RNvXNtNtNtCs3BJmCuGNA9W_9connector4core6client5testsNtB2_13StubTransportNtB4_18ConnectorTransport7request
FNDA:1,_RNvXs_NtNtNtCs3BJmCuGNA9W_9connector4core6client5testsNtB4_14ErrorTransportNtB6_18ConnectorTransport7request
FNDA:3,_RNvXNtNtCs3BJmCuGNA9W_9connector4core6clientNtB2_14ConnectorErrorNtNtCsfOyy81DYK0U_4core3fmt7Display3fmt
FNDA:4,_RNvMs0_NtNtCs3BJmCuGNA9W_9connector4core6clientINtB5_15ConnectorClientNtNtB5_5tests13StubTransportE3newB9_
FNDA:4,_RNvMs0_NtNtCs3BJmCuGNA9W_9connector4core6clientINtB5_15ConnectorClientNtNtB5_5tests13StubTransportE7executeB9_
FNDA:1,_RNvMs0_NtNtCs3BJmCuGNA9W_9connector4core6clientINtB5_15ConnectorClientNtNtB5_5tests14ErrorTransportE3newB9_
FNDA:1,_RNvMs0_NtNtCs3BJmCuGNA9W_9connector4core6clientINtB5_15ConnectorClientNtNtB5_5tests14ErrorTransportE7executeB9_
FNF:11
FNH:11
DA:12,3
DA:13,3
DA:14,1
DA:15,1
DA:16,1
DA:18,3
DA:34,5
DA:35,5
DA:36,5
DA:38,5
DA:40,5
DA:42,4
DA:43,1
DA:44,1
DA:45,1
DA:46,3
DA:48,3
DA:49,2
DA:50,1
DA:51,1
DA:52,1
DA:53,1
DA:54,1
DA:55,1
DA:57,1
DA:59,5
DA:75,4
DA:76,4
DA:77,4
DA:86,1
DA:87,1
DA:88,1
DA:92,1
DA:93,1
DA:95,1
DA:96,1
DA:97,1
DA:100,1
DA:101,1
DA:102,1
DA:103,1
DA:104,1
DA:105,1
DA:107,1
DA:108,1
DA:110,1
DA:111,1
DA:112,1
DA:115,1
DA:116,1
DA:118,1
DA:119,1
DA:120,1
DA:123,1
DA:124,1
DA:125,1
DA:127,1
DA:128,1
DA:130,1
DA:131,1
DA:134,1
DA:135,1
DA:137,1
DA:138,1
DA:139,1
DA:142,1
DA:143,1
DA:144,1
DA:145,1
DA:146,1
DA:147,1
DA:149,1
DA:150,1
DA:152,1
DA:154,1
DA:156,1
DA:159,1
DA:160,1
DA:162,1
DA:163,1
DA:164,1
DA:167,1
DA:168,1
DA:169,1
DA:170,1
DA:171,1
DA:172,1
DA:173,1
DA:175,1
DA:176,1
DA:178,1
DA:180,1
DA:182,1
DA:185,1
DA:186,1
DA:188,1
DA:189,1
DA:190,1
DA:193,1
DA:194,1
DA:195,1
DA:197,1
DA:198,1
DA:199,1
DA:202,1
DA:203,1
DA:204,1
DA:205,1
DA:207,1
DA:208,1
DA:209,1
DA:210,1
BRF:0
BRH:0
LF:112
LH:112
end_of_record
SF:/Users/samcolak/Source Code/rust/distdb/distdb/connector/src/core/command.rs
FN:71,_RINvMNtNtCs3BJmCuGNA9W_9connector4core7commandNtB3_16ConnectorRequest3newReEB7_
FN:85,_RNvNtNtNtCs3BJmCuGNA9W_9connector4core7command5testss_28request_serializes_roundtrip
FNDA:6,_RINvMNtNtCs3BJmCuGNA9W_9connector4core7commandNtB3_16ConnectorRequest3newReEB7_
FNDA:1,_RNvNtNtNtCs3BJmCuGNA9W_9connector4core7command5testss_28request_serializes_roundtrip
FNF:2
FNH:2
DA:71,6
DA:72,6
DA:73,6
DA:74,6
DA:75,6
DA:76,6
DA:85,1
DA:86,1
DA:88,1
DA:89,1
DA:90,1
DA:93,1
DA:94,1
DA:95,1
DA:97,1
DA:98,1
BRF:0
BRH:0
LF:16
LH:16
end_of_record
SF:/Users/samcolak/Source Code/rust/distdb/distdb/connector/src/core/result.rs
FN:177,_RNvNtNtNtCs3BJmCuGNA9W_9connector4core6result5testss_40query_cache_variants_serialize_roundtrip
FN:145,_RNvNtNtNtCs3BJmCuGNA9W_9connector4core6result5testss_54query_result_and_cache_observation_serialize_roundtrip
FN:133,_RNvNtNtNtCs3BJmCuGNA9W_9connector4core6result5testss_57connector_response_rejected_constructor_sets_error_result
FN:118,_RNvNtNtNtCs3BJmCuGNA9W_9connector4core6result5testss_58connector_response_applied_constructor_sets_applied_status
FN:95,_RINvMNtNtCs3BJmCuGNA9W_9connector4core6resultNtB3_17ConnectorResponse7appliedReEB7_
FN:103,_RINvMNtNtCs3BJmCuGNA9W_9connector4core6resultNtB3_17ConnectorResponse8rejectedReB1e_EB7_
FNDA:1,_RNvNtNtNtCs3BJmCuGNA9W_9connector4core6result5testss_40query_cache_variants_serialize_roundtrip
FNDA:1,_RNvNtNtNtCs3BJmCuGNA9W_9connector4core6result5testss_54query_result_and_cache_observation_serialize_roundtrip
FNDA:1,_RNvNtNtNtCs3BJmCuGNA9W_9connector4core6result5testss_57connector_response_rejected_constructor_sets_error_result
FNDA:1,_RNvNtNtNtCs3BJmCuGNA9W_9connector4core6result5testss_58connector_response_applied_constructor_sets_applied_status
FNDA:3,_RINvMNtNtCs3BJmCuGNA9W_9connector4core6resultNtB3_17ConnectorResponse7appliedReEB7_
FNDA:2,_RINvMNtNtCs3BJmCuGNA9W_9connector4core6resultNtB3_17ConnectorResponse8rejectedReB1e_EB7_
FNF:6
FNH:6
DA:95,3
DA:96,3
DA:97,3
DA:98,3
DA:99,3
DA:100,3
DA:101,3
DA:103,2
DA:104,2
DA:105,2
DA:106,2
DA:107,2
DA:108,2
DA:109,2
DA:118,1
DA:119,1
DA:121,1
DA:124,1
DA:125,1
DA:126,1
DA:127,1
DA:130,1
DA:133,1
DA:134,1
DA:136,1
DA:137,1
DA:138,1
DA:140,1
DA:142,1
DA:145,1
DA:146,1
DA:147,1
DA:148,1
DA:149,1
DA:150,1
DA:151,1
DA:152,1
DA:153,1
DA:154,1
DA:155,1
DA:156,1
DA:157,1
DA:158,1
DA:159,1
DA:160,1
DA:161,1
DA:162,1
DA:163,1
DA:164,1
DA:165,1
DA:166,1
DA:167,1
DA:168,1
DA:170,1
DA:171,1
DA:173,1
DA:174,1
DA:177,1
DA:178,1
DA:179,1
DA:180,1
DA:181,1
DA:182,1
DA:183,1
DA:184,1
DA:186,1
DA:187,1
DA:188,1
DA:189,1
DA:191,1
DA:192,1
DA:193,1
DA:194,1
DA:195,1
BRF:0
BRH:0
LF:74
LH:74
end_of_record
SF:/Users/samcolak/Source Code/rust/distdb/distdb/connector/src/schema.rs
FN:25,_RINvMNtCs3BJmCuGNA9W_9connector6schemaNtB3_9FieldSpec3newReEB5_
FN:81,_RINvMs_NtCs3BJmCuGNA9W_9connector6schemaNtB5_19SchemaChangeRequest12remove_fieldReEB7_
FN:67,_RINvMs_NtCs3BJmCuGNA9W_9connector6schemaNtB5_19SchemaChangeRequest3newReEB7_
FN:105,_RNvNtNtCs3BJmCuGNA9W_9connector6schema5testss_29field_spec_builder_sets_flags
FN:112,_RNvNtNtCs3BJmCuGNA9W_9connector6schema5testss_35field_spec_builder_sets_primary_key
FN:118,_RNvNtNtCs3BJmCuGNA9W_9connector6schema5testss_49schema_change_request_builder_collects_operations
FN:97,_RNvNtNtCs3BJmCuGNA9W_9connector6schema5testss_55field_spec_builder_defaults_to_non_nullable_non_indexed
FN:46,_RNvMNtCs3BJmCuGNA9W_9connector6schemaNtB2_9FieldSpec11primary_key
FN:41,_RNvMNtCs3BJmCuGNA9W_9connector6schemaNtB2_9FieldSpec7indexed
FN:36,_RNvMNtCs3BJmCuGNA9W_9connector6schemaNtB2_9FieldSpec8nullable
FN:86,_RNvMs_NtCs3BJmCuGNA9W_9connector6schemaNtB4_19SchemaChangeRequest12update_field
FN:76,_RNvMs_NtCs3BJmCuGNA9W_9connector6schemaNtB4_19SchemaChangeRequest9add_field
FNDA:5,_RINvMNtCs3BJmCuGNA9W_9connector6schemaNtB3_9FieldSpec3newReEB5_
FNDA:1,_RINvMs_NtCs3BJmCuGNA9W_9connector6schemaNtB5_19SchemaChangeRequest12remove_fieldReEB7_
FNDA:1,_RINvMs_NtCs3BJmCuGNA9W_9connector6schemaNtB5_19SchemaChangeRequest3newReEB7_
FNDA:1,_RNvNtNtCs3BJmCuGNA9W_9connector6schema5testss_29field_spec_builder_sets_flags
FNDA:1,_RNvNtNtCs3BJmCuGNA9W_9connector6schema5testss_35field_spec_builder_sets_primary_key
FNDA:1,_RNvNtNtCs3BJmCuGNA9W_9connector6schema5testss_49schema_change_request_builder_collects_operations
FNDA:1,_RNvNtNtCs3BJmCuGNA9W_9connector6schema5testss_55field_spec_builder_defaults_to_non_nullable_non_indexed
FNDA:1,_RNvMNtCs3BJmCuGNA9W_9connector6schemaNtB2_9FieldSpec11primary_key
FNDA:2,_RNvMNtCs3BJmCuGNA9W_9connector6schemaNtB2_9FieldSpec7indexed
FNDA:2,_RNvMNtCs3BJmCuGNA9W_9connector6schemaNtB2_9FieldSpec8nullable
FNDA:1,_RNvMs_NtCs3BJmCuGNA9W_9connector6schemaNtB4_19SchemaChangeRequest12update_field
FNDA:1,_RNvMs_NtCs3BJmCuGNA9W_9connector6schemaNtB4_19SchemaChangeRequest9add_field
FNF:12
FNH:12
DA:25,5
DA:26,5
DA:27,5
DA:28,5
DA:29,5
DA:30,5
DA:31,5
DA:32,5
DA:33,5
DA:34,5
DA:36,2
DA:37,2
DA:38,2
DA:39,2
DA:41,2
DA:42,2
DA:43,2
DA:44,2
DA:46,1
DA:47,1
DA:48,1
DA:49,1
DA:67,1
DA:68,1
DA:69,1
DA:70,1
DA:71,1
DA:72,1
DA:73,1
DA:74,1
DA:76,1
DA:77,1
DA:78,1
DA:79,1
DA:81,1
DA:82,1
DA:83,1
DA:84,1
DA:86,1
DA:87,1
DA:88,1
DA:89,1
DA:97,1
DA:98,1
DA:99,1
DA:100,1
DA:101,1
DA:102,1
DA:105,1
DA:106,1
DA:107,1
DA:108,1
DA:109,1
DA:112,1
DA:113,1
DA:114,1
DA:115,1
DA:118,1
DA:119,1
DA:120,1
DA:121,1
DA:122,1
DA:124,1
DA:125,1
DA:126,1
DA:127,1
DA:128,1
BRF:0
BRH:0
LF:67
LH:67
end_of_record