SF:/Users/samcolak/Source Code/rust/distdb/distdb/peerlib/src/connector/runtime.rs
FN:226,_RNvNtNtNtCs4VbbzCHT5av_7peerlib9connector7runtime5testss_33runtime_can_run_from_swarm_source
FN:251,_RNvNtNtNtCs4VbbzCHT5av_7peerlib9connector7runtime5testss_37runtime_returns_error_for_error_event
FN:179,_RNvNtNtNtCs4VbbzCHT5av_7peerlib9connector7runtime5testss_42runtime_processes_peer_and_response_events
FN:169,_RNvXNtNtNtCs4VbbzCHT5av_7peerlib9connector7runtime5testsNtB2_15StubSwarmSourceNtB4_25ConnectorSwarmEventSource10next_event
FN:86,_RINvMNtNtCs4VbbzCHT5av_7peerlib9connector7runtimeNtB3_19ConnectorP2pRuntime14run_swarm_loopNtNtB3_5tests15StubSwarmSourceEB7_
FN:134,_RNCNvMNtNtCs4VbbzCHT5av_7peerlib9connector7runtimeNtB4_19ConnectorP2pRuntime12handle_event0B8_
FN:104,_RNvMNtNtCs4VbbzCHT5av_7peerlib9connector7runtimeNtB2_19ConnectorP2pRuntime12handle_event
FN:38,_RNvMNtNtCs4VbbzCHT5av_7peerlib9connector7runtimeNtB2_19ConnectorP2pRuntime3new
FN:67,_RNvMNtNtCs4VbbzCHT5av_7peerlib9connector7runtimeNtB2_19ConnectorP2pRuntime8run_loop
FN:55,_RNvMNtNtCs4VbbzCHT5av_7peerlib9connector7runtimeNtB2_19ConnectorP2pRuntime9transport
FN:51,_RNvMNtNtCs4VbbzCHT5av_7peerlib9connector7runtimeNtB2_19ConnectorP2pRuntime10is_running
FN:59,_RNvMNtNtCs4VbbzCHT5av_7peerlib9connector7runtimeNtB2_19ConnectorP2pRuntime13transport_mut
FN:63,_RNvMNtNtCs4VbbzCHT5av_7peerlib9connector7runtimeNtB2_19ConnectorP2pRuntime14into_transport
FN:46,_RNvMNtNtCs4VbbzCHT5av_7peerlib9connector7runtimeNtB2_19ConnectorP2pRuntime14with_idle_wait
FNDA:1,_RNvNtNtNtCs4VbbzCHT5av_7peerlib9connector7runtime5testss_33runtime_can_run_from_swarm_source
FNDA:1,_RNvNtNtNtCs4VbbzCHT5av_7peerlib9connector7runtime5testss_37runtime_returns_error_for_error_event
FNDA:1,_RNvNtNtNtCs4VbbzCHT5av_7peerlib9connector7runtime5testss_42runtime_processes_peer_and_response_events
FNDA:2,_RNvXNtNtNtCs4VbbzCHT5av_7peerlib9connector7runtime5testsNtB2_15StubSwarmSourceNtB4_25ConnectorSwarmEventSource10next_event
FNDA:1,_RINvMNtNtCs4VbbzCHT5av_7peerlib9connector7runtimeNtB3_19ConnectorP2pRuntime14run_swarm_loopNtNtB3_5tests15StubSwarmSourceEB7_
FNDA:1,_RNCNvMNtNtCs4VbbzCHT5av_7peerlib9connector7runtimeNtB4_19ConnectorP2pRuntime12handle_event0B8_
FNDA:6,_RNvMNtNtCs4VbbzCHT5av_7peerlib9connector7runtimeNtB2_19ConnectorP2pRuntime12handle_event
FNDA:3,_RNvMNtNtCs4VbbzCHT5av_7peerlib9connector7runtimeNtB2_19ConnectorP2pRuntime3new
FNDA:1,_RNvMNtNtCs4VbbzCHT5av_7peerlib9connector7runtimeNtB2_19ConnectorP2pRuntime8run_loop
FNDA:3,_RNvMNtNtCs4VbbzCHT5av_7peerlib9connector7runtimeNtB2_19ConnectorP2pRuntime9transport
FNDA:0,_RNvMNtNtCs4VbbzCHT5av_7peerlib9connector7runtimeNtB2_19ConnectorP2pRuntime10is_running
FNDA:0,_RNvMNtNtCs4VbbzCHT5av_7peerlib9connector7runtimeNtB2_19ConnectorP2pRuntime13transport_mut
FNDA:0,_RNvMNtNtCs4VbbzCHT5av_7peerlib9connector7runtimeNtB2_19ConnectorP2pRuntime14into_transport
FNDA:0,_RNvMNtNtCs4VbbzCHT5av_7peerlib9connector7runtimeNtB2_19ConnectorP2pRuntime14with_idle_wait
FNF:14
FNH:10
DA:38,3
DA:39,3
DA:40,3
DA:41,3
DA:42,3
DA:43,3
DA:44,3
DA:46,0
DA:47,0
DA:48,0
DA:49,0
DA:51,0
DA:52,0
DA:53,0
DA:55,3
DA:56,3
DA:57,3
DA:59,0
DA:60,0
DA:61,0
DA:63,0
DA:64,0
DA:65,0
DA:67,1
DA:69,1
DA:71,4
DA:72,3
DA:73,3
DA:74,3
DA:76,0
DA:77,0
DA:81,1
DA:82,1
DA:84,1
DA:86,1
DA:88,1
DA:90,3
DA:91,2
DA:92,2
DA:93,2
DA:95,0
DA:99,1
DA:100,1
DA:102,1
DA:104,6
DA:106,6
DA:108,2
DA:109,2
DA:110,2
DA:113,0
DA:115,2
DA:116,2
DA:119,1
DA:120,1
DA:125,1
DA:126,1
DA:130,1
DA:131,1
DA:133,1
DA:134,1
DA:135,1
DA:136,1
DA:137,1
DA:141,2
DA:142,2
DA:143,2
DA:148,6
DA:169,2
DA:170,2
DA:171,0
DA:173,2
DA:175,2
DA:179,1
DA:181,1
DA:182,1
DA:183,1
DA:186,1
DA:188,1
DA:190,1
DA:191,1
DA:192,1
DA:193,1
DA:194,1
DA:195,1
DA:197,1
DA:198,1
DA:199,1
DA:200,1
DA:201,1
DA:202,1
DA:204,1
DA:205,1
DA:207,1
DA:209,1
DA:211,1
DA:212,1
DA:213,1
DA:216,1
DA:217,1
DA:218,1
DA:219,1
DA:221,1
DA:222,1
DA:223,1
DA:226,1
DA:227,1
DA:228,1
DA:229,1
DA:231,1
DA:233,1
DA:234,1
DA:235,1
DA:236,1
DA:237,1
DA:238,1
DA:239,1
DA:240,1
DA:241,1
DA:242,1
DA:244,1
DA:245,1
DA:246,1
DA:247,1
DA:248,1
DA:251,1
DA:252,1
DA:253,1
DA:254,1
DA:256,1
DA:258,1
DA:259,1
DA:260,1
DA:261,1
DA:263,1
DA:264,1
BRF:0
BRH:0
LF:136
LH:118
end_of_record
SF:/Users/samcolak/Source Code/rust/distdb/distdb/peerlib/src/connector/transport.rs
FN:1103,_RNCNvNtNtNtCs4VbbzCHT5av_7peerlib9connector9transport5tests11write_frame0B9_
FN:1386,_RNCNvNtNtNtCs4VbbzCHT5av_7peerlib9connector9transport5testss_48connect_active_peer_surfaces_bootstrap_rejection0B9_
FN:1328,_RNCNvNtNtNtCs4VbbzCHT5av_7peerlib9connector9transport5testss_56connect_active_peer_and_request_roundtrip_over_plain_tcp0B9_
FN:66,_RINvMNtNtCs4VbbzCHT5av_7peerlib9connector9transportNtB3_18ConnectorP2pConfig3newReEB7_
FN:289,_RINvMs3_NtNtCs4VbbzCHT5av_7peerlib9connector9transportNtB6_21ConnectorP2pTransport11select_peerReEBa_
FN:755,_RINvNtNtCs4VbbzCHT5av_7peerlib9connector9transport31load_tls_root_store_from_readerINtNtNtCsgL88BVMLsDE_3std2io6cursor6CursorRShEEB6_
FN:755,_RINvNtNtCs4VbbzCHT5av_7peerlib9connector9transport31load_tls_root_store_from_readerNtNtCsgL88BVMLsDE_3std2fs4FileEB6_
FN:762,_RNCINvNtNtCs4VbbzCHT5av_7peerlib9connector9transport31load_tls_root_store_from_readerINtNtNtCsgL88BVMLsDE_3std2io6cursor6CursorRShEE0B8_
FN:778,_RNCINvNtNtCs4VbbzCHT5av_7peerlib9connector9transport31load_tls_root_store_from_readerINtNtNtCsgL88BVMLsDE_3std2io6cursor6CursorRShEEs_0B8_
FN:762,_RNCINvNtNtCs4VbbzCHT5av_7peerlib9connector9transport31load_tls_root_store_from_readerNtNtCsgL88BVMLsDE_3std2fs4FileE0B8_
FN:778,_RNCINvNtNtCs4VbbzCHT5av_7peerlib9connector9transport31load_tls_root_store_from_readerNtNtCsgL88BVMLsDE_3std2fs4FileEs_0B8_
FN:240,_RNCNCNCNvMs3_NtNtCs4VbbzCHT5av_7peerlib9connector9transportNtBb_21ConnectorP2pTransport11upsert_peer000Bf_
FN:240,_RNCNCNvMs3_NtNtCs4VbbzCHT5av_7peerlib9connector9transportNtB9_21ConnectorP2pTransport11upsert_peer00Bd_
FN:627,_RNCNCNvNtNtCs4VbbzCHT5av_7peerlib9connector9transport22ensure_live_connections0_00B9_
FN:164,_RNCNvMs2_NtNtCs4VbbzCHT5av_7peerlib9connector9transportNtB7_19ConnectorWireStream12set_timeouts0Bb_
FN:173,_RNCNvMs2_NtNtCs4VbbzCHT5av_7peerlib9connector9transportNtB7_19ConnectorWireStream12set_timeoutss0_0Bb_
FN:175,_RNCNvMs2_NtNtCs4VbbzCHT5av_7peerlib9connector9transportNtB7_19ConnectorWireStream12set_timeoutss1_0Bb_
FN:167,_RNCNvMs2_NtNtCs4VbbzCHT5av_7peerlib9connector9transportNtB7_19ConnectorWireStream12set_timeoutss_0Bb_
FN:419,_RNCNvMs3_NtNtCs4VbbzCHT5av_7peerlib9connector9transportNtB7_21ConnectorP2pTransport10session_id0Bb_
FN:308,_RNCNvMs3_NtNtCs4VbbzCHT5av_7peerlib9connector9transportNtB7_21ConnectorP2pTransport11active_peer0Bb_
FN:235,_RNCNvMs3_NtNtCs4VbbzCHT5av_7peerlib9connector9transportNtB7_21ConnectorP2pTransport11upsert_peer0Bb_
FN:247,_RNCNvMs3_NtNtCs4VbbzCHT5av_7peerlib9connector9transportNtB7_21ConnectorP2pTransport11upsert_peers0_0Bb_
FN:242,_RNCNvMs3_NtNtCs4VbbzCHT5av_7peerlib9connector9transportNtB7_21ConnectorP2pTransport11upsert_peers_0Bb_
FN:198,_RNCNvMs3_NtNtCs4VbbzCHT5av_7peerlib9connector9transportNtB7_21ConnectorP2pTransport13cached_ca_pem0Bb_
FN:330,_RNCNvMs3_NtNtCs4VbbzCHT5av_7peerlib9connector9transportNtB7_21ConnectorP2pTransport19has_live_connection0Bb_
FN:824,_RNCNvNtNtCs4VbbzCHT5av_7peerlib9connector9transport18connect_tls_stream0B7_
FN:843,_RNCNvNtNtCs4VbbzCHT5av_7peerlib9connector9transport18connect_tls_streams0_0B7_
FN:845,_RNCNvNtNtCs4VbbzCHT5av_7peerlib9connector9transport18connect_tls_streams1_0B7_
FN:848,_RNCNvNtNtCs4VbbzCHT5av_7peerlib9connector9transport18connect_tls_streams2_0B7_
FN:855,_RNCNvNtNtCs4VbbzCHT5av_7peerlib9connector9transport18connect_tls_streams3_0B7_
FN:841,_RNCNvNtNtCs4VbbzCHT5av_7peerlib9connector9transport18connect_tls_streams_0B7_
FN:703,_RNCNvNtNtCs4VbbzCHT5av_7peerlib9connector9transport18send_request_frame0B7_
FN:711,_RNCNvNtNtCs4VbbzCHT5av_7peerlib9connector9transport18send_request_frames0_0B7_
FN:715,_RNCNvNtNtCs4VbbzCHT5av_7peerlib9connector9transport18send_request_frames1_0B7_
FN:710,_RNCNvNtNtCs4VbbzCHT5av_7peerlib9connector9transport18send_request_frames_0B7_
FN:742,_RNCNvNtNtCs4VbbzCHT5av_7peerlib9connector9transport19load_tls_root_store0B7_
FN:726,_RNCNvNtNtCs4VbbzCHT5av_7peerlib9connector9transport19read_response_frame0B7_
FN:736,_RNCNvNtNtCs4VbbzCHT5av_7peerlib9connector9transport19read_response_frames0_0B7_
FN:733,_RNCNvNtNtCs4VbbzCHT5av_7peerlib9connector9transport19read_response_frames_0B7_
FN:866,_RNCNvNtNtCs4VbbzCHT5av_7peerlib9connector9transport20connect_plain_stream0B7_
FN:870,_RNCNvNtNtCs4VbbzCHT5av_7peerlib9connector9transport20connect_plain_streams0_0B7_
FN:868,_RNCNvNtNtCs4VbbzCHT5av_7peerlib9connector9transport20connect_plain_streams_0B7_
FN:541,_RNCNvNtNtCs4VbbzCHT5av_7peerlib9connector9transport21send_request_over_tcp0B7_
FN:568,_RNCNvNtNtCs4VbbzCHT5av_7peerlib9connector9transport22ensure_live_connection0B7_
FN:627,_RNCNvNtNtCs4VbbzCHT5av_7peerlib9connector9transport22ensure_live_connections0_0B7_
FN:628,_RNCNvNtNtCs4VbbzCHT5av_7peerlib9connector9transport22ensure_live_connections1_0B7_
FN:572,_RNCNvNtNtCs4VbbzCHT5av_7peerlib9connector9transport22ensure_live_connections_0B7_
FN:904,_RNCNvNtNtCs4VbbzCHT5av_7peerlib9connector9transport22fetch_ca_pem_from_peer0B7_
FN:912,_RNCNvNtNtCs4VbbzCHT5av_7peerlib9connector9transport22fetch_ca_pem_from_peers0_0B7_
FN:914,_RNCNvNtNtCs4VbbzCHT5av_7peerlib9connector9transport22fetch_ca_pem_from_peers1_0B7_
FN:928,_RNCNvNtNtCs4VbbzCHT5av_7peerlib9connector9transport22fetch_ca_pem_from_peers2_0B7_
FN:929,_RNCNvNtNtCs4VbbzCHT5av_7peerlib9connector9transport22fetch_ca_pem_from_peers3_0B7_
FN:932,_RNCNvNtNtCs4VbbzCHT5av_7peerlib9connector9transport22fetch_ca_pem_from_peers4_0B7_
FN:938,_RNCNvNtNtCs4VbbzCHT5av_7peerlib9connector9transport22fetch_ca_pem_from_peers5_0B7_
FN:943,_RNCNvNtNtCs4VbbzCHT5av_7peerlib9connector9transport22fetch_ca_pem_from_peers6_0B7_
FN:961,_RNCNvNtNtCs4VbbzCHT5av_7peerlib9connector9transport22fetch_ca_pem_from_peers7_0B7_
FN:966,_RNCNvNtNtCs4VbbzCHT5av_7peerlib9connector9transport22fetch_ca_pem_from_peers8_0B7_
FN:976,_RNCNvNtNtCs4VbbzCHT5av_7peerlib9connector9transport22fetch_ca_pem_from_peers9_0B7_
FN:910,_RNCNvNtNtCs4VbbzCHT5av_7peerlib9connector9transport22fetch_ca_pem_from_peers_0B7_
FN:1017,_RNCNvNtNtCs4VbbzCHT5av_7peerlib9connector9transport24connect_tcp_with_timeout0B7_
FN:1041,_RNCNvNtNtCs4VbbzCHT5av_7peerlib9connector9transport24connect_tcp_with_timeouts0_0B7_
FN:1040,_RNCNvNtNtCs4VbbzCHT5av_7peerlib9connector9transport24connect_tcp_with_timeouts_0B7_
FN:809,_RNCNvNtNtCs4VbbzCHT5av_7peerlib9connector9transport28server_name_from_socket_addrs_0B7_
FN:34,_RNCNvNtNtCs4VbbzCHT5av_7peerlib9connector9transport30connector_connect_timeout_secs0B7_
FN:35,_RNCNvNtNtCs4VbbzCHT5av_7peerlib9connector9transport30connector_connect_timeout_secss_0B7_
FN:42,_RNCNvNtNtCs4VbbzCHT5av_7peerlib9connector9transport32connector_handshake_timeout_secs0B7_
FN:43,_RNCNvNtNtCs4VbbzCHT5av_7peerlib9connector9transport32connector_handshake_timeout_secss_0B7_
FN:508,_RNCNvXs4_NtNtCs4VbbzCHT5av_7peerlib9connector9transportNtB7_21ConnectorP2pTransportNtNtNtCsar84mGPjAv6_9connector4core6client18ConnectorTransport7request0Bb_
FN:1098,_RNvNtNtNtCs4VbbzCHT5av_7peerlib9connector9transport5tests11write_frame
FN:1108,_RNvNtNtNtCs4VbbzCHT5av_7peerlib9connector9transport5tests12read_request
FN:1122,_RNvNtNtNtCs4VbbzCHT5av_7peerlib9connector9transport5testss_28transport_uses_kademlia_mode
FN:1282,_RNvNtNtNtCs4VbbzCHT5av_7peerlib9connector9transport5testss_39extract_session_id_supports_both_labels
FN:1186,_RNvNtNtNtCs4VbbzCHT5av_7peerlib9connector9transport5testss_40select_peer_switches_active_session_peer
FN:1128,_RNvNtNtNtCs4VbbzCHT5av_7peerlib9connector9transport5testss_41request_fails_when_no_peers_are_available
FN:1295,_RNvNtNtNtCs4VbbzCHT5av_7peerlib9connector9transport5testss_46shared_session_token_changes_with_server_token
FN:1230,_RNvNtNtNtCs4VbbzCHT5av_7peerlib9connector9transport5testss_47normalize_peer_addr_parses_supported_multiaddrs
FN:1382,_RNvNtNtNtCs4VbbzCHT5av_7peerlib9connector9transport5testss_48connect_active_peer_surfaces_bootstrap_rejection
FN:1142,_RNvNtNtNtCs4VbbzCHT5av_7peerlib9connector9transport5testss_48queued_response_is_returned_for_matching_request
FN:1173,_RNvNtNtNtCs4VbbzCHT5av_7peerlib9connector9transport5testss_49first_discovered_peer_becomes_active_session_peer
FN:1242,_RNvNtNtNtCs4VbbzCHT5av_7peerlib9connector9transport5testss_53normalize_peer_addr_keeps_host_port_and_defaults_port
FN:1208,_RNvNtNtNtCs4VbbzCHT5av_7peerlib9connector9transport5testss_53upsert_peer_replaces_stale_identity_when_addr_matches
FN:1251,_RNvNtNtNtCs4VbbzCHT5av_7peerlib9connector9transport5testss_54connector_timeout_env_values_are_clamped_and_defaulted
FN:1303,_RNvNtNtNtCs4VbbzCHT5av_7peerlib9connector9transport5testss_55request_returns_selected_peer_error_when_no_active_peer
FN:1324,_RNvNtNtNtCs4VbbzCHT5av_7peerlib9connector9transport5testss_56connect_active_peer_and_request_roundtrip_over_plain_tcp
FN:1270,_RNvNtNtNtCs4VbbzCHT5av_7peerlib9connector9transport5testss_61server_name_parser_supports_ip_and_hostname_and_rejects_empty
FN:79,_RNvMNtNtCs4VbbzCHT5av_7peerlib9connector9transportNtB2_18ConnectorP2pConfig13with_tls_mode
FN:74,_RNvMNtNtCs4VbbzCHT5av_7peerlib9connector9transportNtB2_18ConnectorP2pConfig20with_bootstrap_peers
FN:155,_RNvMs2_NtNtCs4VbbzCHT5av_7peerlib9connector9transportNtB5_19ConnectorWireStream12set_timeouts
FN:414,_RNvMs3_NtNtCs4VbbzCHT5av_7peerlib9connector9transportNtB5_21ConnectorP2pTransport10session_id
FN:305,_RNvMs3_NtNtCs4VbbzCHT5av_7peerlib9connector9transportNtB5_21ConnectorP2pTransport11active_peer
FN:221,_RNvMs3_NtNtCs4VbbzCHT5av_7peerlib9connector9transportNtB5_21ConnectorP2pTransport11upsert_peer
FN:194,_RNvMs3_NtNtCs4VbbzCHT5av_7peerlib9connector9transportNtB5_21ConnectorP2pTransport13cached_ca_pem
FN:285,_RNvMs3_NtNtCs4VbbzCHT5av_7peerlib9connector9transportNtB5_21ConnectorP2pTransport14active_peer_id
FN:201,_RNvMs3_NtNtCs4VbbzCHT5av_7peerlib9connector9transportNtB5_21ConnectorP2pTransport14discovery_mode
FN:313,_RNvMs3_NtNtCs4VbbzCHT5av_7peerlib9connector9transportNtB5_21ConnectorP2pTransport14queue_response
FN:273,_RNvMs3_NtNtCs4VbbzCHT5av_7peerlib9connector9transportNtB5_21ConnectorP2pTransport16discovered_peers
FN:334,_RNvMs3_NtNtCs4VbbzCHT5av_7peerlib9connector9transportNtB5_21ConnectorP2pTransport19connect_active_peer
FN:327,_RNvMs3_NtNtCs4VbbzCHT5av_7peerlib9connector9transportNtB5_21ConnectorP2pTransport19has_live_connection
FN:430,_RNvMs3_NtNtCs4VbbzCHT5av_7peerlib9connector9transportNtB5_21ConnectorP2pTransport21clear_live_connection
FN:183,_RNvMs3_NtNtCs4VbbzCHT5av_7peerlib9connector9transportNtB5_21ConnectorP2pTransport3new
FN:815,_RNvNtNtCs4VbbzCHT5av_7peerlib9connector9transport18connect_tls_stream
FN:1048,_RNvNtNtCs4VbbzCHT5av_7peerlib9connector9transport18extract_session_id
FN:698,_RNvNtNtCs4VbbzCHT5av_7peerlib9connector9transport18send_request_frame
FN:740,_RNvNtNtCs4VbbzCHT5av_7peerlib9connector9transport19load_tls_root_store
FN:988,_RNvNtNtCs4VbbzCHT5av_7peerlib9connector9transport19normalize_peer_addr
FN:721,_RNvNtNtCs4VbbzCHT5av_7peerlib9connector9transport19read_response_frame
FN:862,_RNvNtNtCs4VbbzCHT5av_7peerlib9connector9transport20connect_plain_stream
FN:530,_RNvNtNtCs4VbbzCHT5av_7peerlib9connector9transport21send_request_over_tcp
FN:560,_RNvNtNtCs4VbbzCHT5av_7peerlib9connector9transport22ensure_live_connection
FN:899,_RNvNtNtCs4VbbzCHT5av_7peerlib9connector9transport22fetch_ca_pem_from_peer
FN:875,_RNvNtNtCs4VbbzCHT5av_7peerlib9connector9transport24connect_connector_stream
FN:1012,_RNvNtNtCs4VbbzCHT5av_7peerlib9connector9transport24connect_tcp_with_timeout
FN:750,_RNvNtNtCs4VbbzCHT5av_7peerlib9connector9transport28load_tls_root_store_from_pem
FN:790,_RNvNtNtCs4VbbzCHT5av_7peerlib9connector9transport28server_name_from_socket_addr
FN:1073,_RNvNtNtCs4VbbzCHT5av_7peerlib9connector9transport29generate_shared_session_token
FN:31,_RNvNtNtCs4VbbzCHT5av_7peerlib9connector9transport30connector_connect_timeout_secs
FN:39,_RNvNtNtCs4VbbzCHT5av_7peerlib9connector9transport32connector_handshake_timeout_secs
FN:130,_RNvXs0_NtNtCs4VbbzCHT5av_7peerlib9connector9transportNtB5_19ConnectorWireStreamNtNtCsgL88BVMLsDE_3std2io4Read4read
FN:146,_RNvXs1_NtNtCs4VbbzCHT5av_7peerlib9connector9transportNtB5_19ConnectorWireStreamNtNtCsgL88BVMLsDE_3std2io5Write5flush
FN:139,_RNvXs1_NtNtCs4VbbzCHT5av_7peerlib9connector9transportNtB5_19ConnectorWireStreamNtNtCsgL88BVMLsDE_3std2io5Write5write
FN:446,_RNvXs4_NtNtCs4VbbzCHT5av_7peerlib9connector9transportNtB5_21ConnectorP2pTransportNtNtNtCsar84mGPjAv6_9connector4core6client18ConnectorTransport7request
FN:84,_RINvMNtNtCs4VbbzCHT5av_7peerlib9connector9transportNtB3_18ConnectorP2pConfig16with_tls_ca_pathpEB7_
FN:403,_RNCNvMs3_NtNtCs4VbbzCHT5av_7peerlib9connector9transportNtB7_21ConnectorP2pTransport18session_auth_token0Bb_
FN:384,_RNCNvMs3_NtNtCs4VbbzCHT5av_7peerlib9connector9transportNtB7_21ConnectorP2pTransport22set_session_auth_token0Bb_
FN:368,_RNCNvMs3_NtNtCs4VbbzCHT5av_7peerlib9connector9transportNtB7_21ConnectorP2pTransport30set_active_connection_timeouts0Bb_
FN:281,_RNvMs3_NtNtCs4VbbzCHT5av_7peerlib9connector9transportNtB5_21ConnectorP2pTransport11known_peers
FN:217,_RNvMs3_NtNtCs4VbbzCHT5av_7peerlib9connector9transportNtB5_21ConnectorP2pTransport11tls_ca_path
FN:209,_RNvMs3_NtNtCs4VbbzCHT5av_7peerlib9connector9transportNtB5_21ConnectorP2pTransport15bootstrap_peers
FN:398,_RNvMs3_NtNtCs4VbbzCHT5av_7peerlib9connector9transportNtB5_21ConnectorP2pTransport18session_auth_token
FN:323,_RNvMs3_NtNtCs4VbbzCHT5av_7peerlib9connector9transportNtB5_21ConnectorP2pTransport21queued_response_count
FN:356,_RNvMs3_NtNtCs4VbbzCHT5av_7peerlib9connector9transportNtB5_21ConnectorP2pTransport22disconnect_active_peer
FN:379,_RNvMs3_NtNtCs4VbbzCHT5av_7peerlib9connector9transportNtB5_21ConnectorP2pTransport22set_session_auth_token
FN:360,_RNvMs3_NtNtCs4VbbzCHT5av_7peerlib9connector9transportNtB5_21ConnectorP2pTransport30set_active_connection_timeouts
FN:205,_RNvMs3_NtNtCs4VbbzCHT5av_7peerlib9connector9transportNtB5_21ConnectorP2pTransport8protocol
FN:213,_RNvMs3_NtNtCs4VbbzCHT5av_7peerlib9connector9transportNtB5_21ConnectorP2pTransport8tls_mode
FN:121,_RNvXs_NtNtCs4VbbzCHT5av_7peerlib9connector9transportNtB4_19ConnectorWireStreamNtNtCsfOyy81DYK0U_4core3fmt5Debug3fmt
FNDA:3,_RNCNvNtNtNtCs4VbbzCHT5av_7peerlib9connector9transport5tests11write_frame0B9_
FNDA:1,_RNCNvNtNtNtCs4VbbzCHT5av_7peerlib9connector9transport5testss_48connect_active_peer_surfaces_bootstrap_rejection0B9_
FNDA:1,_RNCNvNtNtNtCs4VbbzCHT5av_7peerlib9connector9transport5testss_56connect_active_peer_and_request_roundtrip_over_plain_tcp0B9_
FNDA:12,_RINvMNtNtCs4VbbzCHT5av_7peerlib9connector9transportNtB3_18ConnectorP2pConfig3newReEB7_
FNDA:1,_RINvMs3_NtNtCs4VbbzCHT5av_7peerlib9connector9transportNtB6_21ConnectorP2pTransport11select_peerReEBa_
FNDA:0,_RINvNtNtCs4VbbzCHT5av_7peerlib9connector9transport31load_tls_root_store_from_readerINtNtNtCsgL88BVMLsDE_3std2io6cursor6CursorRShEEB6_
FNDA:0,_RINvNtNtCs4VbbzCHT5av_7peerlib9connector9transport31load_tls_root_store_from_readerNtNtCsgL88BVMLsDE_3std2fs4FileEB6_
FNDA:0,_RNCINvNtNtCs4VbbzCHT5av_7peerlib9connector9transport31load_tls_root_store_from_readerINtNtNtCsgL88BVMLsDE_3std2io6cursor6CursorRShEE0B8_
FNDA:0,_RNCINvNtNtCs4VbbzCHT5av_7peerlib9connector9transport31load_tls_root_store_from_readerINtNtNtCsgL88BVMLsDE_3std2io6cursor6CursorRShEEs_0B8_
FNDA:0,_RNCINvNtNtCs4VbbzCHT5av_7peerlib9connector9transport31load_tls_root_store_from_readerNtNtCsgL88BVMLsDE_3std2fs4FileE0B8_
FNDA:0,_RNCINvNtNtCs4VbbzCHT5av_7peerlib9connector9transport31load_tls_root_store_from_readerNtNtCsgL88BVMLsDE_3std2fs4FileEs_0B8_
FNDA:2,_RNCNCNCNvMs3_NtNtCs4VbbzCHT5av_7peerlib9connector9transportNtBb_21ConnectorP2pTransport11upsert_peer000Bf_
FNDA:2,_RNCNCNvMs3_NtNtCs4VbbzCHT5av_7peerlib9connector9transportNtB9_21ConnectorP2pTransport11upsert_peer00Bd_
FNDA:0,_RNCNCNvNtNtCs4VbbzCHT5av_7peerlib9connector9transport22ensure_live_connections0_00B9_
FNDA:0,_RNCNvMs2_NtNtCs4VbbzCHT5av_7peerlib9connector9transportNtB7_19ConnectorWireStream12set_timeouts0Bb_
FNDA:0,_RNCNvMs2_NtNtCs4VbbzCHT5av_7peerlib9connector9transportNtB7_19ConnectorWireStream12set_timeoutss0_0Bb_
FNDA:0,_RNCNvMs2_NtNtCs4VbbzCHT5av_7peerlib9connector9transportNtB7_19ConnectorWireStream12set_timeoutss1_0Bb_
FNDA:0,_RNCNvMs2_NtNtCs4VbbzCHT5av_7peerlib9connector9transportNtB7_19ConnectorWireStream12set_timeoutss_0Bb_
FNDA:0,_RNCNvMs3_NtNtCs4VbbzCHT5av_7peerlib9connector9transportNtB7_21ConnectorP2pTransport10session_id0Bb_
FNDA:3,_RNCNvMs3_NtNtCs4VbbzCHT5av_7peerlib9connector9transportNtB7_21ConnectorP2pTransport11active_peer0Bb_
FNDA:2,_RNCNvMs3_NtNtCs4VbbzCHT5av_7peerlib9connector9transportNtB7_21ConnectorP2pTransport11upsert_peer0Bb_
FNDA:1,_RNCNvMs3_NtNtCs4VbbzCHT5av_7peerlib9connector9transportNtB7_21ConnectorP2pTransport11upsert_peers0_0Bb_
FNDA:1,_RNCNvMs3_NtNtCs4VbbzCHT5av_7peerlib9connector9transportNtB7_21ConnectorP2pTransport11upsert_peers_0Bb_
FNDA:2,_RNCNvMs3_NtNtCs4VbbzCHT5av_7peerlib9connector9transportNtB7_21ConnectorP2pTransport13cached_ca_pem0Bb_
FNDA:4,_RNCNvMs3_NtNtCs4VbbzCHT5av_7peerlib9connector9transportNtB7_21ConnectorP2pTransport19has_live_connection0Bb_
FNDA:0,_RNCNvNtNtCs4VbbzCHT5av_7peerlib9connector9transport18connect_tls_stream0B7_
FNDA:0,_RNCNvNtNtCs4VbbzCHT5av_7peerlib9connector9transport18connect_tls_streams0_0B7_
FNDA:0,_RNCNvNtNtCs4VbbzCHT5av_7peerlib9connector9transport18connect_tls_streams1_0B7_
FNDA:0,_RNCNvNtNtCs4VbbzCHT5av_7peerlib9connector9transport18connect_tls_streams2_0B7_
FNDA:0,_RNCNvNtNtCs4VbbzCHT5av_7peerlib9connector9transport18connect_tls_streams3_0B7_
FNDA:0,_RNCNvNtNtCs4VbbzCHT5av_7peerlib9connector9transport18connect_tls_streams_0B7_
FNDA:0,_RNCNvNtNtCs4VbbzCHT5av_7peerlib9connector9transport18send_request_frame0B7_
FNDA:0,_RNCNvNtNtCs4VbbzCHT5av_7peerlib9connector9transport18send_request_frames0_0B7_
FNDA:0,_RNCNvNtNtCs4VbbzCHT5av_7peerlib9connector9transport18send_request_frames1_0B7_
FNDA:1,_RNCNvNtNtCs4VbbzCHT5av_7peerlib9connector9transport18send_request_frames_0B7_
FNDA:0,_RNCNvNtNtCs4VbbzCHT5av_7peerlib9connector9transport19load_tls_root_store0B7_
FNDA:0,_RNCNvNtNtCs4VbbzCHT5av_7peerlib9connector9transport19read_response_frame0B7_
FNDA:0,_RNCNvNtNtCs4VbbzCHT5av_7peerlib9connector9transport19read_response_frames0_0B7_
FNDA:0,_RNCNvNtNtCs4VbbzCHT5av_7peerlib9connector9transport19read_response_frames_0B7_
FNDA:0,_RNCNvNtNtCs4VbbzCHT5av_7peerlib9connector9transport20connect_plain_stream0B7_
FNDA:0,_RNCNvNtNtCs4VbbzCHT5av_7peerlib9connector9transport20connect_plain_streams0_0B7_
FNDA:0,_RNCNvNtNtCs4VbbzCHT5av_7peerlib9connector9transport20connect_plain_streams_0B7_
FNDA:0,_RNCNvNtNtCs4VbbzCHT5av_7peerlib9connector9transport21send_request_over_tcp0B7_
FNDA:0,_RNCNvNtNtCs4VbbzCHT5av_7peerlib9connector9transport22ensure_live_connection0B7_
FNDA:2,_RNCNvNtNtCs4VbbzCHT5av_7peerlib9connector9transport22ensure_live_connections0_0B7_
FNDA:0,_RNCNvNtNtCs4VbbzCHT5av_7peerlib9connector9transport22ensure_live_connections1_0B7_
FNDA:1,_RNCNvNtNtCs4VbbzCHT5av_7peerlib9connector9transport22ensure_live_connections_0B7_
FNDA:0,_RNCNvNtNtCs4VbbzCHT5av_7peerlib9connector9transport22fetch_ca_pem_from_peer0B7_
FNDA:0,_RNCNvNtNtCs4VbbzCHT5av_7peerlib9connector9transport22fetch_ca_pem_from_peers0_0B7_
FNDA:0,_RNCNvNtNtCs4VbbzCHT5av_7peerlib9connector9transport22fetch_ca_pem_from_peers1_0B7_
FNDA:0,_RNCNvNtNtCs4VbbzCHT5av_7peerlib9connector9transport22fetch_ca_pem_from_peers2_0B7_
FNDA:0,_RNCNvNtNtCs4VbbzCHT5av_7peerlib9connector9transport22fetch_ca_pem_from_peers3_0B7_
FNDA:0,_RNCNvNtNtCs4VbbzCHT5av_7peerlib9connector9transport22fetch_ca_pem_from_peers4_0B7_
FNDA:0,_RNCNvNtNtCs4VbbzCHT5av_7peerlib9connector9transport22fetch_ca_pem_from_peers5_0B7_
FNDA:0,_RNCNvNtNtCs4VbbzCHT5av_7peerlib9connector9transport22fetch_ca_pem_from_peers6_0B7_
FNDA:0,_RNCNvNtNtCs4VbbzCHT5av_7peerlib9connector9transport22fetch_ca_pem_from_peers7_0B7_
FNDA:0,_RNCNvNtNtCs4VbbzCHT5av_7peerlib9connector9transport22fetch_ca_pem_from_peers8_0B7_
FNDA:0,_RNCNvNtNtCs4VbbzCHT5av_7peerlib9connector9transport22fetch_ca_pem_from_peers9_0B7_
FNDA:0,_RNCNvNtNtCs4VbbzCHT5av_7peerlib9connector9transport22fetch_ca_pem_from_peers_0B7_
FNDA:0,_RNCNvNtNtCs4VbbzCHT5av_7peerlib9connector9transport24connect_tcp_with_timeout0B7_
FNDA:0,_RNCNvNtNtCs4VbbzCHT5av_7peerlib9connector9transport24connect_tcp_with_timeouts0_0B7_
FNDA:0,_RNCNvNtNtCs4VbbzCHT5av_7peerlib9connector9transport24connect_tcp_with_timeouts_0B7_
FNDA:0,_RNCNvNtNtCs4VbbzCHT5av_7peerlib9connector9transport28server_name_from_socket_addrs_0B7_
FNDA:1,_RNCNvNtNtCs4VbbzCHT5av_7peerlib9connector9transport30connector_connect_timeout_secs0B7_
FNDA:1,_RNCNvNtNtCs4VbbzCHT5av_7peerlib9connector9transport30connector_connect_timeout_secss_0B7_
FNDA:1,_RNCNvNtNtCs4VbbzCHT5av_7peerlib9connector9transport32connector_handshake_timeout_secs0B7_
FNDA:1,_RNCNvNtNtCs4VbbzCHT5av_7peerlib9connector9transport32connector_handshake_timeout_secss_0B7_
FNDA:0,_RNCNvXs4_NtNtCs4VbbzCHT5av_7peerlib9connector9transportNtB7_21ConnectorP2pTransportNtNtNtCsar84mGPjAv6_9connector4core6client18ConnectorTransport7request0Bb_
FNDA:3,_RNvNtNtNtCs4VbbzCHT5av_7peerlib9connector9transport5tests11write_frame
FNDA:1,_RNvNtNtNtCs4VbbzCHT5av_7peerlib9connector9transport5tests12read_request
FNDA:1,_RNvNtNtNtCs4VbbzCHT5av_7peerlib9connector9transport5testss_28transport_uses_kademlia_mode
FNDA:1,_RNvNtNtNtCs4VbbzCHT5av_7peerlib9connector9transport5testss_39extract_session_id_supports_both_labels
FNDA:1,_RNvNtNtNtCs4VbbzCHT5av_7peerlib9connector9transport5testss_40select_peer_switches_active_session_peer
FNDA:1,_RNvNtNtNtCs4VbbzCHT5av_7peerlib9connector9transport5testss_41request_fails_when_no_peers_are_available
FNDA:1,_RNvNtNtNtCs4VbbzCHT5av_7peerlib9connector9transport5testss_46shared_session_token_changes_with_server_token
FNDA:1,_RNvNtNtNtCs4VbbzCHT5av_7peerlib9connector9transport5testss_47normalize_peer_addr_parses_supported_multiaddrs
FNDA:1,_RNvNtNtNtCs4VbbzCHT5av_7peerlib9connector9transport5testss_48connect_active_peer_surfaces_bootstrap_rejection
FNDA:1,_RNvNtNtNtCs4VbbzCHT5av_7peerlib9connector9transport5testss_48queued_response_is_returned_for_matching_request
FNDA:1,_RNvNtNtNtCs4VbbzCHT5av_7peerlib9connector9transport5testss_49first_discovered_peer_becomes_active_session_peer
FNDA:1,_RNvNtNtNtCs4VbbzCHT5av_7peerlib9connector9transport5testss_53normalize_peer_addr_keeps_host_port_and_defaults_port
FNDA:1,_RNvNtNtNtCs4VbbzCHT5av_7peerlib9connector9transport5testss_53upsert_peer_replaces_stale_identity_when_addr_matches
FNDA:1,_RNvNtNtNtCs4VbbzCHT5av_7peerlib9connector9transport5testss_54connector_timeout_env_values_are_clamped_and_defaulted
FNDA:1,_RNvNtNtNtCs4VbbzCHT5av_7peerlib9connector9transport5testss_55request_returns_selected_peer_error_when_no_active_peer
FNDA:1,_RNvNtNtNtCs4VbbzCHT5av_7peerlib9connector9transport5testss_56connect_active_peer_and_request_roundtrip_over_plain_tcp
FNDA:1,_RNvNtNtNtCs4VbbzCHT5av_7peerlib9connector9transport5testss_61server_name_parser_supports_ip_and_hostname_and_rejects_empty
FNDA:2,_RNvMNtNtCs4VbbzCHT5av_7peerlib9connector9transportNtB2_18ConnectorP2pConfig13with_tls_mode
FNDA:4,_RNvMNtNtCs4VbbzCHT5av_7peerlib9connector9transportNtB2_18ConnectorP2pConfig20with_bootstrap_peers
FNDA:3,_RNvMs2_NtNtCs4VbbzCHT5av_7peerlib9connector9transportNtB5_19ConnectorWireStream12set_timeouts
FNDA:1,_RNvMs3_NtNtCs4VbbzCHT5av_7peerlib9connector9transportNtB5_21ConnectorP2pTransport10session_id
FNDA:3,_RNvMs3_NtNtCs4VbbzCHT5av_7peerlib9connector9transportNtB5_21ConnectorP2pTransport11active_peer
FNDA:11,_RNvMs3_NtNtCs4VbbzCHT5av_7peerlib9connector9transportNtB5_21ConnectorP2pTransport11upsert_peer
FNDA:2,_RNvMs3_NtNtCs4VbbzCHT5av_7peerlib9connector9transportNtB5_21ConnectorP2pTransport13cached_ca_pem
FNDA:6,_RNvMs3_NtNtCs4VbbzCHT5av_7peerlib9connector9transportNtB5_21ConnectorP2pTransport14active_peer_id
FNDA:1,_RNvMs3_NtNtCs4VbbzCHT5av_7peerlib9connector9transportNtB5_21ConnectorP2pTransport14discovery_mode
FNDA:2,_RNvMs3_NtNtCs4VbbzCHT5av_7peerlib9connector9transportNtB5_21ConnectorP2pTransport14queue_response
FNDA:3,_RNvMs3_NtNtCs4VbbzCHT5av_7peerlib9connector9transportNtB5_21ConnectorP2pTransport16discovered_peers
FNDA:2,_RNvMs3_NtNtCs4VbbzCHT5av_7peerlib9connector9transportNtB5_21ConnectorP2pTransport19connect_active_peer
FNDA:4,_RNvMs3_NtNtCs4VbbzCHT5av_7peerlib9connector9transportNtB5_21ConnectorP2pTransport19has_live_connection
FNDA:1,_RNvMs3_NtNtCs4VbbzCHT5av_7peerlib9connector9transportNtB5_21ConnectorP2pTransport21clear_live_connection
FNDA:12,_RNvMs3_NtNtCs4VbbzCHT5av_7peerlib9connector9transportNtB5_21ConnectorP2pTransport3new
FNDA:0,_RNvNtNtCs4VbbzCHT5av_7peerlib9connector9transport18connect_tls_stream
FNDA:4,_RNvNtNtCs4VbbzCHT5av_7peerlib9connector9transport18extract_session_id
FNDA:1,_RNvNtNtCs4VbbzCHT5av_7peerlib9connector9transport18send_request_frame
FNDA:0,_RNvNtNtCs4VbbzCHT5av_7peerlib9connector9transport19load_tls_root_store
FNDA:6,_RNvNtNtCs4VbbzCHT5av_7peerlib9connector9transport19normalize_peer_addr
FNDA:3,_RNvNtNtCs4VbbzCHT5av_7peerlib9connector9transport19read_response_frame
FNDA:2,_RNvNtNtCs4VbbzCHT5av_7peerlib9connector9transport20connect_plain_stream
FNDA:1,_RNvNtNtCs4VbbzCHT5av_7peerlib9connector9transport21send_request_over_tcp
FNDA:3,_RNvNtNtCs4VbbzCHT5av_7peerlib9connector9transport22ensure_live_connection
FNDA:0,_RNvNtNtCs4VbbzCHT5av_7peerlib9connector9transport22fetch_ca_pem_from_peer
FNDA:2,_RNvNtNtCs4VbbzCHT5av_7peerlib9connector9transport24connect_connector_stream
FNDA:2,_RNvNtNtCs4VbbzCHT5av_7peerlib9connector9transport24connect_tcp_with_timeout
FNDA:0,_RNvNtNtCs4VbbzCHT5av_7peerlib9connector9transport28load_tls_root_store_from_pem
FNDA:3,_RNvNtNtCs4VbbzCHT5av_7peerlib9connector9transport28server_name_from_socket_addr
FNDA:3,_RNvNtNtCs4VbbzCHT5av_7peerlib9connector9transport29generate_shared_session_token
FNDA:4,_RNvNtNtCs4VbbzCHT5av_7peerlib9connector9transport30connector_connect_timeout_secs
FNDA:4,_RNvNtNtCs4VbbzCHT5av_7peerlib9connector9transport32connector_handshake_timeout_secs
FNDA:6,_RNvXs0_NtNtCs4VbbzCHT5av_7peerlib9connector9transportNtB5_19ConnectorWireStreamNtNtCsgL88BVMLsDE_3std2io4Read4read
FNDA:1,_RNvXs1_NtNtCs4VbbzCHT5av_7peerlib9connector9transportNtB5_19ConnectorWireStreamNtNtCsgL88BVMLsDE_3std2io5Write5flush
FNDA:2,_RNvXs1_NtNtCs4VbbzCHT5av_7peerlib9connector9transportNtB5_19ConnectorWireStreamNtNtCsgL88BVMLsDE_3std2io5Write5write
FNDA:5,_RNvXs4_NtNtCs4VbbzCHT5av_7peerlib9connector9transportNtB5_21ConnectorP2pTransportNtNtNtCsar84mGPjAv6_9connector4core6client18ConnectorTransport7request
FNDA:0,_RINvMNtNtCs4VbbzCHT5av_7peerlib9connector9transportNtB3_18ConnectorP2pConfig16with_tls_ca_pathpEB7_
FNDA:0,_RNCNvMs3_NtNtCs4VbbzCHT5av_7peerlib9connector9transportNtB7_21ConnectorP2pTransport18session_auth_token0Bb_
FNDA:0,_RNCNvMs3_NtNtCs4VbbzCHT5av_7peerlib9connector9transportNtB7_21ConnectorP2pTransport22set_session_auth_token0Bb_
FNDA:0,_RNCNvMs3_NtNtCs4VbbzCHT5av_7peerlib9connector9transportNtB7_21ConnectorP2pTransport30set_active_connection_timeouts0Bb_
FNDA:0,_RNvMs3_NtNtCs4VbbzCHT5av_7peerlib9connector9transportNtB5_21ConnectorP2pTransport11known_peers
FNDA:0,_RNvMs3_NtNtCs4VbbzCHT5av_7peerlib9connector9transportNtB5_21ConnectorP2pTransport11tls_ca_path
FNDA:0,_RNvMs3_NtNtCs4VbbzCHT5av_7peerlib9connector9transportNtB5_21ConnectorP2pTransport15bootstrap_peers
FNDA:0,_RNvMs3_NtNtCs4VbbzCHT5av_7peerlib9connector9transportNtB5_21ConnectorP2pTransport18session_auth_token
FNDA:0,_RNvMs3_NtNtCs4VbbzCHT5av_7peerlib9connector9transportNtB5_21ConnectorP2pTransport21queued_response_count
FNDA:0,_RNvMs3_NtNtCs4VbbzCHT5av_7peerlib9connector9transportNtB5_21ConnectorP2pTransport22disconnect_active_peer
FNDA:0,_RNvMs3_NtNtCs4VbbzCHT5av_7peerlib9connector9transportNtB5_21ConnectorP2pTransport22set_session_auth_token
FNDA:0,_RNvMs3_NtNtCs4VbbzCHT5av_7peerlib9connector9transportNtB5_21ConnectorP2pTransport30set_active_connection_timeouts
FNDA:0,_RNvMs3_NtNtCs4VbbzCHT5av_7peerlib9connector9transportNtB5_21ConnectorP2pTransport8protocol
FNDA:0,_RNvMs3_NtNtCs4VbbzCHT5av_7peerlib9connector9transportNtB5_21ConnectorP2pTransport8tls_mode
FNDA:0,_RNvXs_NtNtCs4VbbzCHT5av_7peerlib9connector9transportNtB4_19ConnectorWireStreamNtNtCsfOyy81DYK0U_4core3fmt5Debug3fmt
FNF:133
FNH:69
DA:31,4
DA:32,4
DA:33,4
DA:34,4
DA:35,4
DA:36,4
DA:37,4
DA:39,4
DA:40,4
DA:41,4
DA:42,4
DA:43,4
DA:44,4
DA:45,4
DA:66,12
DA:67,12
DA:68,12
DA:69,12
DA:70,12
DA:71,12
DA:72,12
DA:74,4
DA:75,4
DA:76,4
DA:77,4
DA:79,2
DA:80,2
DA:81,2
DA:82,2
DA:84,0
DA:85,0
DA:86,0
DA:87,0
DA:121,0
DA:122,0
DA:123,0
DA:124,0
DA:126,0
DA:130,6
DA:131,6
DA:132,6
DA:133,0
DA:135,6
DA:139,2
DA:140,2
DA:141,2
DA:142,0
DA:144,2
DA:146,1
DA:147,1
DA:148,1
DA:149,0
DA:151,1
DA:155,3
DA:156,3
DA:157,3
DA:158,3
DA:159,3
DA:160,3
DA:161,3
DA:162,3
DA:163,3
DA:164,3
DA:165,3
DA:166,3
DA:167,3
DA:168,3
DA:170,0
DA:171,0
DA:172,0
DA:173,0
DA:174,0
DA:175,0
DA:176,0
DA:179,3
DA:183,12
DA:184,12
DA:185,12
DA:186,12
DA:187,12
DA:188,12
DA:189,12
DA:190,12
DA:191,12
DA:192,12
DA:194,2
DA:195,2
DA:196,2
DA:197,2
DA:198,2
DA:199,2
DA:201,1
DA:202,1
DA:203,1
DA:205,0
DA:206,0
DA:207,0
DA:209,0
DA:210,0
DA:211,0
DA:213,0
DA:214,0
DA:215,0
DA:217,0
DA:218,0
DA:219,0
DA:221,11
DA:223,11
DA:224,11
DA:226,11
DA:229,0
DA:232,11
DA:233,11
DA:234,11
DA:235,11
DA:236,2
DA:237,2
DA:238,2
DA:239,2
DA:240,2
DA:241,2
DA:242,11
DA:243,11
DA:245,11
DA:246,11
DA:247,11
DA:249,11
DA:250,1
DA:255,1
DA:258,11
DA:259,11
DA:260,11
DA:261,11
DA:262,11
DA:263,11
DA:267,11
DA:268,10
DA:269,10
DA:271,11
DA:273,3
DA:274,3
DA:275,3
DA:276,3
DA:277,3
DA:278,3
DA:279,3
DA:281,0
DA:282,0
DA:283,0
DA:285,6
DA:286,6
DA:287,6
DA:289,1
DA:290,1
DA:291,1
DA:292,1
DA:293,1
DA:294,1
DA:295,1
DA:296,1
DA:297,1
DA:298,0
DA:300,0
DA:301,0
DA:302,0
DA:303,1
DA:305,3
DA:306,3
DA:307,3
DA:308,3
DA:309,3
DA:313,2
DA:314,2
DA:319,2
DA:320,2
DA:321,2
DA:323,0
DA:324,0
DA:325,0
DA:327,4
DA:328,4
DA:329,4
DA:330,4
DA:331,4
DA:332,4
DA:334,2
DA:336,2
DA:337,0
DA:338,0
DA:339,0
DA:340,0
DA:341,0
DA:342,0
DA:343,0
DA:344,2
DA:346,2
DA:347,0
DA:348,0
DA:349,0
DA:352,2
DA:354,2
DA:356,0
DA:357,0
DA:358,0
DA:360,0
DA:361,0
DA:362,0
DA:363,0
DA:364,0
DA:365,0
DA:366,0
DA:367,0
DA:368,0
DA:370,0
DA:371,0
DA:372,0
DA:373,0
DA:376,0
DA:377,0
DA:379,0
DA:381,0
DA:382,0
DA:383,0
DA:384,0
DA:386,0
DA:387,0
DA:388,0
DA:389,0
DA:392,0
DA:394,0
DA:396,0
DA:398,0
DA:400,0
DA:401,0
DA:402,0
DA:403,0
DA:405,0
DA:406,0
DA:407,0
DA:408,0
DA:411,0
DA:412,0
DA:414,1
DA:416,1
DA:417,1
DA:418,1
DA:419,1
DA:421,1
DA:422,0
DA:423,0
DA:424,0
DA:427,1
DA:428,1
DA:430,1
DA:432,1
DA:433,1
DA:434,0
DA:439,1
DA:441,1
DA:446,5
DA:448,5
DA:449,1
DA:450,1
DA:451,1
DA:452,1
DA:453,4
DA:455,4
DA:456,1
DA:457,1
DA:458,1
DA:459,1
DA:460,3
DA:462,3
DA:464,3
DA:465,3
DA:470,0
DA:472,3
DA:474,3
DA:475,1
DA:477,1
DA:479,1
DA:480,1
DA:485,1
DA:488,0
DA:489,0
DA:494,0
DA:499,2
DA:501,2
DA:502,0
DA:503,2
DA:505,2
DA:506,2
DA:507,2
DA:508,2
DA:509,0
DA:513,0
DA:514,0
DA:515,0
DA:516,0
DA:517,0
DA:519,0
DA:520,0
DA:521,0
DA:522,0
DA:524,0
DA:526,5
DA:530,1
DA:531,1
DA:532,1
DA:533,1
DA:534,1
DA:536,1
DA:538,1
DA:539,1
DA:540,1
DA:541,1
DA:543,1
DA:544,1
DA:545,0
DA:546,0
DA:547,0
DA:549,1
DA:552,1
DA:553,0
DA:554,1
DA:556,1
DA:558,1
DA:560,3
DA:561,3
DA:562,3
DA:563,3
DA:565,3
DA:566,3
DA:567,3
DA:568,3
DA:570,3
DA:571,3
DA:572,3
DA:573,3
DA:575,3
DA:576,1
DA:577,2
DA:579,2
DA:580,0
DA:581,0
DA:582,0
DA:585,2
DA:588,2
DA:589,2
DA:591,0
DA:592,0
DA:593,0
DA:594,0
DA:595,0
DA:596,0
DA:601,0
DA:602,0
DA:603,0
DA:604,0
DA:607,0
DA:608,0
DA:610,0
DA:611,0
DA:612,0
DA:613,0
DA:614,0
DA:615,0
DA:616,0
DA:620,0
DA:623,2
DA:626,2
DA:627,2
DA:628,2
DA:630,2
DA:631,2
DA:632,2
DA:633,2
DA:634,2
DA:635,0
DA:637,2
DA:639,2
DA:640,1
DA:641,1
DA:642,1
DA:644,0
DA:645,0
DA:646,0
DA:648,1
DA:650,1
DA:651,0
DA:652,0
DA:653,0
DA:654,0
DA:655,1
DA:657,1
DA:658,1
DA:660,0
DA:661,0
DA:662,0
DA:666,1
DA:672,1
DA:673,1
DA:674,0
DA:676,1
DA:677,1
DA:678,1
DA:681,1
DA:682,1
DA:683,1
DA:684,1
DA:685,1
DA:687,1
DA:688,1
DA:689,1
DA:690,1
DA:691,0
DA:692,0
DA:694,1
DA:696,3
DA:698,1
DA:699,1
DA:700,1
DA:701,1
DA:703,1
DA:704,0
DA:705,0
DA:707,1
DA:708,1
DA:709,1
DA:710,1
DA:711,1
DA:713,1
DA:714,1
DA:715,1
DA:717,1
DA:719,1
DA:721,3
DA:723,3
DA:724,3
DA:725,3
DA:726,3
DA:728,3
DA:729,3
DA:731,3
DA:732,3
DA:733,3
DA:735,3
DA:736,3
DA:738,3
DA:740,0
DA:742,0
DA:743,0
DA:744,0
DA:746,0
DA:748,0
DA:750,0
DA:751,0
DA:752,0
DA:753,0
DA:755,0
DA:756,0
DA:757,0
DA:758,0
DA:760,0
DA:761,0
DA:762,0
DA:763,0
DA:764,0
DA:765,0
DA:766,0
DA:767,0
DA:769,0
DA:770,0
DA:771,0
DA:772,0
DA:773,0
DA:774,0
DA:776,0
DA:777,0
DA:778,0
DA:779,0
DA:780,0
DA:781,0
DA:782,0
DA:783,0
DA:786,0
DA:788,0
DA:790,3
DA:792,3
DA:793,3
DA:794,3
DA:795,3
DA:796,3
DA:797,3
DA:799,3
DA:800,1
DA:801,1
DA:802,1
DA:803,2
DA:805,2
DA:806,1
DA:807,1
DA:809,1
DA:810,0
DA:811,0
DA:813,3
DA:815,0
DA:816,0
DA:817,0
DA:818,0
DA:819,0
DA:821,0
DA:822,0
DA:824,0
DA:825,0
DA:826,0
DA:827,0
DA:828,0
DA:829,0
DA:832,0
DA:833,0
DA:834,0
DA:835,0
DA:837,0
DA:838,0
DA:840,0
DA:841,0
DA:842,0
DA:843,0
DA:844,0
DA:845,0
DA:847,0
DA:848,0
DA:849,0
DA:850,0
DA:852,0
DA:853,0
DA:854,0
DA:855,0
DA:858,0
DA:860,0
DA:862,2
DA:863,2
DA:865,2
DA:866,2
DA:867,2
DA:868,2
DA:869,2
DA:870,2
DA:872,2
DA:873,2
DA:875,2
DA:876,2
DA:877,2
DA:878,2
DA:879,2
DA:881,2
DA:882,2
DA:883,0
DA:884,0
DA:885,0
DA:886,0
DA:887,0
DA:892,0
DA:897,2
DA:899,0
DA:900,0
DA:901,0
DA:902,0
DA:904,0
DA:905,0
DA:906,0
DA:908,0
DA:909,0
DA:910,0
DA:911,0
DA:912,0
DA:913,0
DA:914,0
DA:916,0
DA:917,0
DA:918,0
DA:920,0
DA:921,0
DA:922,0
DA:923,0
DA:926,0
DA:927,0
DA:928,0
DA:929,0
DA:930,0
DA:931,0
DA:932,0
DA:933,0
DA:934,0
DA:937,0
DA:938,0
DA:939,0
DA:940,0
DA:941,0
DA:942,0
DA:943,0
DA:944,0
DA:945,0
DA:947,0
DA:948,0
DA:949,0
DA:950,0
DA:951,0
DA:953,0
DA:954,0
DA:955,0
DA:957,0
DA:960,0
DA:961,0
DA:962,0
DA:963,0
DA:964,0
DA:965,0
DA:966,0
DA:967,0
DA:968,0
DA:970,0
DA:971,0
DA:972,0
DA:973,0
DA:976,0
DA:978,0
DA:981,0
DA:982,0
DA:986,0
DA:988,6
DA:990,6
DA:992,6
DA:993,1
DA:994,1
DA:995,1
DA:996,5
DA:998,5
DA:999,1
DA:1000,1
DA:1001,1
DA:1002,4
DA:1004,4
DA:1005,3
DA:1006,1
DA:1008,1
DA:1010,6
DA:1012,2
DA:1013,2
DA:1015,2
DA:1016,2
DA:1017,2
DA:1018,2
DA:1020,2
DA:1021,0
DA:1022,0
DA:1023,0
DA:1024,2
DA:1026,2
DA:1028,2
DA:1029,2
DA:1030,2
DA:1031,2
DA:1033,0
DA:1034,0
DA:1035,0
DA:1039,0
DA:1040,0
DA:1041,0
DA:1043,0
DA:1044,0
DA:1045,0
DA:1046,2
DA:1048,4
DA:1050,10
DA:1052,10
DA:1053,2
DA:1054,2
DA:1055,2
DA:1056,0
DA:1057,8
DA:1060,8
DA:1061,1
DA:1062,1
DA:1063,1
DA:1064,0
DA:1065,7
DA:1069,1
DA:1071,4
DA:1073,3
DA:1075,3
DA:1078,3
DA:1079,3
DA:1082,3
DA:1084,3
DA:1098,3
DA:1099,3
DA:1100,3
DA:1101,3
DA:1102,3
DA:1103,3
DA:1104,3
DA:1105,3
DA:1106,3
DA:1108,1
DA:1109,1
DA:1110,1
DA:1111,1
DA:1112,1
DA:1113,1
DA:1114,1
DA:1115,1
DA:1116,1
DA:1117,1
DA:1118,1
DA:1119,1
DA:1122,1
DA:1123,1
DA:1124,1
DA:1125,1
DA:1128,1
DA:1129,1
DA:1130,1
DA:1132,1
DA:1133,1
DA:1134,1
DA:1137,1
DA:1138,1
DA:1139,1
DA:1142,1
DA:1143,1
DA:1144,1
DA:1145,1
DA:1148,1
DA:1149,1
DA:1150,1
DA:1151,1
DA:1152,1
DA:1154,1
DA:1155,1
DA:1156,1
DA:1157,1
DA:1158,1
DA:1160,1
DA:1162,1
DA:1163,1
DA:1164,1
DA:1167,1
DA:1168,1
DA:1169,1
DA:1170,1
DA:1173,1
DA:1174,1
DA:1176,1
DA:1177,1
DA:1178,1
DA:1179,1
DA:1180,1
DA:1182,1
DA:1183,1
DA:1186,1
DA:1187,1
DA:1189,1
DA:1190,1
DA:1191,1
DA:1192,1
DA:1193,1
DA:1194,1
DA:1195,1
DA:1196,1
DA:1197,1
DA:1198,1
DA:1200,1
DA:1201,1
DA:1202,1
DA:1204,1
DA:1205,1
DA:1208,1
DA:1209,1
DA:1211,1
DA:1212,1
DA:1213,1
DA:1214,1
DA:1215,1
DA:1217,1
DA:1218,1
DA:1219,1
DA:1220,1
DA:1221,1
DA:1223,1
DA:1224,1
DA:1225,1
DA:1226,1
DA:1227,1
DA:1230,1
DA:1231,1
DA:1232,1
DA:1235,1
DA:1236,1
DA:1239,1
DA:1242,1
DA:1243,1
DA:1244,1
DA:1245,1
DA:1246,1
DA:1248,1
DA:1251,1
DA:1252,1
DA:1253,1
DA:1254,1
DA:1255,1
DA:1257,1
DA:1258,1
DA:1260,1
DA:1261,1
DA:1262,1
DA:1263,1
DA:1265,1
DA:1266,1
DA:1267,1
DA:1270,1
DA:1271,1
DA:1272,1
DA:1274,1
DA:1275,1
DA:1277,1
DA:1278,1
DA:1279,1
DA:1282,1
DA:1283,1
DA:1284,1
DA:1285,1
DA:1287,1
DA:1288,1
DA:1289,1
DA:1291,1
DA:1292,1
DA:1295,1
DA:1296,1
DA:1297,1
DA:1298,1
DA:1299,1
DA:1300,1
DA:1303,1
DA:1304,1
DA:1305,1
DA:1306,1
DA:1307,1
DA:1308,1
DA:1309,1
DA:1310,1
DA:1312,1
DA:1314,1
DA:1315,1
DA:1316,1
DA:1319,1
DA:1320,1
DA:1321,1
DA:1324,1
DA:1325,1
DA:1326,1
DA:1328,1
DA:1329,1
DA:1331,1
DA:1332,1
DA:1333,1
DA:1334,1
DA:1335,1
DA:1336,1
DA:1339,1
DA:1340,1
DA:1341,1
DA:1342,1
DA:1343,1
DA:1344,1
DA:1345,1
DA:1347,1
DA:1349,1
DA:1350,1
DA:1353,1
DA:1354,1
DA:1355,1
DA:1356,1
DA:1357,1
DA:1359,1
DA:1360,1
DA:1361,1
DA:1362,1
DA:1363,1
DA:1364,1
DA:1365,1
DA:1366,1
DA:1368,1
DA:1370,1
DA:1371,1
DA:1372,1
DA:1375,1
DA:1376,1
DA:1378,1
DA:1379,1
DA:1382,1
DA:1383,1
DA:1384,1
DA:1386,1
DA:1387,1
DA:1388,1
DA:1389,1
DA:1390,1
DA:1391,1
DA:1392,1
DA:1393,1
DA:1395,1
DA:1397,1
DA:1398,1
DA:1401,1
DA:1402,1
DA:1403,1
DA:1404,1
DA:1405,1
DA:1407,1
DA:1408,1
DA:1409,1
DA:1410,1
DA:1412,1
DA:1413,1
BRF:0
BRH:0
LF:1004
LH:627
end_of_record
SF:/Users/samcolak/Source Code/rust/distdb/distdb/peerlib/src/error.rs
FN:57,_RNvNtNtCs4VbbzCHT5av_7peerlib5error5testss_32result_alias_supports_ok_and_err
FN:33,_RNvNtNtCs4VbbzCHT5av_7peerlib5error5testss_39peer_error_display_formats_all_variants
FN:13,_RNvXNtCs4VbbzCHT5av_7peerlib5errorNtB2_9PeerErrorNtNtCsfOyy81DYK0U_4core3fmt7Display3fmt
FNDA:1,_RNvNtNtCs4VbbzCHT5av_7peerlib5error5testss_32result_alias_supports_ok_and_err
FNDA:1,_RNvNtNtCs4VbbzCHT5av_7peerlib5error5testss_39peer_error_display_formats_all_variants
FNDA:5,_RNvXNtCs4VbbzCHT5av_7peerlib5errorNtB2_9PeerErrorNtNtCsfOyy81DYK0U_4core3fmt7Display3fmt
FNF:3
FNH:3
DA:13,5
DA:14,5
DA:15,1
DA:16,1
DA:17,1
DA:18,1
DA:19,1
DA:21,5
DA:33,1
DA:34,1
DA:35,1
DA:38,1
DA:39,1
DA:42,1
DA:43,1
DA:46,1
DA:47,1
DA:50,1
DA:51,1
DA:54,1
DA:57,1
DA:58,1
DA:59,1
DA:61,1
DA:62,1
DA:63,1
BRF:0
BRH:0
LF:26
LH:26
end_of_record
SF:/Users/samcolak/Source Code/rust/distdb/distdb/peerlib/src/interface.rs
FN:59,_RNCNvXNtNtCs4VbbzCHT5av_7peerlib9interface5testsNtB4_11StringCodecINtB6_13TransferCodecNtNtCslDfkGcRelIg_5alloc6string6StringE6decode0B8_
FN:31,_RINvMNtCs4VbbzCHT5av_7peerlib9interfaceNtB3_16TransferEnvelope11with_headerReB1b_EB5_
FN:16,_RINvMNtCs4VbbzCHT5av_7peerlib9interfaceNtB3_16TransferEnvelope3newReB12_EB5_
FN:83,_RNvNtNtCs4VbbzCHT5av_7peerlib9interface5testss_30transfer_codec_roundtrip_works
FN:64,_RNvNtNtCs4VbbzCHT5av_7peerlib9interface5testss_49transfer_envelope_builder_sets_fields_and_headers
FN:58,_RNvXNtNtCs4VbbzCHT5av_7peerlib9interface5testsNtB2_11StringCodecINtB4_13TransferCodecNtNtCslDfkGcRelIg_5alloc6string6StringE6decode
FN:49,_RNvXNtNtCs4VbbzCHT5av_7peerlib9interface5testsNtB2_11StringCodecINtB4_13TransferCodecNtNtCslDfkGcRelIg_5alloc6string6StringE6encode
FNDA:0,_RNCNvXNtNtCs4VbbzCHT5av_7peerlib9interface5testsNtB4_11StringCodecINtB6_13TransferCodecNtNtCslDfkGcRelIg_5alloc6string6StringE6decode0B8_
FNDA:2,_RINvMNtCs4VbbzCHT5av_7peerlib9interfaceNtB3_16TransferEnvelope11with_headerReB1b_EB5_
FNDA:2,_RINvMNtCs4VbbzCHT5av_7peerlib9interfaceNtB3_16TransferEnvelope3newReB12_EB5_
FNDA:1,_RNvNtNtCs4VbbzCHT5av_7peerlib9interface5testss_30transfer_codec_roundtrip_works
FNDA:1,_RNvNtNtCs4VbbzCHT5av_7peerlib9interface5testss_49transfer_envelope_builder_sets_fields_and_headers
FNDA:1,_RNvXNtNtCs4VbbzCHT5av_7peerlib9interface5testsNtB2_11StringCodecINtB4_13TransferCodecNtNtCslDfkGcRelIg_5alloc6string6StringE6decode
FNDA:1,_RNvXNtNtCs4VbbzCHT5av_7peerlib9interface5testsNtB2_11StringCodecINtB4_13TransferCodecNtNtCslDfkGcRelIg_5alloc6string6StringE6encode
FNF:7
FNH:6
DA:16,2
DA:17,2
DA:18,2
DA:19,2
DA:20,2
DA:21,2
DA:22,2
DA:23,2
DA:24,2
DA:25,2
DA:26,2
DA:27,2
DA:28,2
DA:29,2
DA:31,2
DA:32,2
DA:33,2
DA:34,2
DA:49,1
DA:50,1
DA:51,1
DA:52,1
DA:53,1
DA:54,1
DA:55,1
DA:56,1
DA:58,1
DA:59,1
DA:60,1
DA:64,1
DA:65,1
DA:68,1
DA:69,1
DA:71,1
DA:72,1
DA:74,1
DA:75,1
DA:76,1
DA:77,1
DA:78,1
DA:79,1
DA:80,1
DA:83,1
DA:84,1
DA:85,1
DA:87,1
DA:88,1
DA:90,1
DA:91,1
BRF:0
BRH:0
LF:50
LH:49
end_of_record