SF:/Users/samcolak/Source Code/rust/distdb/distdb/server/src/core/app/control/affinity.rs
FN:7,_RNvMNtNtNtNtCsjRwMhjCpbZQ_6server4core3app7control8affinityNtNtB6_5state9ServerApp19resolve_catalog_key
FN:58,_RNvMNtNtNtNtCsjRwMhjCpbZQ_6server4core3app7control8affinityNtNtB6_5state9ServerApp24begin_affinity_sync_lock
FN:77,_RNvMNtNtNtNtCsjRwMhjCpbZQ_6server4core3app7control8affinityNtNtB6_5state9ServerApp25finish_affinity_sync_lock
FN:20,_RNvMNtNtNtNtCsjRwMhjCpbZQ_6server4core3app7control8affinityNtNtB6_5state9ServerApp30ensure_affinity_catalog_exists
FN:96,_RNvMNtNtNtNtCsjRwMhjCpbZQ_6server4core3app7control8affinityNtNtB6_5state9ServerApp33apply_affinity_schema_definitions
FN:42,_RNvMNtNtNtNtCsjRwMhjCpbZQ_6server4core3app7control8affinityNtNtB6_5state9ServerApp34set_affinity_catalog_database_name
FN:63,_RNCNvMNtNtNtNtCsjRwMhjCpbZQ_6server4core3app7control8affinityNtNtB8_5state9ServerApp24begin_affinity_sync_lock0Bc_
FN:74,_RNCNvMNtNtNtNtCsjRwMhjCpbZQ_6server4core3app7control8affinityNtNtB8_5state9ServerApp24begin_affinity_sync_locks_0Bc_
FN:85,_RNCNvMNtNtNtNtCsjRwMhjCpbZQ_6server4core3app7control8affinityNtNtB8_5state9ServerApp25finish_affinity_sync_lock0Bc_
FN:93,_RNCNvMNtNtNtNtCsjRwMhjCpbZQ_6server4core3app7control8affinityNtNtB8_5state9ServerApp25finish_affinity_sync_locks_0Bc_
FN:33,_RNCNvMNtNtNtNtCsjRwMhjCpbZQ_6server4core3app7control8affinityNtNtB8_5state9ServerApp30ensure_affinity_catalog_exists0Bc_
FN:36,_RNCNvMNtNtNtNtCsjRwMhjCpbZQ_6server4core3app7control8affinityNtNtB8_5state9ServerApp30ensure_affinity_catalog_existss_0Bc_
FN:103,_RNCNvMNtNtNtNtCsjRwMhjCpbZQ_6server4core3app7control8affinityNtNtB8_5state9ServerApp33apply_affinity_schema_definitions0Bc_
FN:150,_RNCNvMNtNtNtNtCsjRwMhjCpbZQ_6server4core3app7control8affinityNtNtB8_5state9ServerApp33apply_affinity_schema_definitionss_0Bc_
FN:55,_RNCNvMNtNtNtNtCsjRwMhjCpbZQ_6server4core3app7control8affinityNtNtB8_5state9ServerApp34set_affinity_catalog_database_name0Bc_
FNDA:17,_RNvMNtNtNtNtCsjRwMhjCpbZQ_6server4core3app7control8affinityNtNtB6_5state9ServerApp19resolve_catalog_key
FNDA:2,_RNvMNtNtNtNtCsjRwMhjCpbZQ_6server4core3app7control8affinityNtNtB6_5state9ServerApp24begin_affinity_sync_lock
FNDA:2,_RNvMNtNtNtNtCsjRwMhjCpbZQ_6server4core3app7control8affinityNtNtB6_5state9ServerApp25finish_affinity_sync_lock
FNDA:2,_RNvMNtNtNtNtCsjRwMhjCpbZQ_6server4core3app7control8affinityNtNtB6_5state9ServerApp30ensure_affinity_catalog_exists
FNDA:1,_RNvMNtNtNtNtCsjRwMhjCpbZQ_6server4core3app7control8affinityNtNtB6_5state9ServerApp33apply_affinity_schema_definitions
FNDA:0,_RNvMNtNtNtNtCsjRwMhjCpbZQ_6server4core3app7control8affinityNtNtB6_5state9ServerApp34set_affinity_catalog_database_name
FNDA:0,_RNCNvMNtNtNtNtCsjRwMhjCpbZQ_6server4core3app7control8affinityNtNtB8_5state9ServerApp24begin_affinity_sync_lock0Bc_
FNDA:0,_RNCNvMNtNtNtNtCsjRwMhjCpbZQ_6server4core3app7control8affinityNtNtB8_5state9ServerApp24begin_affinity_sync_locks_0Bc_
FNDA:0,_RNCNvMNtNtNtNtCsjRwMhjCpbZQ_6server4core3app7control8affinityNtNtB8_5state9ServerApp25finish_affinity_sync_lock0Bc_
FNDA:0,_RNCNvMNtNtNtNtCsjRwMhjCpbZQ_6server4core3app7control8affinityNtNtB8_5state9ServerApp25finish_affinity_sync_locks_0Bc_
FNDA:0,_RNCNvMNtNtNtNtCsjRwMhjCpbZQ_6server4core3app7control8affinityNtNtB8_5state9ServerApp30ensure_affinity_catalog_exists0Bc_
FNDA:0,_RNCNvMNtNtNtNtCsjRwMhjCpbZQ_6server4core3app7control8affinityNtNtB8_5state9ServerApp30ensure_affinity_catalog_existss_0Bc_
FNDA:1,_RNCNvMNtNtNtNtCsjRwMhjCpbZQ_6server4core3app7control8affinityNtNtB8_5state9ServerApp33apply_affinity_schema_definitions0Bc_
FNDA:0,_RNCNvMNtNtNtNtCsjRwMhjCpbZQ_6server4core3app7control8affinityNtNtB8_5state9ServerApp33apply_affinity_schema_definitionss_0Bc_
FNDA:0,_RNCNvMNtNtNtNtCsjRwMhjCpbZQ_6server4core3app7control8affinityNtNtB8_5state9ServerApp34set_affinity_catalog_database_name0Bc_
FNF:15
FNH:6
DA:7,17
DA:8,17
DA:9,17
DA:10,0
DA:12,0
DA:13,0
DA:14,0
DA:15,0
DA:17,0
DA:18,17
DA:20,2
DA:21,2
DA:22,2
DA:23,0
DA:27,0
DA:29,0
DA:30,0
DA:31,0
DA:32,0
DA:33,0
DA:34,0
DA:35,0
DA:36,0
DA:37,0
DA:39,0
DA:40,2
DA:42,0
DA:43,0
DA:44,0
DA:45,0
DA:46,0
DA:47,0
DA:49,0
DA:50,0
DA:52,0
DA:53,0
DA:54,0
DA:55,0
DA:56,0
DA:58,2
DA:59,2
DA:60,2
DA:61,2
DA:62,2
DA:63,2
DA:65,2
DA:66,0
DA:67,0
DA:68,0
DA:69,0
DA:70,2
DA:72,2
DA:73,2
DA:74,2
DA:75,2
DA:77,2
DA:78,2
DA:79,0
DA:82,2
DA:83,2
DA:84,2
DA:85,2
DA:87,2
DA:88,0
DA:89,2
DA:91,2
DA:92,2
DA:93,2
DA:94,2
DA:96,1
DA:97,1
DA:98,1
DA:99,1
DA:100,1
DA:101,1
DA:103,1
DA:104,1
DA:105,1
DA:106,1
DA:107,1
DA:108,1
DA:109,1
DA:110,1
DA:111,1
DA:112,1
DA:113,1
DA:115,1
DA:116,1
DA:117,1
DA:120,1
DA:121,1
DA:124,0
DA:125,1
DA:127,1
DA:128,1
DA:129,0
DA:132,1
DA:133,0
DA:134,1
DA:136,1
DA:137,1
DA:138,1
DA:139,1
DA:142,0
DA:145,1
DA:146,0
DA:147,0
DA:148,0
DA:149,0
DA:150,0
DA:152,0
DA:155,0
DA:158,1
DA:161,1
DA:163,1
DA:164,0
DA:165,0
DA:167,1
DA:168,0
DA:169,0
DA:170,0
DA:172,1
BRF:0
BRH:0
LF:131
LH:70
end_of_record
SF:/Users/samcolak/Source Code/rust/distdb/distdb/server/src/core/app/control/core.rs
FN:106,_RNvMNtNtNtNtCsjRwMhjCpbZQ_6server4core3app7control4coreNtNtB6_5state9ServerApp20parse_lock_table_ids
FN:547,_RNvMNtNtNtNtCsjRwMhjCpbZQ_6server4core3app7control4coreNtNtB6_5state9ServerApp21commit_staged_queries
FN:681,_RNvMNtNtNtNtCsjRwMhjCpbZQ_6server4core3app7control4coreNtNtB6_5state9ServerApp23validate_staged_queries
FN:92,_RNvMNtNtNtNtCsjRwMhjCpbZQ_6server4core3app7control4coreNtNtB6_5state9ServerApp24abort_group_table_writes
FN:201,_RNvMNtNtNtNtCsjRwMhjCpbZQ_6server4core3app7control4coreNtNtB6_5state9ServerApp24handle_connector_request
FN:72,_RNvMNtNtNtNtCsjRwMhjCpbZQ_6server4core3app7control4coreNtNtB6_5state9ServerApp27finalize_group_table_writes
FN:170,_RNvMNtNtNtNtCsjRwMhjCpbZQ_6server4core3app7control4coreNtNtB6_5state9ServerApp28staged_query_validation_plan
FN:152,_RNvMNtNtNtNtCsjRwMhjCpbZQ_6server4core3app7control4coreNtNtB6_5state9ServerApp29apply_remote_table_lock_state
FN:340,_RNvMNtNtNtNtCsjRwMhjCpbZQ_6server4core3app7control4coreNtNtB6_5state9ServerApp32handle_transaction_control_query
FN:205,_RNvMNtNtNtNtCsjRwMhjCpbZQ_6server4core3app7control4coreNtNtB6_5state9ServerApp36handle_connector_request_for_session
FN:20,_RNvMNtNtNtNtCsjRwMhjCpbZQ_6server4core3app7control4coreNtNtB6_5state9ServerApp46handle_read_only_connector_request_for_session
FN:144,_RNCNvMNtNtNtNtCsjRwMhjCpbZQ_6server4core3app7control4coreNtNtB8_5state9ServerApp20parse_lock_table_ids0Bc_
FN:573,_RNCNvMNtNtNtNtCsjRwMhjCpbZQ_6server4core3app7control4coreNtNtB8_5state9ServerApp21commit_staged_queries0Bc_
FN:580,_RNCNvMNtNtNtNtCsjRwMhjCpbZQ_6server4core3app7control4coreNtNtB8_5state9ServerApp21commit_staged_queriess_0Bc_
FN:742,_RNCNvMNtNtNtNtCsjRwMhjCpbZQ_6server4core3app7control4coreNtNtB8_5state9ServerApp23validate_staged_queries0Bc_
FN:778,_RNCNvMNtNtNtNtCsjRwMhjCpbZQ_6server4core3app7control4coreNtNtB8_5state9ServerApp23validate_staged_queriess0_0Bc_
FN:785,_RNCNvMNtNtNtNtCsjRwMhjCpbZQ_6server4core3app7control4coreNtNtB8_5state9ServerApp23validate_staged_queriess1_0Bc_
FN:753,_RNCNvMNtNtNtNtCsjRwMhjCpbZQ_6server4core3app7control4coreNtNtB8_5state9ServerApp23validate_staged_queriess_0Bc_
FN:97,_RNCNvMNtNtNtNtCsjRwMhjCpbZQ_6server4core3app7control4coreNtNtB8_5state9ServerApp24abort_group_table_writes0Bc_
FN:77,_RNCNvMNtNtNtNtCsjRwMhjCpbZQ_6server4core3app7control4coreNtNtB8_5state9ServerApp27finalize_group_table_writes0Bc_
FN:85,_RNCNvMNtNtNtNtCsjRwMhjCpbZQ_6server4core3app7control4coreNtNtB8_5state9ServerApp27finalize_group_table_writess_0Bc_
FN:269,_RNCNvMNtNtNtNtCsjRwMhjCpbZQ_6server4core3app7control4coreNtNtB8_5state9ServerApp36handle_connector_request_for_session0Bc_
FN:43,_RNCNvMNtNtNtNtCsjRwMhjCpbZQ_6server4core3app7control4coreNtNtB8_5state9ServerApp46handle_read_only_connector_request_for_session0Bc_
FN:55,_RNCNvMNtNtNtNtCsjRwMhjCpbZQ_6server4core3app7control4coreNtNtB8_5state9ServerApp46handle_read_only_connector_request_for_sessions_0Bc_
FNDA:0,_RNvMNtNtNtNtCsjRwMhjCpbZQ_6server4core3app7control4coreNtNtB6_5state9ServerApp20parse_lock_table_ids
FNDA:11,_RNvMNtNtNtNtCsjRwMhjCpbZQ_6server4core3app7control4coreNtNtB6_5state9ServerApp21commit_staged_queries
FNDA:9,_RNvMNtNtNtNtCsjRwMhjCpbZQ_6server4core3app7control4coreNtNtB6_5state9ServerApp23validate_staged_queries
FNDA:0,_RNvMNtNtNtNtCsjRwMhjCpbZQ_6server4core3app7control4coreNtNtB6_5state9ServerApp24abort_group_table_writes
FNDA:1142,_RNvMNtNtNtNtCsjRwMhjCpbZQ_6server4core3app7control4coreNtNtB6_5state9ServerApp24handle_connector_request
FNDA:6,_RNvMNtNtNtNtCsjRwMhjCpbZQ_6server4core3app7control4coreNtNtB6_5state9ServerApp27finalize_group_table_writes
FNDA:9,_RNvMNtNtNtNtCsjRwMhjCpbZQ_6server4core3app7control4coreNtNtB6_5state9ServerApp28staged_query_validation_plan
FNDA:0,_RNvMNtNtNtNtCsjRwMhjCpbZQ_6server4core3app7control4coreNtNtB6_5state9ServerApp29apply_remote_table_lock_state
FNDA:1214,_RNvMNtNtNtNtCsjRwMhjCpbZQ_6server4core3app7control4coreNtNtB6_5state9ServerApp32handle_transaction_control_query
FNDA:1220,_RNvMNtNtNtNtCsjRwMhjCpbZQ_6server4core3app7control4coreNtNtB6_5state9ServerApp36handle_connector_request_for_session
FNDA:7,_RNvMNtNtNtNtCsjRwMhjCpbZQ_6server4core3app7control4coreNtNtB6_5state9ServerApp46handle_read_only_connector_request_for_session
FNDA:0,_RNCNvMNtNtNtNtCsjRwMhjCpbZQ_6server4core3app7control4coreNtNtB8_5state9ServerApp20parse_lock_table_ids0Bc_
FNDA:0,_RNCNvMNtNtNtNtCsjRwMhjCpbZQ_6server4core3app7control4coreNtNtB8_5state9ServerApp21commit_staged_queries0Bc_
FNDA:6,_RNCNvMNtNtNtNtCsjRwMhjCpbZQ_6server4core3app7control4coreNtNtB8_5state9ServerApp21commit_staged_queriess_0Bc_
FNDA:0,_RNCNvMNtNtNtNtCsjRwMhjCpbZQ_6server4core3app7control4coreNtNtB8_5state9ServerApp23validate_staged_queries0Bc_
FNDA:0,_RNCNvMNtNtNtNtCsjRwMhjCpbZQ_6server4core3app7control4coreNtNtB8_5state9ServerApp23validate_staged_queriess0_0Bc_
FNDA:9,_RNCNvMNtNtNtNtCsjRwMhjCpbZQ_6server4core3app7control4coreNtNtB8_5state9ServerApp23validate_staged_queriess1_0Bc_
FNDA:0,_RNCNvMNtNtNtNtCsjRwMhjCpbZQ_6server4core3app7control4coreNtNtB8_5state9ServerApp23validate_staged_queriess_0Bc_
FNDA:0,_RNCNvMNtNtNtNtCsjRwMhjCpbZQ_6server4core3app7control4coreNtNtB8_5state9ServerApp24abort_group_table_writes0Bc_
FNDA:0,_RNCNvMNtNtNtNtCsjRwMhjCpbZQ_6server4core3app7control4coreNtNtB8_5state9ServerApp27finalize_group_table_writes0Bc_
FNDA:0,_RNCNvMNtNtNtNtCsjRwMhjCpbZQ_6server4core3app7control4coreNtNtB8_5state9ServerApp27finalize_group_table_writess_0Bc_
FNDA:12,_RNCNvMNtNtNtNtCsjRwMhjCpbZQ_6server4core3app7control4coreNtNtB8_5state9ServerApp36handle_connector_request_for_session0Bc_
FNDA:7,_RNCNvMNtNtNtNtCsjRwMhjCpbZQ_6server4core3app7control4coreNtNtB8_5state9ServerApp46handle_read_only_connector_request_for_session0Bc_
FNDA:6,_RNCNvMNtNtNtNtCsjRwMhjCpbZQ_6server4core3app7control4coreNtNtB8_5state9ServerApp46handle_read_only_connector_request_for_sessions_0Bc_
FNF:24
FNH:13
DA:20,7
DA:21,7
DA:22,7
DA:23,7
DA:24,7
DA:26,7
DA:27,0
DA:30,7
DA:31,7
DA:32,7
DA:33,7
DA:35,0
DA:36,7
DA:38,7
DA:39,7
DA:40,0
DA:41,7
DA:43,7
DA:44,7
DA:45,7
DA:47,7
DA:48,0
DA:49,7
DA:51,7
DA:52,7
DA:53,7
DA:54,7
DA:55,7
DA:56,7
DA:58,7
DA:59,7
DA:60,7
DA:61,7
DA:62,7
DA:63,7
DA:64,7
DA:65,7
DA:66,7
DA:67,7
DA:68,7
DA:70,7
DA:72,6
DA:73,6
DA:74,6
DA:75,6
DA:76,6
DA:77,6
DA:79,6
DA:80,6
DA:81,0
DA:83,0
DA:84,0
DA:85,0
DA:89,6
DA:90,6
DA:92,0
DA:93,0
DA:94,0
DA:95,0
DA:96,0
DA:97,0
DA:99,0
DA:100,0
DA:101,0
DA:104,0
DA:106,0
DA:107,0
DA:108,0
DA:110,0
DA:111,0
DA:112,0
DA:113,0
DA:115,0
DA:118,0
DA:119,0
DA:122,0
DA:124,0
DA:125,0
DA:126,0
DA:127,0
DA:128,0
DA:130,0
DA:131,0
DA:132,0
DA:133,0
DA:135,0
DA:136,0
DA:137,0
DA:138,0
DA:139,0
DA:140,0
DA:141,0
DA:143,0
DA:144,0
DA:145,0
DA:146,0
DA:149,0
DA:150,0
DA:152,0
DA:153,0
DA:154,0
DA:155,0
DA:156,0
DA:157,0
DA:158,0
DA:159,0
DA:161,0
DA:162,0
DA:163,0
DA:164,0
DA:165,0
DA:166,0
DA:167,0
DA:168,0
DA:170,9
DA:171,9
DA:172,9
DA:173,9
DA:174,9
DA:176,11
DA:177,11
DA:178,11
DA:179,0
DA:180,11
DA:182,11
DA:183,11
DA:184,11
DA:186,11
DA:187,2
DA:188,9
DA:192,9
DA:193,1
DA:194,8
DA:198,8
DA:199,9
DA:201,1142
DA:202,1142
DA:203,1142
DA:205,1220
DA:206,1220
DA:207,1220
DA:208,1220
DA:209,1220
DA:211,1220
DA:212,1220
DA:220,1220
DA:222,6
DA:223,0
DA:226,6
DA:227,6
DA:228,6
DA:230,6
DA:231,6
DA:232,6
DA:236,0
DA:237,0
DA:238,0
DA:244,1214
DA:245,0
DA:248,31
DA:249,1214
DA:251,31
DA:253,1183
DA:254,1183
DA:255,1183
DA:256,1183
DA:258,1183
DA:259,5
DA:261,1178
DA:262,1178
DA:263,1178
DA:264,1178
DA:267,1161
DA:268,1161
DA:269,1161
DA:270,1161
DA:272,1161
DA:273,1161
DA:274,1161
DA:275,1161
DA:276,1161
DA:277,1161
DA:278,1161
DA:279,1161
DA:280,1161
DA:281,1161
DA:286,1161
DA:287,60
DA:288,1101
DA:290,1161
DA:292,16
DA:293,16
DA:294,16
DA:296,1
DA:297,1
DA:299,0
DA:305,0
DA:306,0
DA:310,0
DA:311,0
DA:316,1220
DA:317,11
DA:318,11
DA:327,1209
DA:328,1209
DA:329,1209
DA:330,1209
DA:331,1209
DA:332,1209
DA:333,1209
DA:334,1209
DA:337,1220
DA:338,1220
DA:340,1214
DA:341,1214
DA:342,1214
DA:343,1214
DA:344,1214
DA:345,1214
DA:347,1214
DA:348,1214
DA:349,1214
DA:350,1214
DA:351,1214
DA:352,1214
DA:354,1214
DA:355,1214
DA:357,1214
DA:358,1214
DA:360,1214
DA:361,1203
DA:362,1198
DA:364,16
DA:365,0
DA:366,0
DA:367,0
DA:368,0
DA:370,0
DA:371,0
DA:372,16
DA:373,0
DA:374,16
DA:376,16
DA:377,16
DA:379,16
DA:381,16
DA:382,15
DA:383,15
DA:384,0
DA:385,0
DA:386,0
DA:387,0
DA:388,0
DA:389,0
DA:390,15
DA:392,15
DA:393,15
DA:394,15
DA:395,15
DA:396,15
DA:397,15
DA:398,15
DA:400,15
DA:401,15
DA:402,1
DA:404,16
DA:405,16
DA:406,16
DA:407,16
DA:408,16
DA:409,16
DA:410,0
DA:411,16
DA:413,16
DA:414,16
DA:415,16
DA:416,16
DA:418,1198
DA:420,1198
DA:422,13
DA:423,11
DA:424,2
DA:425,2
DA:429,11
DA:430,11
DA:431,11
DA:432,11
DA:433,11
DA:434,11
DA:435,11
DA:437,11
DA:438,11
DA:439,11
DA:440,11
DA:441,11
DA:442,11
DA:443,6
DA:444,5
DA:445,5
DA:446,4
DA:447,0
DA:451,4
DA:453,1
DA:454,0
DA:458,1
DA:460,1
DA:461,1
DA:462,1
DA:465,5
DA:466,5
DA:467,5
DA:468,5
DA:469,5
DA:470,5
DA:471,0
DA:472,5
DA:474,5
DA:478,6
DA:479,6
DA:480,6
DA:482,6
DA:483,0
DA:484,0
DA:485,0
DA:486,0
DA:487,6
DA:489,6
DA:490,6
DA:491,6
DA:492,6
DA:493,6
DA:494,6
DA:495,0
DA:496,6
DA:498,6
DA:499,6
DA:500,6
DA:501,6
DA:502,6
DA:503,6
DA:505,1185
DA:507,1185
DA:509,2
DA:510,2
DA:511,0
DA:512,0
DA:516,2
DA:517,1
DA:518,1
DA:519,1
DA:520,1
DA:521,1
DA:523,1
DA:524,1
DA:525,1
DA:527,1
DA:528,1
DA:529,1
DA:530,1
DA:531,1
DA:532,1
DA:533,0
DA:534,1
DA:536,1
DA:537,1
DA:538,1
DA:539,1
DA:541,1183
DA:543,1183
DA:545,1214
DA:547,11
DA:548,11
DA:549,11
DA:550,11
DA:551,11
DA:552,11
DA:553,11
DA:554,11
DA:555,11
DA:557,11
DA:558,11
DA:559,2
DA:560,9
DA:562,9
DA:563,0
DA:564,9
DA:565,0
DA:567,9
DA:568,6
DA:569,6
DA:571,6
DA:572,6
DA:573,6
DA:574,6
DA:576,6
DA:577,6
DA:578,6
DA:579,6
DA:580,6
DA:581,6
DA:583,6
DA:585,7
DA:586,7
DA:587,7
DA:588,7
DA:589,7
DA:590,7
DA:591,7
DA:592,7
DA:593,7
DA:594,7
DA:595,7
DA:596,7
DA:597,7
DA:598,7
DA:601,7
DA:602,0
DA:603,0
DA:604,0
DA:605,0
DA:606,0
DA:607,0
DA:610,0
DA:611,0
DA:612,0
DA:615,0
DA:616,0
DA:617,0
DA:618,0
DA:619,0
DA:620,7
DA:622,7
DA:623,7
DA:624,7
DA:626,6
DA:628,6
DA:630,6
DA:631,6
DA:632,6
DA:633,6
DA:634,6
DA:635,6
DA:636,6
DA:637,0
DA:638,0
DA:639,0
DA:640,0
DA:641,0
DA:642,0
DA:644,0
DA:645,0
DA:646,0
DA:650,0
DA:654,0
DA:657,0
DA:658,6
DA:660,6
DA:661,0
DA:662,0
DA:663,6
DA:665,6
DA:666,6
DA:670,0
DA:674,0
DA:678,6
DA:679,11
DA:681,9
DA:682,9
DA:683,9
DA:684,9
DA:685,9
DA:686,9
DA:687,9
DA:689,9
DA:691,9
DA:693,9
DA:694,9
DA:698,9
DA:699,9
DA:700,8
DA:701,8
DA:702,8
DA:703,8
DA:704,8
DA:705,1
DA:706,1
DA:707,0
DA:708,1
DA:710,1
DA:711,1
DA:712,1
DA:713,1
DA:714,1
DA:715,1
DA:716,1
DA:718,0
DA:721,9
DA:723,9
DA:724,8
DA:726,8
DA:727,8
DA:728,8
DA:730,8
DA:731,6
DA:732,5
DA:733,5
DA:734,6
DA:736,2
DA:737,2
DA:738,2
DA:739,0
DA:741,2
DA:742,2
DA:743,2
DA:746,8
DA:748,1
DA:749,1
DA:750,0
DA:752,1
DA:753,1
DA:754,1
DA:756,1
DA:757,1
DA:758,1
DA:760,1
DA:763,9
DA:765,9
DA:776,9
DA:777,9
DA:778,9
DA:779,9
DA:781,9
DA:782,9
DA:783,9
DA:784,9
DA:785,9
DA:786,9
DA:788,9
DA:790,11
DA:791,11
DA:792,11
DA:793,11
DA:794,11
DA:795,11
DA:796,11
DA:797,11
DA:798,11
DA:799,11
DA:800,11
DA:801,11
DA:802,11
DA:803,11
DA:804,11
DA:807,11
DA:808,3
DA:809,3
DA:810,0
DA:813,3
DA:814,3
DA:815,3
DA:816,3
DA:817,3
DA:818,8
DA:820,8
DA:823,6
DA:825,6
DA:829,0
DA:835,6
DA:837,9
BRF:0
BRH:0
LF:582
LH:433
end_of_record
SF:/Users/samcolak/Source Code/rust/distdb/distdb/server/src/core/app/control/isolation.rs
FN:109,_RNvMNtNtNtNtCsjRwMhjCpbZQ_6server4core3app7control9isolationNtNtB6_5state9ServerApp26execute_transactional_read
FN:15,_RNvMNtNtNtNtCsjRwMhjCpbZQ_6server4core3app7control9isolationNtNtB6_5state9ServerApp27detect_write_write_conflict
FN:238,_RNvMNtNtNtNtCsjRwMhjCpbZQ_6server4core3app7control9isolationNtNtB6_5state9ServerApp28seed_sandbox_wal_from_source
FN:300,_RNvMNtNtNtNtCsjRwMhjCpbZQ_6server4core3app7control9isolationNtNtB6_5state9ServerApp30record_simple_read_observation
FN:72,_RNvMNtNtNtNtCsjRwMhjCpbZQ_6server4core3app7control9isolationNtNtB6_5state9ServerApp31detect_predicate_read_conflicts
FN:267,_RNvMNtNtNtNtCsjRwMhjCpbZQ_6server4core3app7control9isolationNtNtB6_5state9ServerApp39seed_sandbox_wal_from_source_for_tables
FN:163,_RNCNvMNtNtNtNtCsjRwMhjCpbZQ_6server4core3app7control9isolationNtNtB8_5state9ServerApp26execute_transactional_read0Bc_
FN:170,_RNCNvMNtNtNtNtCsjRwMhjCpbZQ_6server4core3app7control9isolationNtNtB8_5state9ServerApp26execute_transactional_reads_0Bc_
FN:55,_RNCNvMNtNtNtNtCsjRwMhjCpbZQ_6server4core3app7control9isolationNtNtB8_5state9ServerApp27detect_write_write_conflict0Bc_
FN:254,_RNCNvMNtNtNtNtCsjRwMhjCpbZQ_6server4core3app7control9isolationNtNtB8_5state9ServerApp28seed_sandbox_wal_from_source0Bc_
FN:329,_RNCNvMNtNtNtNtCsjRwMhjCpbZQ_6server4core3app7control9isolationNtNtB8_5state9ServerApp30record_simple_read_observation0Bc_
FN:91,_RNCNvMNtNtNtNtCsjRwMhjCpbZQ_6server4core3app7control9isolationNtNtB8_5state9ServerApp31detect_predicate_read_conflicts0Bc_
FN:287,_RNCNvMNtNtNtNtCsjRwMhjCpbZQ_6server4core3app7control9isolationNtNtB8_5state9ServerApp39seed_sandbox_wal_from_source_for_tables0Bc_
FNDA:5,_RNvMNtNtNtNtCsjRwMhjCpbZQ_6server4core3app7control9isolationNtNtB6_5state9ServerApp26execute_transactional_read
FNDA:11,_RNvMNtNtNtNtCsjRwMhjCpbZQ_6server4core3app7control9isolationNtNtB6_5state9ServerApp27detect_write_write_conflict
FNDA:11,_RNvMNtNtNtNtCsjRwMhjCpbZQ_6server4core3app7control9isolationNtNtB6_5state9ServerApp28seed_sandbox_wal_from_source
FNDA:5,_RNvMNtNtNtNtCsjRwMhjCpbZQ_6server4core3app7control9isolationNtNtB6_5state9ServerApp30record_simple_read_observation
FNDA:9,_RNvMNtNtNtNtCsjRwMhjCpbZQ_6server4core3app7control9isolationNtNtB6_5state9ServerApp31detect_predicate_read_conflicts
FNDA:2,_RNvMNtNtNtNtCsjRwMhjCpbZQ_6server4core3app7control9isolationNtNtB6_5state9ServerApp39seed_sandbox_wal_from_source_for_tables
FNDA:5,_RNCNvMNtNtNtNtCsjRwMhjCpbZQ_6server4core3app7control9isolationNtNtB8_5state9ServerApp26execute_transactional_read0Bc_
FNDA:0,_RNCNvMNtNtNtNtCsjRwMhjCpbZQ_6server4core3app7control9isolationNtNtB8_5state9ServerApp26execute_transactional_reads_0Bc_
FNDA:0,_RNCNvMNtNtNtNtCsjRwMhjCpbZQ_6server4core3app7control9isolationNtNtB8_5state9ServerApp27detect_write_write_conflict0Bc_
FNDA:0,_RNCNvMNtNtNtNtCsjRwMhjCpbZQ_6server4core3app7control9isolationNtNtB8_5state9ServerApp28seed_sandbox_wal_from_source0Bc_
FNDA:1,_RNCNvMNtNtNtNtCsjRwMhjCpbZQ_6server4core3app7control9isolationNtNtB8_5state9ServerApp30record_simple_read_observation0Bc_
FNDA:0,_RNCNvMNtNtNtNtCsjRwMhjCpbZQ_6server4core3app7control9isolationNtNtB8_5state9ServerApp31detect_predicate_read_conflicts0Bc_
FNDA:0,_RNCNvMNtNtNtNtCsjRwMhjCpbZQ_6server4core3app7control9isolationNtNtB8_5state9ServerApp39seed_sandbox_wal_from_source_for_tables0Bc_
FNF:13
FNH:8
DA:15,11
DA:16,11
DA:17,11
DA:18,11
DA:19,11
DA:21,11
DA:23,13
DA:24,13
DA:25,0
DA:28,13
DA:29,13
DA:30,0
DA:33,0
DA:34,13
DA:38,13
DA:39,13
DA:40,13
DA:44,11
DA:45,11
DA:46,0
DA:49,11
DA:50,0
DA:53,11
DA:54,11
DA:55,11
DA:57,11
DA:59,11
DA:60,2
DA:61,2
DA:62,2
DA:63,2
DA:64,2
DA:65,9
DA:68,9
DA:70,11
DA:72,9
DA:73,9
DA:74,9
DA:75,9
DA:76,9
DA:78,9
DA:80,8
DA:81,1
DA:82,0
DA:85,1
DA:86,0
DA:89,1
DA:90,1
DA:91,1
DA:93,1
DA:94,1
DA:95,1
DA:97,1
DA:98,0
DA:99,0
DA:100,0
DA:101,0
DA:102,1
DA:105,8
DA:107,9
DA:109,5
DA:110,5
DA:111,5
DA:112,5
DA:113,5
DA:114,5
DA:116,5
DA:117,5
DA:118,0
DA:119,0
DA:124,5
DA:125,5
DA:126,5
DA:128,5
DA:129,5
DA:130,5
DA:131,5
DA:132,5
DA:133,0
DA:134,0
DA:135,0
DA:137,5
DA:139,5
DA:142,5
DA:143,5
DA:144,5
DA:146,0
DA:147,5
DA:149,0
DA:150,0
DA:151,0
DA:153,5
DA:155,5
DA:156,5
DA:157,5
DA:158,5
DA:160,5
DA:161,5
DA:162,5
DA:163,5
DA:164,5
DA:166,5
DA:168,5
DA:169,5
DA:170,5
DA:171,5
DA:173,5
DA:174,1
DA:175,1
DA:176,1
DA:177,1
DA:178,1
DA:179,1
DA:180,1
DA:181,1
DA:182,1
DA:183,1
DA:184,1
DA:185,1
DA:186,1
DA:189,1
DA:190,0
DA:191,0
DA:194,1
DA:197,5
DA:198,1
DA:199,1
DA:200,1
DA:201,1
DA:202,1
DA:203,1
DA:204,1
DA:206,0
DA:207,0
DA:208,0
DA:210,5
DA:212,5
DA:213,5
DA:214,5
DA:215,5
DA:216,5
DA:217,5
DA:218,5
DA:219,5
DA:220,5
DA:221,5
DA:224,5
DA:225,5
DA:226,5
DA:227,5
DA:228,5
DA:229,5
DA:230,5
DA:231,5
DA:232,5
DA:234,5
DA:236,5
DA:238,11
DA:239,11
DA:240,11
DA:241,11
DA:242,11
DA:243,11
DA:245,11
DA:247,10
DA:248,10
DA:249,10
DA:250,10
DA:251,10
DA:252,10
DA:253,10
DA:254,10
DA:255,0
DA:259,0
DA:263,11
DA:265,11
DA:267,2
DA:268,2
DA:269,2
DA:270,2
DA:271,2
DA:272,2
DA:273,2
DA:275,2
DA:276,2
DA:277,2
DA:278,0
DA:279,2
DA:281,2
DA:282,2
DA:283,2
DA:284,2
DA:285,2
DA:286,2
DA:287,2
DA:288,0
DA:292,0
DA:296,2
DA:298,2
DA:300,5
DA:301,5
DA:302,5
DA:303,5
DA:304,5
DA:305,5
DA:306,5
DA:307,5
DA:309,5
DA:310,0
DA:313,5
DA:314,0
DA:315,5
DA:320,5
DA:322,5
DA:323,5
DA:324,5
DA:325,5
DA:327,5
DA:328,5
DA:329,5
DA:331,1
DA:332,1
DA:333,4
DA:335,4
DA:336,4
DA:337,4
DA:338,4
DA:339,4
DA:341,5
BRF:0
BRH:0
LF:238
LH:199
end_of_record
SF:/Users/samcolak/Source Code/rust/distdb/distdb/server/src/core/app/control/wal.rs
FN:79,_RNCNvMNtNtNtNtCsjRwMhjCpbZQ_6server4core3app7control3walNtNtB8_5state9ServerApp15copy_wal_stream0Bc_
FN:71,_RNvMNtNtNtNtCsjRwMhjCpbZQ_6server4core3app7control3walNtNtB6_5state9ServerApp15copy_wal_stream
FN:11,_RNvMNtNtNtNtCsjRwMhjCpbZQ_6server4core3app7control3walNtNtB6_5state9ServerApp16seed_sandbox_wal
FN:136,_RNvMNtNtNtNtCsjRwMhjCpbZQ_6server4core3app7control3walNtNtB6_5state9ServerApp18import_wal_records
FN:229,_RNvMNtNtNtNtCsjRwMhjCpbZQ_6server4core3app7control3walNtNtB6_5state9ServerApp24append_session_tx_marker
FN:203,_RNvMNtNtNtNtCsjRwMhjCpbZQ_6server4core3app7control3walNtNtB6_5state9ServerApp28rollback_session_transaction
FN:84,_RNvMNtNtNtNtCsjRwMhjCpbZQ_6server4core3app7control3walNtNtB6_5state9ServerApp31export_wal_records_for_database
FN:33,_RNvMNtNtNtNtCsjRwMhjCpbZQ_6server4core3app7control3walNtNtB6_5state9ServerApp32seed_table_stream_from_live_rows
FN:184,_RNCNCNvMNtNtNtNtCsjRwMhjCpbZQ_6server4core3app7control3walNtNtBa_5state9ServerApp18import_wal_records00Be_
FN:130,_RNCNCNvMNtNtNtNtCsjRwMhjCpbZQ_6server4core3app7control3walNtNtBa_5state9ServerApp31export_wal_records_for_databases1_00Be_
FN:20,_RNCNvMNtNtNtNtCsjRwMhjCpbZQ_6server4core3app7control3walNtNtB8_5state9ServerApp16seed_sandbox_wal0Bc_
FN:143,_RNCNvMNtNtNtNtCsjRwMhjCpbZQ_6server4core3app7control3walNtNtB8_5state9ServerApp18import_wal_records0Bc_
FN:92,_RNCNvMNtNtNtNtCsjRwMhjCpbZQ_6server4core3app7control3walNtNtB8_5state9ServerApp31export_wal_records_for_database0Bc_
FN:127,_RNCNvMNtNtNtNtCsjRwMhjCpbZQ_6server4core3app7control3walNtNtB8_5state9ServerApp31export_wal_records_for_databases1_0Bc_
FN:103,_RNCNvMNtNtNtNtCsjRwMhjCpbZQ_6server4core3app7control3walNtNtB8_5state9ServerApp31export_wal_records_for_databases_0Bc_
FN:53,_RNCNvMNtNtNtNtCsjRwMhjCpbZQ_6server4core3app7control3walNtNtB8_5state9ServerApp32seed_table_stream_from_live_rows0Bc_
FN:68,_RNCNvMNtNtNtNtCsjRwMhjCpbZQ_6server4core3app7control3walNtNtB8_5state9ServerApp32seed_table_stream_from_live_rowss_0Bc_
FNDA:0,_RNCNvMNtNtNtNtCsjRwMhjCpbZQ_6server4core3app7control3walNtNtB8_5state9ServerApp15copy_wal_stream0Bc_
FNDA:0,_RNvMNtNtNtNtCsjRwMhjCpbZQ_6server4core3app7control3walNtNtB6_5state9ServerApp15copy_wal_stream
FNDA:15,_RNvMNtNtNtNtCsjRwMhjCpbZQ_6server4core3app7control3walNtNtB6_5state9ServerApp16seed_sandbox_wal
FNDA:1,_RNvMNtNtNtNtCsjRwMhjCpbZQ_6server4core3app7control3walNtNtB6_5state9ServerApp18import_wal_records
FNDA:29,_RNvMNtNtNtNtCsjRwMhjCpbZQ_6server4core3app7control3walNtNtB6_5state9ServerApp24append_session_tx_marker
FNDA:1,_RNvMNtNtNtNtCsjRwMhjCpbZQ_6server4core3app7control3walNtNtB6_5state9ServerApp28rollback_session_transaction
FNDA:1,_RNvMNtNtNtNtCsjRwMhjCpbZQ_6server4core3app7control3walNtNtB6_5state9ServerApp31export_wal_records_for_database
FNDA:13,_RNvMNtNtNtNtCsjRwMhjCpbZQ_6server4core3app7control3walNtNtB6_5state9ServerApp32seed_table_stream_from_live_rows
FNDA:0,_RNCNCNvMNtNtNtNtCsjRwMhjCpbZQ_6server4core3app7control3walNtNtBa_5state9ServerApp18import_wal_records00Be_
FNDA:0,_RNCNCNvMNtNtNtNtCsjRwMhjCpbZQ_6server4core3app7control3walNtNtBa_5state9ServerApp31export_wal_records_for_databases1_00Be_
FNDA:0,_RNCNvMNtNtNtNtCsjRwMhjCpbZQ_6server4core3app7control3walNtNtB8_5state9ServerApp16seed_sandbox_wal0Bc_
FNDA:1,_RNCNvMNtNtNtNtCsjRwMhjCpbZQ_6server4core3app7control3walNtNtB8_5state9ServerApp18import_wal_records0Bc_
FNDA:0,_RNCNvMNtNtNtNtCsjRwMhjCpbZQ_6server4core3app7control3walNtNtB8_5state9ServerApp31export_wal_records_for_database0Bc_
FNDA:0,_RNCNvMNtNtNtNtCsjRwMhjCpbZQ_6server4core3app7control3walNtNtB8_5state9ServerApp31export_wal_records_for_databases1_0Bc_
FNDA:2,_RNCNvMNtNtNtNtCsjRwMhjCpbZQ_6server4core3app7control3walNtNtB8_5state9ServerApp31export_wal_records_for_databases_0Bc_
FNDA:0,_RNCNvMNtNtNtNtCsjRwMhjCpbZQ_6server4core3app7control3walNtNtB8_5state9ServerApp32seed_table_stream_from_live_rows0Bc_
FNDA:0,_RNCNvMNtNtNtNtCsjRwMhjCpbZQ_6server4core3app7control3walNtNtB8_5state9ServerApp32seed_table_stream_from_live_rowss_0Bc_
FNF:17
FNH:8
DA:11,15
DA:12,15
DA:13,13
DA:14,13
DA:15,0
DA:18,13
DA:19,13
DA:20,13
DA:22,13
DA:23,13
DA:24,13
DA:25,13
DA:26,0
DA:30,15
DA:31,15
DA:33,13
DA:34,13
DA:35,13
DA:36,13
DA:37,13
DA:38,13
DA:39,13
DA:40,0
DA:41,13
DA:43,13
DA:44,13
DA:45,7
DA:46,6
DA:48,6
DA:49,6
DA:51,8
DA:52,8
DA:53,8
DA:55,8
DA:56,8
DA:57,8
DA:58,8
DA:59,8
DA:60,8
DA:61,8
DA:62,8
DA:66,6
DA:67,6
DA:68,6
DA:69,13
DA:71,0
DA:72,0
DA:73,0
DA:74,0
DA:76,0
DA:77,0
DA:78,0
DA:79,0
DA:81,0
DA:82,0
DA:84,1
DA:85,1
DA:86,1
DA:87,1
DA:88,1
DA:89,1
DA:90,1
DA:91,1
DA:92,1
DA:94,1
DA:95,0
DA:98,1
DA:99,1
DA:100,1
DA:101,1
DA:102,1
DA:103,2
DA:104,2
DA:105,2
DA:106,2
DA:107,2
DA:110,1
DA:111,3
DA:112,3
DA:113,0
DA:114,3
DA:116,3
DA:117,3
DA:118,0
DA:120,3
DA:121,3
DA:122,3
DA:123,1
DA:124,1
DA:127,1
DA:128,0
DA:129,0
DA:130,0
DA:131,0
DA:133,1
DA:134,1
DA:136,1
DA:137,1
DA:138,1
DA:139,1
DA:140,1
DA:141,1
DA:143,1
DA:144,1
DA:146,1
DA:148,1
DA:149,1
DA:150,1
DA:152,0
DA:153,1
DA:155,1
DA:157,1
DA:158,1
DA:159,1
DA:161,0
DA:163,0
DA:166,0
DA:167,0
DA:168,0
DA:169,0
DA:170,0
DA:171,0
DA:178,1
DA:179,0
DA:180,1
DA:183,1
DA:184,1
DA:185,1
DA:186,1
DA:188,1
DA:191,1
DA:193,1
DA:194,0
DA:195,0
DA:197,0
DA:198,0
DA:199,1
DA:201,1
DA:203,1
DA:205,1
DA:206,1
DA:207,1
DA:208,1
DA:210,1
DA:211,1
DA:212,1
DA:213,1
DA:215,1
DA:216,1
DA:217,1
DA:218,1
DA:219,1
DA:220,1
DA:221,0
DA:222,1
DA:223,0
DA:225,1
DA:227,1
DA:229,29
DA:230,29
DA:231,29
DA:232,29
DA:233,29
DA:234,29
DA:235,29
DA:237,29
DA:241,0
DA:245,29
DA:246,29
BRF:0
BRH:0
LF:179
LH:134
end_of_record
SF:/Users/samcolak/Source Code/rust/distdb/distdb/server/src/core/app/helpers.rs
FN:13,_RNvMNtNtNtCsjRwMhjCpbZQ_6server4core3app7helpersNtB2_19SessionTxMarkerType6as_str
FN:71,_RNvNtNtNtCsjRwMhjCpbZQ_6server4core3app7helpers12command_info
FN:24,_RNvNtNtNtCsjRwMhjCpbZQ_6server4core3app7helpers19is_staged_dml_query
FN:43,_RNvNtNtNtCsjRwMhjCpbZQ_6server4core3app7helpers27is_transactional_read_query
FNDA:0,_RNvMNtNtNtCsjRwMhjCpbZQ_6server4core3app7helpersNtB2_19SessionTxMarkerType6as_str
FNDA:1220,_RNvNtNtNtCsjRwMhjCpbZQ_6server4core3app7helpers12command_info
FNDA:1178,_RNvNtNtNtCsjRwMhjCpbZQ_6server4core3app7helpers19is_staged_dml_query
FNDA:22,_RNvNtNtNtCsjRwMhjCpbZQ_6server4core3app7helpers27is_transactional_read_query
FNF:4
FNH:3
DA:13,0
DA:14,0
DA:15,0
DA:16,0
DA:17,0
DA:18,0
DA:19,0
DA:21,0
DA:24,1178
DA:26,1178
DA:27,1
DA:30,1177
DA:31,0
DA:32,1177
DA:34,1095
DA:35,1177
DA:41,1178
DA:43,22
DA:45,22
DA:46,0
DA:49,22
DA:50,0
DA:51,22
DA:53,22
DA:55,22
DA:71,1220
DA:73,1220
DA:75,6
DA:76,6
DA:77,6
DA:78,6
DA:80,1214
DA:81,1214
DA:82,1214
DA:83,1214
DA:86,0
DA:87,0
DA:90,0
DA:92,0
DA:93,0
DA:96,0
DA:97,0
DA:100,0
DA:101,0
DA:106,0
DA:107,0
DA:108,0
DA:109,0
DA:113,0
DA:114,0
DA:117,0
DA:119,0
DA:120,0
DA:123,0
DA:124,0
DA:127,0
DA:128,0
DA:133,0
DA:134,0
DA:135,0
DA:136,0
DA:141,1220
BRF:0
BRH:0
LF:62
LH:25
end_of_record
SF:/Users/samcolak/Source Code/rust/distdb/distdb/server/src/core/app/lifecycle.rs
FN:18,_RNCNvMNtNtNtCsjRwMhjCpbZQ_6server4core3app9lifecycleNtNtB6_5state9ServerApp8shutdown0Ba_
FN:13,_RNvMNtNtNtCsjRwMhjCpbZQ_6server4core3app9lifecycleNtNtB4_5state9ServerApp8shutdown
FN:22,_RNvMNtNtNtCsjRwMhjCpbZQ_6server4core3app9lifecycleNtNtB4_5state9ServerApp23load_catalogs_from_disk
FN:107,_RNvMNtNtNtCsjRwMhjCpbZQ_6server4core3app9lifecycleNtNtB4_5state9ServerApp29replay_catalog_state_from_wal
FN:27,_RNCNvMNtNtNtCsjRwMhjCpbZQ_6server4core3app9lifecycleNtNtB6_5state9ServerApp23load_catalogs_from_disk0Ba_
FN:42,_RNCNvMNtNtNtCsjRwMhjCpbZQ_6server4core3app9lifecycleNtNtB6_5state9ServerApp23load_catalogs_from_disks0_0Ba_
FN:43,_RNCNvMNtNtNtCsjRwMhjCpbZQ_6server4core3app9lifecycleNtNtB6_5state9ServerApp23load_catalogs_from_disks1_0Ba_
FN:71,_RNCNvMNtNtNtCsjRwMhjCpbZQ_6server4core3app9lifecycleNtNtB6_5state9ServerApp23load_catalogs_from_disks2_0Ba_
FN:75,_RNCNvMNtNtNtCsjRwMhjCpbZQ_6server4core3app9lifecycleNtNtB6_5state9ServerApp23load_catalogs_from_disks3_0Ba_
FN:82,_RNCNvMNtNtNtCsjRwMhjCpbZQ_6server4core3app9lifecycleNtNtB6_5state9ServerApp23load_catalogs_from_disks4_0Ba_
FN:33,_RNCNvMNtNtNtCsjRwMhjCpbZQ_6server4core3app9lifecycleNtNtB6_5state9ServerApp23load_catalogs_from_disks_0Ba_
FN:119,_RNCNvMNtNtNtCsjRwMhjCpbZQ_6server4core3app9lifecycleNtNtB6_5state9ServerApp29replay_catalog_state_from_wal0Ba_
FN:147,_RNCNvMNtNtNtCsjRwMhjCpbZQ_6server4core3app9lifecycleNtNtB6_5state9ServerApp29replay_catalog_state_from_wals_0Ba_
FNDA:0,_RNCNvMNtNtNtCsjRwMhjCpbZQ_6server4core3app9lifecycleNtNtB6_5state9ServerApp8shutdown0Ba_
FNDA:0,_RNvMNtNtNtCsjRwMhjCpbZQ_6server4core3app9lifecycleNtNtB4_5state9ServerApp8shutdown
FNDA:2,_RNvMNtNtNtCsjRwMhjCpbZQ_6server4core3app9lifecycleNtNtB4_5state9ServerApp23load_catalogs_from_disk
FNDA:3,_RNvMNtNtNtCsjRwMhjCpbZQ_6server4core3app9lifecycleNtNtB4_5state9ServerApp29replay_catalog_state_from_wal
FNDA:0,_RNCNvMNtNtNtCsjRwMhjCpbZQ_6server4core3app9lifecycleNtNtB6_5state9ServerApp23load_catalogs_from_disk0Ba_
FNDA:2,_RNCNvMNtNtNtCsjRwMhjCpbZQ_6server4core3app9lifecycleNtNtB6_5state9ServerApp23load_catalogs_from_disks0_0Ba_
FNDA:0,_RNCNvMNtNtNtCsjRwMhjCpbZQ_6server4core3app9lifecycleNtNtB6_5state9ServerApp23load_catalogs_from_disks1_0Ba_
FNDA:2,_RNCNvMNtNtNtCsjRwMhjCpbZQ_6server4core3app9lifecycleNtNtB6_5state9ServerApp23load_catalogs_from_disks2_0Ba_
FNDA:2,_RNCNvMNtNtNtCsjRwMhjCpbZQ_6server4core3app9lifecycleNtNtB6_5state9ServerApp23load_catalogs_from_disks3_0Ba_
FNDA:0,_RNCNvMNtNtNtCsjRwMhjCpbZQ_6server4core3app9lifecycleNtNtB6_5state9ServerApp23load_catalogs_from_disks4_0Ba_
FNDA:4,_RNCNvMNtNtNtCsjRwMhjCpbZQ_6server4core3app9lifecycleNtNtB6_5state9ServerApp23load_catalogs_from_disks_0Ba_
FNDA:0,_RNCNvMNtNtNtCsjRwMhjCpbZQ_6server4core3app9lifecycleNtNtB6_5state9ServerApp29replay_catalog_state_from_wal0Ba_
FNDA:5,_RNCNvMNtNtNtCsjRwMhjCpbZQ_6server4core3app9lifecycleNtNtB6_5state9ServerApp29replay_catalog_state_from_wals_0Ba_
FNF:13
FNH:7
DA:13,0
DA:15,0
DA:16,0
DA:17,0
DA:18,0
DA:20,0
DA:22,2
DA:24,2
DA:26,2
DA:27,2
DA:29,4
DA:31,4
DA:32,4
DA:33,4
DA:34,4
DA:36,4
DA:37,2
DA:38,2
DA:40,2
DA:41,2
DA:42,2
DA:43,2
DA:45,2
DA:46,2
DA:48,0
DA:50,0
DA:52,0
DA:56,2
DA:57,2
DA:59,0
DA:61,0
DA:64,2
DA:68,2
DA:69,2
DA:70,2
DA:71,2
DA:72,2
DA:73,2
DA:74,2
DA:75,2
DA:77,2
DA:78,2
DA:79,2
DA:80,2
DA:82,2
DA:83,0
DA:84,0
DA:85,0
DA:86,0
DA:87,0
DA:88,0
DA:90,2
DA:95,2
DA:97,0
DA:103,2
DA:105,2
DA:107,3
DA:109,3
DA:110,3
DA:112,5
DA:114,5
DA:116,5
DA:117,5
DA:118,5
DA:119,5
DA:121,5
DA:123,5
DA:125,5
DA:126,3
DA:131,0
DA:133,2
DA:134,0
DA:138,0
DA:140,2
DA:144,3
DA:145,3
DA:146,3
DA:147,5
DA:148,3
DA:150,3
DA:152,0
DA:155,0
DA:158,3
DA:160,3
BRF:0
BRH:0
LF:95
LH:66
end_of_record
SF:/Users/samcolak/Source Code/rust/distdb/distdb/server/src/core/app/state.rs
FN:181,_RNCNvMNtNtNtCsjRwMhjCpbZQ_6server4core3app5stateNtB4_9ServerApp18run_wal_smoke_test0Ba_
FN:177,_RNvMNtNtNtCsjRwMhjCpbZQ_6server4core3app5stateNtB2_9ServerApp18run_wal_smoke_test
FN:147,_RNvMNtNtNtCsjRwMhjCpbZQ_6server4core3app5stateNtB2_9ServerApp7node_id
FN:167,_RNvMNtNtNtCsjRwMhjCpbZQ_6server4core3app5stateNtB2_9ServerApp11get_session
FN:155,_RNvMNtNtNtCsjRwMhjCpbZQ_6server4core3app5stateNtB2_9ServerApp12init_session
FN:143,_RNvMNtNtNtCsjRwMhjCpbZQ_6server4core3app5stateNtB2_9ServerApp13node_data_dir
FN:171,_RNvMNtNtNtCsjRwMhjCpbZQ_6server4core3app5stateNtB2_9ServerApp18set_last_insert_id
FN:51,_RNvMNtNtNtCsjRwMhjCpbZQ_6server4core3app5stateNtB2_9ServerApp3new
FN:151,_RNvMNtNtNtCsjRwMhjCpbZQ_6server4core3app5stateNtB2_9ServerApp8catalogs
FN:89,_RNvMNtNtNtCsjRwMhjCpbZQ_6server4core3app5stateNtB2_9ServerApp9bootstrap
FN:57,_RNCNvMNtNtNtCsjRwMhjCpbZQ_6server4core3app5stateNtB4_9ServerApp3new0Ba_
FN:61,_RNCNvMNtNtNtCsjRwMhjCpbZQ_6server4core3app5stateNtB4_9ServerApp3news_0Ba_
FN:105,_RNCNvMNtNtNtCsjRwMhjCpbZQ_6server4core3app5stateNtB4_9ServerApp9bootstrap0Ba_
FN:124,_RNCNvMNtNtNtCsjRwMhjCpbZQ_6server4core3app5stateNtB4_9ServerApp9bootstraps0_0Ba_
FN:114,_RNCNvMNtNtNtCsjRwMhjCpbZQ_6server4core3app5stateNtB4_9ServerApp9bootstraps_0Ba_
FNDA:0,_RNCNvMNtNtNtCsjRwMhjCpbZQ_6server4core3app5stateNtB4_9ServerApp18run_wal_smoke_test0Ba_
FNDA:0,_RNvMNtNtNtCsjRwMhjCpbZQ_6server4core3app5stateNtB2_9ServerApp18run_wal_smoke_test
FNDA:0,_RNvMNtNtNtCsjRwMhjCpbZQ_6server4core3app5stateNtB2_9ServerApp7node_id
FNDA:1188,_RNvMNtNtNtCsjRwMhjCpbZQ_6server4core3app5stateNtB2_9ServerApp11get_session
FNDA:3,_RNvMNtNtNtCsjRwMhjCpbZQ_6server4core3app5stateNtB2_9ServerApp12init_session
FNDA:0,_RNvMNtNtNtCsjRwMhjCpbZQ_6server4core3app5stateNtB2_9ServerApp13node_data_dir
FNDA:60,_RNvMNtNtNtCsjRwMhjCpbZQ_6server4core3app5stateNtB2_9ServerApp18set_last_insert_id
FNDA:59,_RNvMNtNtNtCsjRwMhjCpbZQ_6server4core3app5stateNtB2_9ServerApp3new
FNDA:4,_RNvMNtNtNtCsjRwMhjCpbZQ_6server4core3app5stateNtB2_9ServerApp8catalogs
FNDA:2,_RNvMNtNtNtCsjRwMhjCpbZQ_6server4core3app5stateNtB2_9ServerApp9bootstrap
FNDA:0,_RNCNvMNtNtNtCsjRwMhjCpbZQ_6server4core3app5stateNtB4_9ServerApp3new0Ba_
FNDA:0,_RNCNvMNtNtNtCsjRwMhjCpbZQ_6server4core3app5stateNtB4_9ServerApp3news_0Ba_
FNDA:0,_RNCNvMNtNtNtCsjRwMhjCpbZQ_6server4core3app5stateNtB4_9ServerApp9bootstrap0Ba_
FNDA:4,_RNCNvMNtNtNtCsjRwMhjCpbZQ_6server4core3app5stateNtB4_9ServerApp9bootstraps0_0Ba_
FNDA:0,_RNCNvMNtNtNtCsjRwMhjCpbZQ_6server4core3app5stateNtB4_9ServerApp9bootstraps_0Ba_
FNF:15
FNH:7
DA:51,59
DA:53,59
DA:55,59
DA:56,59
DA:57,59
DA:59,59
DA:61,59
DA:62,0
DA:63,0
DA:64,0
DA:65,0
DA:66,0
DA:67,0
DA:69,59
DA:71,59
DA:72,59
DA:74,59
DA:75,59
DA:76,59
DA:77,59
DA:78,59
DA:79,59
DA:80,59
DA:81,59
DA:82,59
DA:83,59
DA:84,59
DA:85,59
DA:87,59
DA:89,2
DA:91,2
DA:93,2
DA:94,2
DA:95,2
DA:97,2
DA:98,2
DA:99,2
DA:101,2
DA:102,4
DA:103,4
DA:104,4
DA:105,4
DA:108,2
DA:109,2
DA:111,4
DA:112,4
DA:113,4
DA:114,4
DA:117,2
DA:119,2
DA:121,2
DA:122,2
DA:123,2
DA:124,4
DA:125,2
DA:127,2
DA:130,0
DA:131,0
DA:139,2
DA:141,2
DA:143,0
DA:144,0
DA:145,0
DA:147,0
DA:148,0
DA:149,0
DA:151,4
DA:152,4
DA:153,4
DA:155,3
DA:156,3
DA:157,3
DA:158,3
DA:159,3
DA:160,3
DA:161,3
DA:162,3
DA:163,3
DA:165,3
DA:167,1188
DA:168,1188
DA:169,1188
DA:171,60
DA:172,60
DA:173,6
DA:174,54
DA:175,60
DA:177,0
DA:180,0
DA:181,0
DA:182,0
BRF:0
BRH:0
LF:98
LH:74
end_of_record
SF:/Users/samcolak/Source Code/rust/distdb/distdb/server/src/core/config.rs
FN:43,_RINvMNtNtCsjRwMhjCpbZQ_6server4core6configNtB3_19ServerRuntimeConfig30default_local_with_listen_addrpEB7_
FN:28,_RNvMNtNtCsjRwMhjCpbZQ_6server4core6configNtB2_19ServerRuntimeConfig13default_local
FN:57,_RNvMNtNtCsjRwMhjCpbZQ_6server4core6configNtB2_19ServerRuntimeConfig14to_node_config
FN:32,_RNvMNtNtCsjRwMhjCpbZQ_6server4core6configNtB2_19ServerRuntimeConfig27default_local_with_data_dir
FN:74,_RNvNtNtNtCsjRwMhjCpbZQ_6server4core6config5testss_39default_local_listens_on_all_interfaces
FNDA:0,_RINvMNtNtCsjRwMhjCpbZQ_6server4core6configNtB3_19ServerRuntimeConfig30default_local_with_listen_addrpEB7_
FNDA:1,_RNvMNtNtCsjRwMhjCpbZQ_6server4core6configNtB2_19ServerRuntimeConfig13default_local
FNDA:59,_RNvMNtNtCsjRwMhjCpbZQ_6server4core6configNtB2_19ServerRuntimeConfig14to_node_config
FNDA:60,_RNvMNtNtCsjRwMhjCpbZQ_6server4core6configNtB2_19ServerRuntimeConfig27default_local_with_data_dir
FNDA:1,_RNvNtNtNtCsjRwMhjCpbZQ_6server4core6config5testss_39default_local_listens_on_all_interfaces
FNF:5
FNH:4
DA:28,1
DA:29,1
DA:30,1
DA:32,60
DA:33,60
DA:34,60
DA:35,60
DA:36,60
DA:37,60
DA:38,60
DA:39,60
DA:40,60
DA:41,60
DA:43,0
DA:44,0
DA:45,0
DA:46,0
DA:47,0
DA:48,0
DA:49,0
DA:50,0
DA:51,0
DA:52,0
DA:53,0
DA:54,0
DA:55,0
DA:57,59
DA:58,59
DA:59,59
DA:60,59
DA:61,59
DA:62,59
DA:63,59
DA:64,59
DA:74,1
DA:75,1
DA:77,1
DA:78,1
DA:80,1
DA:82,1
DA:83,1
DA:84,1
BRF:0
BRH:0
LF:42
LH:29
end_of_record
SF:/Users/samcolak/Source Code/rust/distdb/distdb/server/src/core/control/affinity.rs
FN:103,_RNCNCNvNtNtNtCsjRwMhjCpbZQ_6server4core7control8affinity27parse_server_list_from_argss_00Bb_
FN:104,_RNCNCNvNtNtNtCsjRwMhjCpbZQ_6server4core7control8affinity27parse_server_list_from_argss_0s_0Bb_
FN:489,_RNCNvNtNtNtCsjRwMhjCpbZQ_6server4core7control8affinity10now_millis0B9_
FN:100,_RNCNvNtNtNtCsjRwMhjCpbZQ_6server4core7control8affinity27parse_server_list_from_args0B9_
FN:101,_RNCNvNtNtNtCsjRwMhjCpbZQ_6server4core7control8affinity27parse_server_list_from_argss_0B9_
FN:124,_RNCNvNtNtNtCsjRwMhjCpbZQ_6server4core7control8affinity29parse_affinity_startup_config0B9_
FN:160,_RNCNvNtNtNtCsjRwMhjCpbZQ_6server4core7control8affinity32build_affinity_document_snapshot0B9_
FN:93,_RNCNvNtNvNtNtNtCsjRwMhjCpbZQ_6server4core7control8affinity27parse_server_list_from_args5testss_68build_affinity_document_snapshot_includes_local_and_discovered_nodes0Bd_
FN:94,_RNCNvNtNvNtNtNtCsjRwMhjCpbZQ_6server4core7control8affinity27parse_server_list_from_args5testss_68build_affinity_document_snapshot_includes_local_and_discovered_nodess_0Bd_
FN:486,_RNvNtNtNtCsjRwMhjCpbZQ_6server4core7control8affinity10now_millis
FN:27,_RNvNtNtNtCsjRwMhjCpbZQ_6server4core7control8affinity27parse_server_list_from_args
FN:120,_RNvNtNtNtCsjRwMhjCpbZQ_6server4core7control8affinity29parse_affinity_startup_config
FN:340,_RNvNtNtNtCsjRwMhjCpbZQ_6server4core7control8affinity30execute_affinity_join_sequence
FN:151,_RNvNtNtNtCsjRwMhjCpbZQ_6server4core7control8affinity32build_affinity_document_snapshot
FN:400,_RNvNtNtNtCsjRwMhjCpbZQ_6server4core7control8affinity36initialize_affinity_with_persistence
FN:35,_RNvNtNvNtNtNtCsjRwMhjCpbZQ_6server4core7control8affinity27parse_server_list_from_args5testss_49parse_server_list_from_args_dedups_and_normalizes
FN:53,_RNvNtNvNtNtNtCsjRwMhjCpbZQ_6server4core7control8affinity27parse_server_list_from_args5testss_55parse_affinity_startup_config_parses_key_colon_password
FN:71,_RNvNtNvNtNtNtCsjRwMhjCpbZQ_6server4core7control8affinity27parse_server_list_from_args5testss_68build_affinity_document_snapshot_includes_local_and_discovered_nodes
FN:220,_RNvNtNtNtCsjRwMhjCpbZQ_6server4core7control8affinity27send_affinity_join_requests
FN:308,_RNvNtNtNtCsjRwMhjCpbZQ_6server4core7control8affinity39merge_affinity_documents_from_responses
FN:193,_RNvNtNtNtCsjRwMhjCpbZQ_6server4core7control8affinity40build_database_schema_summaries_from_app
FN:346,_RNCNvNtNtNtCsjRwMhjCpbZQ_6server4core7control8affinity30execute_affinity_join_sequence0B9_
FN:197,_RNCNvNtNtNtCsjRwMhjCpbZQ_6server4core7control8affinity40build_database_schema_summaries_from_app0B9_
FN:216,_RNCNvNtNtNtCsjRwMhjCpbZQ_6server4core7control8affinity40build_database_schema_summaries_from_apps_0B9_
FNDA:0,_RNCNCNvNtNtNtCsjRwMhjCpbZQ_6server4core7control8affinity27parse_server_list_from_argss_00Bb_
FNDA:0,_RNCNCNvNtNtNtCsjRwMhjCpbZQ_6server4core7control8affinity27parse_server_list_from_argss_0s_0Bb_
FNDA:0,_RNCNvNtNtNtCsjRwMhjCpbZQ_6server4core7control8affinity10now_millis0B9_
FNDA:0,_RNCNvNtNtNtCsjRwMhjCpbZQ_6server4core7control8affinity27parse_server_list_from_args0B9_
FNDA:0,_RNCNvNtNtNtCsjRwMhjCpbZQ_6server4core7control8affinity27parse_server_list_from_argss_0B9_
FNDA:0,_RNCNvNtNtNtCsjRwMhjCpbZQ_6server4core7control8affinity29parse_affinity_startup_config0B9_
FNDA:0,_RNCNvNtNtNtCsjRwMhjCpbZQ_6server4core7control8affinity32build_affinity_document_snapshot0B9_
FNDA:0,_RNCNvNtNvNtNtNtCsjRwMhjCpbZQ_6server4core7control8affinity27parse_server_list_from_args5testss_68build_affinity_document_snapshot_includes_local_and_discovered_nodes0Bd_
FNDA:0,_RNCNvNtNvNtNtNtCsjRwMhjCpbZQ_6server4core7control8affinity27parse_server_list_from_args5testss_68build_affinity_document_snapshot_includes_local_and_discovered_nodess_0Bd_
FNDA:0,_RNvNtNtNtCsjRwMhjCpbZQ_6server4core7control8affinity10now_millis
FNDA:0,_RNvNtNtNtCsjRwMhjCpbZQ_6server4core7control8affinity27parse_server_list_from_args
FNDA:0,_RNvNtNtNtCsjRwMhjCpbZQ_6server4core7control8affinity29parse_affinity_startup_config
FNDA:0,_RNvNtNtNtCsjRwMhjCpbZQ_6server4core7control8affinity30execute_affinity_join_sequence
FNDA:0,_RNvNtNtNtCsjRwMhjCpbZQ_6server4core7control8affinity32build_affinity_document_snapshot
FNDA:0,_RNvNtNtNtCsjRwMhjCpbZQ_6server4core7control8affinity36initialize_affinity_with_persistence
FNDA:0,_RNvNtNvNtNtNtCsjRwMhjCpbZQ_6server4core7control8affinity27parse_server_list_from_args5testss_49parse_server_list_from_args_dedups_and_normalizes
FNDA:0,_RNvNtNvNtNtNtCsjRwMhjCpbZQ_6server4core7control8affinity27parse_server_list_from_args5testss_55parse_affinity_startup_config_parses_key_colon_password
FNDA:0,_RNvNtNvNtNtNtCsjRwMhjCpbZQ_6server4core7control8affinity27parse_server_list_from_args5testss_68build_affinity_document_snapshot_includes_local_and_discovered_nodes
FNDA:0,_RNvNtNtNtCsjRwMhjCpbZQ_6server4core7control8affinity27send_affinity_join_requests
FNDA:0,_RNvNtNtNtCsjRwMhjCpbZQ_6server4core7control8affinity39merge_affinity_documents_from_responses
FNDA:0,_RNvNtNtNtCsjRwMhjCpbZQ_6server4core7control8affinity40build_database_schema_summaries_from_app
FNDA:0,_RNCNvNtNtNtCsjRwMhjCpbZQ_6server4core7control8affinity30execute_affinity_join_sequence0B9_
FNDA:0,_RNCNvNtNtNtCsjRwMhjCpbZQ_6server4core7control8affinity40build_database_schema_summaries_from_app0B9_
FNDA:0,_RNCNvNtNtNtCsjRwMhjCpbZQ_6server4core7control8affinity40build_database_schema_summaries_from_apps_0B9_
FNF:24
FNH:0
DA:27,0
DA:35,0
DA:36,0
DA:37,0
DA:38,0
DA:41,0
DA:43,0
DA:45,0
DA:46,0
DA:47,0
DA:50,0
DA:53,0
DA:54,0
DA:55,0
DA:56,0
DA:59,0
DA:60,0
DA:61,0
DA:63,0
DA:64,0
DA:66,0
DA:67,0
DA:68,0
DA:71,0
DA:72,0
DA:73,0
DA:74,0
DA:75,0
DA:76,0
DA:77,0
DA:78,0
DA:79,0
DA:80,0
DA:81,0
DA:82,0
DA:83,0
DA:84,0
DA:85,0
DA:87,0
DA:88,0
DA:89,0
DA:90,0
DA:91,0
DA:92,0
DA:93,0
DA:94,0
DA:95,0
DA:98,0
DA:99,0
DA:100,0
DA:101,0
DA:102,0
DA:103,0
DA:104,0
DA:105,0
DA:106,0
DA:107,0
DA:109,0
DA:110,0
DA:111,0
DA:112,0
DA:113,0
DA:114,0
DA:117,0
DA:118,0
DA:120,0
DA:122,0
DA:123,0
DA:124,0
DA:126,0
DA:127,0
DA:128,0
DA:130,0
DA:131,0
DA:132,0
DA:133,0
DA:134,0
DA:135,0
DA:136,0
DA:137,0
DA:139,0
DA:142,0
DA:144,0
DA:145,0
DA:146,0
DA:147,0
DA:149,0
DA:151,0
DA:152,0
DA:153,0
DA:154,0
DA:155,0
DA:157,0
DA:158,0
DA:159,0
DA:160,0
DA:161,0
DA:162,0
DA:163,0
DA:164,0
DA:165,0
DA:167,0
DA:168,0
DA:169,0
DA:170,0
DA:171,0
DA:172,0
DA:174,0
DA:175,0
DA:176,0
DA:177,0
DA:179,0
DA:180,0
DA:181,0
DA:182,0
DA:183,0
DA:184,0
DA:185,0
DA:186,0
DA:187,0
DA:188,0
DA:189,0
DA:191,0
DA:193,0
DA:194,0
DA:195,0
DA:196,0
DA:197,0
DA:198,0
DA:199,0
DA:200,0
DA:202,0
DA:203,0
DA:204,0
DA:207,0
DA:208,0
DA:209,0
DA:210,0
DA:211,0
DA:212,0
DA:213,0
DA:214,0
DA:216,0
DA:217,0
DA:218,0
DA:220,0
DA:221,0
DA:222,0
DA:223,0
DA:224,0
DA:225,0
DA:227,0
DA:228,0
DA:231,0
DA:232,0
DA:233,0
DA:234,0
DA:237,0
DA:238,0
DA:239,0
DA:240,0
DA:241,0
DA:242,0
DA:243,0
DA:245,0
DA:246,0
DA:248,0
DA:249,0
DA:250,0
DA:253,0
DA:255,0
DA:260,0
DA:261,0
DA:262,0
DA:263,0
DA:264,0
DA:269,0
DA:271,0
DA:272,0
DA:280,0
DA:286,0
DA:287,0
DA:297,0
DA:298,0
DA:302,0
DA:305,0
DA:306,0
DA:308,0
DA:309,0
DA:310,0
DA:311,0
DA:312,0
DA:313,0
DA:314,0
DA:315,0
DA:316,0
DA:318,0
DA:319,0
DA:320,0
DA:321,0
DA:323,0
DA:324,0
DA:325,0
DA:327,0
DA:328,0
DA:329,0
DA:331,0
DA:336,0
DA:338,0
DA:340,0
DA:341,0
DA:342,0
DA:343,0
DA:344,0
DA:345,0
DA:346,0
DA:348,0
DA:349,0
DA:350,0
DA:351,0
DA:353,0
DA:355,0
DA:358,0
DA:360,0
DA:362,0
DA:364,0
DA:367,0
DA:369,0
DA:370,0
DA:371,0
DA:372,0
DA:373,0
DA:375,0
DA:377,0
DA:378,0
DA:380,0
DA:387,0
DA:388,0
DA:390,0
DA:391,0
DA:392,0
DA:394,0
DA:396,0
DA:398,0
DA:400,0
DA:401,0
DA:402,0
DA:403,0
DA:404,0
DA:405,0
DA:407,0
DA:409,0
DA:410,0
DA:413,0
DA:415,0
DA:416,0
DA:421,0
DA:425,0
DA:426,0
DA:429,0
DA:430,0
DA:434,0
DA:439,0
DA:440,0
DA:441,0
DA:443,0
DA:445,0
DA:446,0
DA:447,0
DA:454,0
DA:455,0
DA:458,0
DA:459,0
DA:460,0
DA:465,0
DA:467,0
DA:468,0
DA:471,0
DA:475,0
DA:476,0
DA:477,0
DA:482,0
DA:484,0
DA:486,0
DA:487,0
DA:488,0
DA:489,0
DA:490,0
DA:491,0
BRF:0
BRH:0
LF:300
LH:0
end_of_record
SF:/Users/samcolak/Source Code/rust/distdb/distdb/server/src/core/control/connector_handler.rs
FN:1579,_RNvNtNtNtCsjRwMhjCpbZQ_6server4core7control17connector_handler23handle_connector_stream
FN:518,_RNvMNtNtNtCsjRwMhjCpbZQ_6server4core7control17connector_handlerNtB2_17CatalogDispatcher12worker_stats
FN:401,_RNvMNtNtNtCsjRwMhjCpbZQ_6server4core7control17connector_handlerNtB2_17CatalogDispatcher18worker_for_catalog
FN:393,_RNvMNtNtNtCsjRwMhjCpbZQ_6server4core7control17connector_handlerNtB2_17CatalogDispatcher3new
FN:477,_RNvMNtNtNtCsjRwMhjCpbZQ_6server4core7control17connector_handlerNtB2_17CatalogDispatcher8dispatch
FN:161,_RNvNtNtNtCsjRwMhjCpbZQ_6server4core7control17connector_handler16entity_kind_name
FN:1562,_RNvNtNtNtCsjRwMhjCpbZQ_6server4core7control17connector_handler20is_valid_server_node
FN:92,_RNvNtNtNtCsjRwMhjCpbZQ_6server4core7control17connector_handler20parse_lock_table_ids
FN:860,_RNvNtNtNtCsjRwMhjCpbZQ_6server4core7control17connector_handler22is_show_entities_query
FN:845,_RNvNtNtNtCsjRwMhjCpbZQ_6server4core7control17connector_handler23node_announce_dedup_key
FN:855,_RNvNtNtNtCsjRwMhjCpbZQ_6server4core7control17connector_handler25is_bootstrap_status_query
FN:545,_RNvNtNtNtCsjRwMhjCpbZQ_6server4core7control17connector_handler25request_catalog_route_key
FN:179,_RNvNtNtNtCsjRwMhjCpbZQ_6server4core7control17connector_handler26append_catalog_entity_rows
FN:323,_RNvNtNtNtCsjRwMhjCpbZQ_6server4core7control17connector_handler28classify_catalog_access_mode
FN:1113,_RNvNtNtNtCsjRwMhjCpbZQ_6server4core7control17connector_handler28maybe_show_entities_response
FN:865,_RNvNtNtNtCsjRwMhjCpbZQ_6server4core7control17connector_handler29is_show_catalog_workers_query
FN:792,_RNvNtNtNtCsjRwMhjCpbZQ_6server4core7control17connector_handler30catalog_id_from_relation_token
FN:849,_RNvNtNtNtCsjRwMhjCpbZQ_6server4core7control17connector_handler30is_server_peer_discovery_query
FN:141,_RNvNtNtNtCsjRwMhjCpbZQ_6server4core7control17connector_handler30table_lock_update_from_request
FN:816,_RNvNtNtNtCsjRwMhjCpbZQ_6server4core7control17connector_handler31execute_app_request_for_session
FN:574,_RNvNtNtNtCsjRwMhjCpbZQ_6server4core7control17connector_handler31infer_catalog_id_from_query_sql
FN:870,_RNvNtNtNtCsjRwMhjCpbZQ_6server4core7control17connector_handler31maybe_bootstrap_status_response
FN:756,_RNvNtNtNtCsjRwMhjCpbZQ_6server4core7control17connector_handler31relation_catalog_hints_from_sql
FN:980,_RNvNtNtNtCsjRwMhjCpbZQ_6server4core7control17connector_handler32request_allowed_during_bootstrap
FN:612,_RNvNtNtNtCsjRwMhjCpbZQ_6server4core7control17connector_handler34maybe_dispatch_multi_catalog_query
FN:586,_RNvNtNtNtCsjRwMhjCpbZQ_6server4core7control17connector_handler35explicit_catalog_ids_from_query_sql
FN:998,_RNvNtNtNtCsjRwMhjCpbZQ_6server4core7control17connector_handler35maybe_show_catalog_workers_response
FN:52,_RNvNtNtNtCsjRwMhjCpbZQ_6server4core7control17connector_handler35rollback_active_session_transaction
FN:1467,_RNvNtNtNtCsjRwMhjCpbZQ_6server4core7control17connector_handler36maybe_server_peer_discovery_response
FN:738,_RNvNtNtNtCsjRwMhjCpbZQ_6server4core7control17connector_handler37catalog_id_from_qualified_object_name
FN:1233,_RNCNCNCNvNtNtNtCsjRwMhjCpbZQ_6server4core7control17connector_handler28maybe_show_entities_response0s6_00Bd_
FN:1250,_RNCNCNCNvNtNtNtCsjRwMhjCpbZQ_6server4core7control17connector_handler28maybe_show_entities_response0s9_00Bd_
FN:1157,_RNCNCNCNvNtNtNtCsjRwMhjCpbZQ_6server4core7control17connector_handler28maybe_show_entities_response0s_00Bd_
FN:531,_RNCNCNvMNtNtNtCsjRwMhjCpbZQ_6server4core7control17connector_handlerNtB6_17CatalogDispatcher12worker_stats00Bc_
FN:538,_RNCNCNvMNtNtNtCsjRwMhjCpbZQ_6server4core7control17connector_handlerNtB6_17CatalogDispatcher12worker_stats0s_0Bc_
FN:418,_RNCNCNvMNtNtNtCsjRwMhjCpbZQ_6server4core7control17connector_handlerNtB6_17CatalogDispatcher18worker_for_catalog00Bc_
FN:514,_RNCNCNvMNtNtNtCsjRwMhjCpbZQ_6server4core7control17connector_handlerNtB6_17CatalogDispatcher8dispatch00Bc_
FN:1829,_RNCNCNvNtNtNtCsjRwMhjCpbZQ_6server4core7control17connector_handler23handle_connector_stream00Bb_
FN:1976,_RNCNCNvNtNtNtCsjRwMhjCpbZQ_6server4core7control17connector_handler23handle_connector_stream0s0_0Bb_
FN:2081,_RNCNCNvNtNtNtCsjRwMhjCpbZQ_6server4core7control17connector_handler23handle_connector_stream0s1_0Bb_
FN:2100,_RNCNCNvNtNtNtCsjRwMhjCpbZQ_6server4core7control17connector_handler23handle_connector_stream0s2_0Bb_
FN:2324,_RNCNCNvNtNtNtCsjRwMhjCpbZQ_6server4core7control17connector_handler23handle_connector_stream0s3_0Bb_
FN:1858,_RNCNCNvNtNtNtCsjRwMhjCpbZQ_6server4core7control17connector_handler23handle_connector_stream0s_0Bb_
FN:1154,_RNCNCNvNtNtNtCsjRwMhjCpbZQ_6server4core7control17connector_handler28maybe_show_entities_response00Bb_
FN:1169,_RNCNCNvNtNtNtCsjRwMhjCpbZQ_6server4core7control17connector_handler28maybe_show_entities_response0s0_0Bb_
FN:1170,_RNCNCNvNtNtNtCsjRwMhjCpbZQ_6server4core7control17connector_handler28maybe_show_entities_response0s1_0Bb_
FN:1195,_RNCNCNvNtNtNtCsjRwMhjCpbZQ_6server4core7control17connector_handler28maybe_show_entities_response0s2_0Bb_
FN:1196,_RNCNCNvNtNtNtCsjRwMhjCpbZQ_6server4core7control17connector_handler28maybe_show_entities_response0s3_0Bb_
FN:1200,_RNCNCNvNtNtNtCsjRwMhjCpbZQ_6server4core7control17connector_handler28maybe_show_entities_response0s4_0Bb_
FN:1228,_RNCNCNvNtNtNtCsjRwMhjCpbZQ_6server4core7control17connector_handler28maybe_show_entities_response0s5_0Bb_
FN:1233,_RNCNCNvNtNtNtCsjRwMhjCpbZQ_6server4core7control17connector_handler28maybe_show_entities_response0s6_0Bb_
FN:1244,_RNCNCNvNtNtNtCsjRwMhjCpbZQ_6server4core7control17connector_handler28maybe_show_entities_response0s7_0Bb_
FN:1250,_RNCNCNvNtNtNtCsjRwMhjCpbZQ_6server4core7control17connector_handler28maybe_show_entities_response0s9_0Bb_
FN:1155,_RNCNCNvNtNtNtCsjRwMhjCpbZQ_6server4core7control17connector_handler28maybe_show_entities_response0s_0Bb_
FN:1251,_RNCNCNvNtNtNtCsjRwMhjCpbZQ_6server4core7control17connector_handler28maybe_show_entities_response0sa_0Bb_
FN:1256,_RNCNCNvNtNtNtCsjRwMhjCpbZQ_6server4core7control17connector_handler28maybe_show_entities_response0sb_0Bb_
FN:1360,_RNCNCNvNtNtNtCsjRwMhjCpbZQ_6server4core7control17connector_handler28maybe_show_entities_response0sd_0Bb_
FN:1361,_RNCNCNvNtNtNtCsjRwMhjCpbZQ_6server4core7control17connector_handler28maybe_show_entities_response0se_0Bb_
FN:1492,_RNCNCNvNtNtNtCsjRwMhjCpbZQ_6server4core7control17connector_handler36maybe_server_peer_discovery_response00Bb_
FN:1501,_RNCNCNvNtNtNtCsjRwMhjCpbZQ_6server4core7control17connector_handler36maybe_server_peer_discovery_response0s_0Bb_
FN:518,_RNCNvMNtNtNtCsjRwMhjCpbZQ_6server4core7control17connector_handlerNtB4_17CatalogDispatcher12worker_stats0Ba_
FN:401,_RNCNvMNtNtNtCsjRwMhjCpbZQ_6server4core7control17connector_handlerNtB4_17CatalogDispatcher18worker_for_catalog0Ba_
FN:483,_RNCNvMNtNtNtCsjRwMhjCpbZQ_6server4core7control17connector_handlerNtB4_17CatalogDispatcher8dispatch0Ba_
FN:1574,_RNCNvNtNtNtCsjRwMhjCpbZQ_6server4core7control17connector_handler20is_valid_server_node0B9_
FN:132,_RNCNvNtNtNtCsjRwMhjCpbZQ_6server4core7control17connector_handler20parse_lock_table_ids0B9_
FN:1593,_RNCNvNtNtNtCsjRwMhjCpbZQ_6server4core7control17connector_handler23handle_connector_stream0B9_
FN:208,_RNCNvNtNtNtCsjRwMhjCpbZQ_6server4core7control17connector_handler26append_catalog_entity_rows0B9_
FN:243,_RNCNvNtNtNtCsjRwMhjCpbZQ_6server4core7control17connector_handler26append_catalog_entity_rowss_0B9_
FN:1118,_RNCNvNtNtNtCsjRwMhjCpbZQ_6server4core7control17connector_handler28maybe_show_entities_response0B9_
FN:795,_RNCNvNtNtNtCsjRwMhjCpbZQ_6server4core7control17connector_handler30catalog_id_from_relation_token0B9_
FN:822,_RNCNvNtNtNtCsjRwMhjCpbZQ_6server4core7control17connector_handler31execute_app_request_for_session0B9_
FN:766,_RNCNvNtNtNtCsjRwMhjCpbZQ_6server4core7control17connector_handler31relation_catalog_hints_from_sql0B9_
FN:617,_RNCNvNtNtNtCsjRwMhjCpbZQ_6server4core7control17connector_handler34maybe_dispatch_multi_catalog_query0B9_
FN:1002,_RNCNvNtNtNtCsjRwMhjCpbZQ_6server4core7control17connector_handler35maybe_show_catalog_workers_response0B9_
FN:57,_RNCNvNtNtNtCsjRwMhjCpbZQ_6server4core7control17connector_handler35rollback_active_session_transaction0B9_
FN:1472,_RNCNvNtNtNtCsjRwMhjCpbZQ_6server4core7control17connector_handler36maybe_server_peer_discovery_response0B9_
FN:2620,_RNCNCNvNtNtNtNtCsjRwMhjCpbZQ_6server4core7control17connector_handler5testss_38multi_catalog_query_fanout_merges_rows00Bd_
FN:2621,_RNCNCNvNtNtNtNtCsjRwMhjCpbZQ_6server4core7control17connector_handler5testss_38multi_catalog_query_fanout_merges_rows0s_0Bd_
FN:2566,_RNCNvNtNtNtNtCsjRwMhjCpbZQ_6server4core7control17connector_handler5testss_38multi_catalog_query_fanout_merges_rows0Bb_
FN:2634,_RNCNvNtNtNtNtCsjRwMhjCpbZQ_6server4core7control17connector_handler5testss_43multi_catalog_query_rejects_schema_mismatch0Bb_
FN:2694,_RNCNvNtNtNtNtCsjRwMhjCpbZQ_6server4core7control17connector_handler5testss_43multi_catalog_query_rejects_write_statement0Bb_
FN:2767,_RNCNvNtNtNtNtCsjRwMhjCpbZQ_6server4core7control17connector_handler5testss_53policy_snapshot_multi_catalog_schema_mismatch_message0Bb_
FN:2732,_RNCNvNtNtNtNtCsjRwMhjCpbZQ_6server4core7control17connector_handler5testss_53policy_snapshot_multi_catalog_write_rejection_message0Bb_
FN:2824,_RNCNvNtNtNtNtCsjRwMhjCpbZQ_6server4core7control17connector_handler5testss_62policy_snapshot_multi_catalog_catalog_status_rejection_message0Bb_
FN:2951,_RNCNvNtNtNtNtCsjRwMhjCpbZQ_6server4core7control17connector_handler5testss_66routing_compliance_multi_catalog_coordinator_skips_non_multi_paths0Bb_
FN:2500,_RNvNtNtNtNtCsjRwMhjCpbZQ_6server4core7control17connector_handler5tests12seed_catalog
FN:2491,_RNvNtNtNtNtCsjRwMhjCpbZQ_6server4core7control17connector_handler5tests14ensure_applied
FN:2476,_RNvNtNtNtNtCsjRwMhjCpbZQ_6server4core7control17connector_handler5tests20unique_test_data_dir
FN:2484,_RNvNtNtNtNtCsjRwMhjCpbZQ_6server4core7control17connector_handler5tests7request
FN:3008,_RNvNtNtNtNtCsjRwMhjCpbZQ_6server4core7control17connector_handler5testss_33node_announce_dedup_key_is_stable
FN:2566,_RNvNtNtNtNtCsjRwMhjCpbZQ_6server4core7control17connector_handler5testss_38multi_catalog_query_fanout_merges_rows
FN:2634,_RNvNtNtNtNtCsjRwMhjCpbZQ_6server4core7control17connector_handler5testss_43multi_catalog_query_rejects_schema_mismatch
FN:2694,_RNvNtNtNtNtCsjRwMhjCpbZQ_6server4core7control17connector_handler5testss_43multi_catalog_query_rejects_write_statement
FN:3066,_RNvNtNtNtNtCsjRwMhjCpbZQ_6server4core7control17connector_handler5testss_49is_show_entities_query_detects_internal_and_alias
FN:3058,_RNvNtNtNtNtCsjRwMhjCpbZQ_6server4core7control17connector_handler5testss_52is_bootstrap_status_query_detects_internal_and_alias
FN:2767,_RNvNtNtNtNtCsjRwMhjCpbZQ_6server4core7control17connector_handler5testss_53policy_snapshot_multi_catalog_schema_mismatch_message
FN:2732,_RNvNtNtNtNtCsjRwMhjCpbZQ_6server4core7control17connector_handler5testss_53policy_snapshot_multi_catalog_write_rejection_message
FN:3074,_RNvNtNtNtNtCsjRwMhjCpbZQ_6server4core7control17connector_handler5testss_56is_show_catalog_workers_query_detects_internal_and_alias
FN:2859,_RNvNtNtNtNtCsjRwMhjCpbZQ_6server4core7control17connector_handler5testss_56routing_compliance_schema_and_mutation_are_catalog_bound
FN:3050,_RNvNtNtNtNtCsjRwMhjCpbZQ_6server4core7control17connector_handler5testss_57is_server_peer_discovery_query_detects_internal_and_alias
FN:3021,_RNvNtNtNtNtCsjRwMhjCpbZQ_6server4core7control17connector_handler5testss_57is_valid_server_node_requires_non_empty_id_and_multiaddrs
FN:2824,_RNvNtNtNtNtCsjRwMhjCpbZQ_6server4core7control17connector_handler5testss_62policy_snapshot_multi_catalog_catalog_status_rejection_message
FN:2951,_RNvNtNtNtNtCsjRwMhjCpbZQ_6server4core7control17connector_handler5testss_66routing_compliance_multi_catalog_coordinator_skips_non_multi_paths
FN:2894,_RNvNtNtNtNtCsjRwMhjCpbZQ_6server4core7control17connector_handler5testss_67routing_compliance_query_with_explicit_database_id_is_catalog_bound
FN:2934,_RNvNtNtNtNtCsjRwMhjCpbZQ_6server4core7control17connector_handler5testss_71routing_compliance_query_with_multi_catalog_sql_has_no_single_route_key
FN:2914,_RNvNtNtNtNtCsjRwMhjCpbZQ_6server4core7control17connector_handler5testss_80routing_compliance_query_infers_single_catalog_from_sql_when_session_db_is_empty
FNDA:0,_RNvNtNtNtCsjRwMhjCpbZQ_6server4core7control17connector_handler23handle_connector_stream
FNDA:0,_RNvMNtNtNtCsjRwMhjCpbZQ_6server4core7control17connector_handlerNtB2_17CatalogDispatcher12worker_stats
FNDA:7,_RNvMNtNtNtCsjRwMhjCpbZQ_6server4core7control17connector_handlerNtB2_17CatalogDispatcher18worker_for_catalog
FNDA:7,_RNvMNtNtNtCsjRwMhjCpbZQ_6server4core7control17connector_handlerNtB2_17CatalogDispatcher3new
FNDA:7,_RNvMNtNtNtCsjRwMhjCpbZQ_6server4core7control17connector_handlerNtB2_17CatalogDispatcher8dispatch
FNDA:0,_RNvNtNtNtCsjRwMhjCpbZQ_6server4core7control17connector_handler16entity_kind_name
FNDA:3,_RNvNtNtNtCsjRwMhjCpbZQ_6server4core7control17connector_handler20is_valid_server_node
FNDA:0,_RNvNtNtNtCsjRwMhjCpbZQ_6server4core7control17connector_handler20parse_lock_table_ids
FNDA:4,_RNvNtNtNtCsjRwMhjCpbZQ_6server4core7control17connector_handler22is_show_entities_query
FNDA:2,_RNvNtNtNtCsjRwMhjCpbZQ_6server4core7control17connector_handler23node_announce_dedup_key
FNDA:4,_RNvNtNtNtCsjRwMhjCpbZQ_6server4core7control17connector_handler25is_bootstrap_status_query
FNDA:5,_RNvNtNtNtCsjRwMhjCpbZQ_6server4core7control17connector_handler25request_catalog_route_key
FNDA:0,_RNvNtNtNtCsjRwMhjCpbZQ_6server4core7control17connector_handler26append_catalog_entity_rows
FNDA:13,_RNvNtNtNtCsjRwMhjCpbZQ_6server4core7control17connector_handler28classify_catalog_access_mode
FNDA:0,_RNvNtNtNtCsjRwMhjCpbZQ_6server4core7control17connector_handler28maybe_show_entities_response
FNDA:4,_RNvNtNtNtCsjRwMhjCpbZQ_6server4core7control17connector_handler29is_show_catalog_workers_query
FNDA:22,_RNvNtNtNtCsjRwMhjCpbZQ_6server4core7control17connector_handler30catalog_id_from_relation_token
FNDA:4,_RNvNtNtNtCsjRwMhjCpbZQ_6server4core7control17connector_handler30is_server_peer_discovery_query
FNDA:0,_RNvNtNtNtCsjRwMhjCpbZQ_6server4core7control17connector_handler30table_lock_update_from_request
FNDA:7,_RNvNtNtNtCsjRwMhjCpbZQ_6server4core7control17connector_handler31execute_app_request_for_session
FNDA:2,_RNvNtNtNtCsjRwMhjCpbZQ_6server4core7control17connector_handler31infer_catalog_id_from_query_sql
FNDA:0,_RNvNtNtNtCsjRwMhjCpbZQ_6server4core7control17connector_handler31maybe_bootstrap_status_response
FNDA:9,_RNvNtNtNtCsjRwMhjCpbZQ_6server4core7control17connector_handler31relation_catalog_hints_from_sql
FNDA:0,_RNvNtNtNtCsjRwMhjCpbZQ_6server4core7control17connector_handler32request_allowed_during_bootstrap
FNDA:8,_RNvNtNtNtCsjRwMhjCpbZQ_6server4core7control17connector_handler34maybe_dispatch_multi_catalog_query
FNDA:9,_RNvNtNtNtCsjRwMhjCpbZQ_6server4core7control17connector_handler35explicit_catalog_ids_from_query_sql
FNDA:0,_RNvNtNtNtCsjRwMhjCpbZQ_6server4core7control17connector_handler35maybe_show_catalog_workers_response
FNDA:0,_RNvNtNtNtCsjRwMhjCpbZQ_6server4core7control17connector_handler35rollback_active_session_transaction
FNDA:0,_RNvNtNtNtCsjRwMhjCpbZQ_6server4core7control17connector_handler36maybe_server_peer_discovery_response
FNDA:9,_RNvNtNtNtCsjRwMhjCpbZQ_6server4core7control17connector_handler37catalog_id_from_qualified_object_name
FNDA:0,_RNCNCNCNvNtNtNtCsjRwMhjCpbZQ_6server4core7control17connector_handler28maybe_show_entities_response0s6_00Bd_
FNDA:0,_RNCNCNCNvNtNtNtCsjRwMhjCpbZQ_6server4core7control17connector_handler28maybe_show_entities_response0s9_00Bd_
FNDA:0,_RNCNCNCNvNtNtNtCsjRwMhjCpbZQ_6server4core7control17connector_handler28maybe_show_entities_response0s_00Bd_
FNDA:0,_RNCNCNvMNtNtNtCsjRwMhjCpbZQ_6server4core7control17connector_handlerNtB6_17CatalogDispatcher12worker_stats00Bc_
FNDA:0,_RNCNCNvMNtNtNtCsjRwMhjCpbZQ_6server4core7control17connector_handlerNtB6_17CatalogDispatcher12worker_stats0s_0Bc_
FNDA:7,_RNCNCNvMNtNtNtCsjRwMhjCpbZQ_6server4core7control17connector_handlerNtB6_17CatalogDispatcher18worker_for_catalog00Bc_
FNDA:0,_RNCNCNvMNtNtNtCsjRwMhjCpbZQ_6server4core7control17connector_handlerNtB6_17CatalogDispatcher8dispatch00Bc_
FNDA:0,_RNCNCNvNtNtNtCsjRwMhjCpbZQ_6server4core7control17connector_handler23handle_connector_stream00Bb_
FNDA:0,_RNCNCNvNtNtNtCsjRwMhjCpbZQ_6server4core7control17connector_handler23handle_connector_stream0s0_0Bb_
FNDA:0,_RNCNCNvNtNtNtCsjRwMhjCpbZQ_6server4core7control17connector_handler23handle_connector_stream0s1_0Bb_
FNDA:0,_RNCNCNvNtNtNtCsjRwMhjCpbZQ_6server4core7control17connector_handler23handle_connector_stream0s2_0Bb_
FNDA:0,_RNCNCNvNtNtNtCsjRwMhjCpbZQ_6server4core7control17connector_handler23handle_connector_stream0s3_0Bb_
FNDA:0,_RNCNCNvNtNtNtCsjRwMhjCpbZQ_6server4core7control17connector_handler23handle_connector_stream0s_0Bb_
FNDA:0,_RNCNCNvNtNtNtCsjRwMhjCpbZQ_6server4core7control17connector_handler28maybe_show_entities_response00Bb_
FNDA:0,_RNCNCNvNtNtNtCsjRwMhjCpbZQ_6server4core7control17connector_handler28maybe_show_entities_response0s0_0Bb_
FNDA:0,_RNCNCNvNtNtNtCsjRwMhjCpbZQ_6server4core7control17connector_handler28maybe_show_entities_response0s1_0Bb_
FNDA:0,_RNCNCNvNtNtNtCsjRwMhjCpbZQ_6server4core7control17connector_handler28maybe_show_entities_response0s2_0Bb_
FNDA:0,_RNCNCNvNtNtNtCsjRwMhjCpbZQ_6server4core7control17connector_handler28maybe_show_entities_response0s3_0Bb_
FNDA:0,_RNCNCNvNtNtNtCsjRwMhjCpbZQ_6server4core7control17connector_handler28maybe_show_entities_response0s4_0Bb_
FNDA:0,_RNCNCNvNtNtNtCsjRwMhjCpbZQ_6server4core7control17connector_handler28maybe_show_entities_response0s5_0Bb_
FNDA:0,_RNCNCNvNtNtNtCsjRwMhjCpbZQ_6server4core7control17connector_handler28maybe_show_entities_response0s6_0Bb_
FNDA:0,_RNCNCNvNtNtNtCsjRwMhjCpbZQ_6server4core7control17connector_handler28maybe_show_entities_response0s7_0Bb_
FNDA:0,_RNCNCNvNtNtNtCsjRwMhjCpbZQ_6server4core7control17connector_handler28maybe_show_entities_response0s9_0Bb_
FNDA:0,_RNCNCNvNtNtNtCsjRwMhjCpbZQ_6server4core7control17connector_handler28maybe_show_entities_response0s_0Bb_
FNDA:0,_RNCNCNvNtNtNtCsjRwMhjCpbZQ_6server4core7control17connector_handler28maybe_show_entities_response0sa_0Bb_
FNDA:0,_RNCNCNvNtNtNtCsjRwMhjCpbZQ_6server4core7control17connector_handler28maybe_show_entities_response0sb_0Bb_
FNDA:0,_RNCNCNvNtNtNtCsjRwMhjCpbZQ_6server4core7control17connector_handler28maybe_show_entities_response0sd_0Bb_
FNDA:0,_RNCNCNvNtNtNtCsjRwMhjCpbZQ_6server4core7control17connector_handler28maybe_show_entities_response0se_0Bb_
FNDA:0,_RNCNCNvNtNtNtCsjRwMhjCpbZQ_6server4core7control17connector_handler36maybe_server_peer_discovery_response00Bb_
FNDA:0,_RNCNCNvNtNtNtCsjRwMhjCpbZQ_6server4core7control17connector_handler36maybe_server_peer_discovery_response0s_0Bb_
FNDA:0,_RNCNvMNtNtNtCsjRwMhjCpbZQ_6server4core7control17connector_handlerNtB4_17CatalogDispatcher12worker_stats0Ba_
FNDA:7,_RNCNvMNtNtNtCsjRwMhjCpbZQ_6server4core7control17connector_handlerNtB4_17CatalogDispatcher18worker_for_catalog0Ba_
FNDA:7,_RNCNvMNtNtNtCsjRwMhjCpbZQ_6server4core7control17connector_handlerNtB4_17CatalogDispatcher8dispatch0Ba_
FNDA:2,_RNCNvNtNtNtCsjRwMhjCpbZQ_6server4core7control17connector_handler20is_valid_server_node0B9_
FNDA:0,_RNCNvNtNtNtCsjRwMhjCpbZQ_6server4core7control17connector_handler20parse_lock_table_ids0B9_
FNDA:0,_RNCNvNtNtNtCsjRwMhjCpbZQ_6server4core7control17connector_handler23handle_connector_stream0B9_
FNDA:0,_RNCNvNtNtNtCsjRwMhjCpbZQ_6server4core7control17connector_handler26append_catalog_entity_rows0B9_
FNDA:0,_RNCNvNtNtNtCsjRwMhjCpbZQ_6server4core7control17connector_handler26append_catalog_entity_rowss_0B9_
FNDA:0,_RNCNvNtNtNtCsjRwMhjCpbZQ_6server4core7control17connector_handler28maybe_show_entities_response0B9_
FNDA:44,_RNCNvNtNtNtCsjRwMhjCpbZQ_6server4core7control17connector_handler30catalog_id_from_relation_token0B9_
FNDA:7,_RNCNvNtNtNtCsjRwMhjCpbZQ_6server4core7control17connector_handler31execute_app_request_for_session0B9_
FNDA:155,_RNCNvNtNtNtCsjRwMhjCpbZQ_6server4core7control17connector_handler31relation_catalog_hints_from_sql0B9_
FNDA:8,_RNCNvNtNtNtCsjRwMhjCpbZQ_6server4core7control17connector_handler34maybe_dispatch_multi_catalog_query0B9_
FNDA:0,_RNCNvNtNtNtCsjRwMhjCpbZQ_6server4core7control17connector_handler35maybe_show_catalog_workers_response0B9_
FNDA:0,_RNCNvNtNtNtCsjRwMhjCpbZQ_6server4core7control17connector_handler35rollback_active_session_transaction0B9_
FNDA:0,_RNCNvNtNtNtCsjRwMhjCpbZQ_6server4core7control17connector_handler36maybe_server_peer_discovery_response0B9_
FNDA:2,_RNCNCNvNtNtNtNtCsjRwMhjCpbZQ_6server4core7control17connector_handler5testss_38multi_catalog_query_fanout_merges_rows00Bd_
FNDA:2,_RNCNCNvNtNtNtNtCsjRwMhjCpbZQ_6server4core7control17connector_handler5testss_38multi_catalog_query_fanout_merges_rows0s_0Bd_
FNDA:1,_RNCNvNtNtNtNtCsjRwMhjCpbZQ_6server4core7control17connector_handler5testss_38multi_catalog_query_fanout_merges_rows0Bb_
FNDA:1,_RNCNvNtNtNtNtCsjRwMhjCpbZQ_6server4core7control17connector_handler5testss_43multi_catalog_query_rejects_schema_mismatch0Bb_
FNDA:1,_RNCNvNtNtNtNtCsjRwMhjCpbZQ_6server4core7control17connector_handler5testss_43multi_catalog_query_rejects_write_statement0Bb_
FNDA:1,_RNCNvNtNtNtNtCsjRwMhjCpbZQ_6server4core7control17connector_handler5testss_53policy_snapshot_multi_catalog_schema_mismatch_message0Bb_
FNDA:1,_RNCNvNtNtNtNtCsjRwMhjCpbZQ_6server4core7control17connector_handler5testss_53policy_snapshot_multi_catalog_write_rejection_message0Bb_
FNDA:1,_RNCNvNtNtNtNtCsjRwMhjCpbZQ_6server4core7control17connector_handler5testss_62policy_snapshot_multi_catalog_catalog_status_rejection_message0Bb_
FNDA:1,_RNCNvNtNtNtNtCsjRwMhjCpbZQ_6server4core7control17connector_handler5testss_66routing_compliance_multi_catalog_coordinator_skips_non_multi_paths0Bb_
FNDA:6,_RNvNtNtNtNtCsjRwMhjCpbZQ_6server4core7control17connector_handler5tests12seed_catalog
FNDA:18,_RNvNtNtNtNtCsjRwMhjCpbZQ_6server4core7control17connector_handler5tests14ensure_applied
FNDA:7,_RNvNtNtNtNtCsjRwMhjCpbZQ_6server4core7control17connector_handler5tests20unique_test_data_dir
FNDA:31,_RNvNtNtNtNtCsjRwMhjCpbZQ_6server4core7control17connector_handler5tests7request
FNDA:1,_RNvNtNtNtNtCsjRwMhjCpbZQ_6server4core7control17connector_handler5testss_33node_announce_dedup_key_is_stable
FNDA:1,_RNvNtNtNtNtCsjRwMhjCpbZQ_6server4core7control17connector_handler5testss_38multi_catalog_query_fanout_merges_rows
FNDA:1,_RNvNtNtNtNtCsjRwMhjCpbZQ_6server4core7control17connector_handler5testss_43multi_catalog_query_rejects_schema_mismatch
FNDA:1,_RNvNtNtNtNtCsjRwMhjCpbZQ_6server4core7control17connector_handler5testss_43multi_catalog_query_rejects_write_statement
FNDA:1,_RNvNtNtNtNtCsjRwMhjCpbZQ_6server4core7control17connector_handler5testss_49is_show_entities_query_detects_internal_and_alias
FNDA:1,_RNvNtNtNtNtCsjRwMhjCpbZQ_6server4core7control17connector_handler5testss_52is_bootstrap_status_query_detects_internal_and_alias
FNDA:1,_RNvNtNtNtNtCsjRwMhjCpbZQ_6server4core7control17connector_handler5testss_53policy_snapshot_multi_catalog_schema_mismatch_message
FNDA:1,_RNvNtNtNtNtCsjRwMhjCpbZQ_6server4core7control17connector_handler5testss_53policy_snapshot_multi_catalog_write_rejection_message
FNDA:1,_RNvNtNtNtNtCsjRwMhjCpbZQ_6server4core7control17connector_handler5testss_56is_show_catalog_workers_query_detects_internal_and_alias
FNDA:1,_RNvNtNtNtNtCsjRwMhjCpbZQ_6server4core7control17connector_handler5testss_56routing_compliance_schema_and_mutation_are_catalog_bound
FNDA:1,_RNvNtNtNtNtCsjRwMhjCpbZQ_6server4core7control17connector_handler5testss_57is_server_peer_discovery_query_detects_internal_and_alias
FNDA:1,_RNvNtNtNtNtCsjRwMhjCpbZQ_6server4core7control17connector_handler5testss_57is_valid_server_node_requires_non_empty_id_and_multiaddrs
FNDA:1,_RNvNtNtNtNtCsjRwMhjCpbZQ_6server4core7control17connector_handler5testss_62policy_snapshot_multi_catalog_catalog_status_rejection_message
FNDA:1,_RNvNtNtNtNtCsjRwMhjCpbZQ_6server4core7control17connector_handler5testss_66routing_compliance_multi_catalog_coordinator_skips_non_multi_paths
FNDA:1,_RNvNtNtNtNtCsjRwMhjCpbZQ_6server4core7control17connector_handler5testss_67routing_compliance_query_with_explicit_database_id_is_catalog_bound
FNDA:1,_RNvNtNtNtNtCsjRwMhjCpbZQ_6server4core7control17connector_handler5testss_71routing_compliance_query_with_multi_catalog_sql_has_no_single_route_key
FNDA:1,_RNvNtNtNtNtCsjRwMhjCpbZQ_6server4core7control17connector_handler5testss_80routing_compliance_query_infers_single_catalog_from_sql_when_session_db_is_empty
FNF:106
FNH:56
DA:52,0
DA:53,0
DA:54,0
DA:55,0
DA:56,0
DA:57,0
DA:59,0
DA:60,0
DA:61,0
DA:63,0
DA:65,0
DA:70,0
DA:71,0
DA:72,0
DA:73,0
DA:74,0
DA:75,0
DA:76,0
DA:78,0
DA:80,0
DA:81,0
DA:82,0
DA:83,0
DA:84,0
DA:85,0
DA:88,0
DA:90,0
DA:92,0
DA:94,0
DA:95,0
DA:97,0
DA:98,0
DA:99,0
DA:100,0
DA:102,0
DA:105,0
DA:106,0
DA:109,0
DA:111,0
DA:113,0
DA:114,0
DA:115,0
DA:116,0
DA:118,0
DA:119,0
DA:120,0
DA:121,0
DA:123,0
DA:124,0
DA:125,0
DA:126,0
DA:127,0
DA:128,0
DA:129,0
DA:131,0
DA:132,0
DA:133,0
DA:134,0
DA:137,0
DA:139,0
DA:141,0
DA:143,0
DA:144,0
DA:147,0
DA:149,0
DA:150,0
DA:151,0
DA:153,0
DA:154,0
DA:155,0
DA:157,0
DA:159,0
DA:161,0
DA:163,0
DA:165,0
DA:167,0
DA:169,0
DA:171,0
DA:173,0
DA:177,0
DA:179,0
DA:180,0
DA:181,0
DA:182,0
DA:183,0
DA:184,0
DA:186,0
DA:187,0
DA:188,0
DA:189,0
DA:191,0
DA:192,0
DA:193,0
DA:194,0
DA:195,0
DA:196,0
DA:197,0
DA:198,0
DA:200,0
DA:202,0
DA:205,0
DA:208,0
DA:210,0
DA:212,0
DA:214,0
DA:215,0
DA:216,0
DA:218,0
DA:219,0
DA:220,0
DA:222,0
DA:224,0
DA:226,0
DA:227,0
DA:228,0
DA:229,0
DA:230,0
DA:231,0
DA:232,0
DA:233,0
DA:235,0
DA:237,0
DA:240,0
DA:241,0
DA:242,0
DA:243,0
DA:244,0
DA:246,0
DA:248,0
DA:250,0
DA:251,0
DA:252,0
DA:253,0
DA:254,0
DA:255,0
DA:256,0
DA:258,0
DA:260,0
DA:261,0
DA:263,0
DA:265,0
DA:273,0
DA:274,0
DA:275,0
DA:276,0
DA:277,0
DA:278,0
DA:279,0
DA:280,0
DA:282,0
DA:284,0
DA:292,0
DA:323,13
DA:325,13
DA:329,0
DA:331,13
DA:333,13
DA:335,13
DA:336,13
DA:337,13
DA:338,13
DA:339,13
DA:340,13
DA:341,13
DA:342,13
DA:344,0
DA:345,13
DA:348,13
DA:349,0
DA:350,13
DA:352,13
DA:353,13
DA:354,0
DA:357,13
DA:358,0
DA:359,13
DA:361,13
DA:362,13
DA:363,13
DA:364,11
DA:366,2
DA:367,2
DA:372,13
DA:373,2
DA:375,11
DA:382,13
DA:393,7
DA:394,7
DA:395,7
DA:396,7
DA:397,7
DA:398,7
DA:399,7
DA:401,7
DA:403,7
DA:404,7
DA:405,0
DA:406,7
DA:408,7
DA:409,7
DA:410,7
DA:411,7
DA:412,7
DA:413,7
DA:414,7
DA:415,7
DA:416,7
DA:418,7
DA:420,14
DA:422,7
DA:423,7
DA:425,7
DA:428,7
DA:429,7
DA:430,7
DA:431,7
DA:432,7
DA:433,7
DA:434,7
DA:435,7
DA:436,7
DA:440,0
DA:441,0
DA:442,0
DA:443,0
DA:444,0
DA:445,0
DA:446,0
DA:447,0
DA:448,0
DA:453,7
DA:455,7
DA:456,0
DA:460,7
DA:464,0
DA:466,7
DA:467,7
DA:468,7
DA:469,7
DA:470,7
DA:472,7
DA:473,7
DA:475,7
DA:477,7
DA:478,7
DA:479,7
DA:480,7
DA:481,7
DA:482,7
DA:483,7
DA:485,7
DA:486,7
DA:487,7
DA:490,7
DA:491,7
DA:494,7
DA:496,7
DA:497,7
DA:498,7
DA:499,7
DA:500,7
DA:501,7
DA:502,7
DA:503,7
DA:504,7
DA:505,7
DA:506,7
DA:508,0
DA:509,0
DA:510,7
DA:512,7
DA:513,7
DA:514,7
DA:516,7
DA:518,0
DA:520,0
DA:521,0
DA:523,0
DA:524,0
DA:525,0
DA:526,0
DA:528,0
DA:529,0
DA:530,0
DA:531,0
DA:532,0
DA:533,0
DA:534,0
DA:535,0
DA:536,0
DA:538,0
DA:539,0
DA:541,0
DA:545,5
DA:547,5
DA:549,1
DA:550,1
DA:551,2
DA:552,2
DA:553,0
DA:555,2
DA:559,3
DA:560,3
DA:561,3
DA:562,1
DA:563,2
DA:565,2
DA:568,0
DA:572,5
DA:574,2
DA:576,2
DA:578,2
DA:579,1
DA:580,1
DA:582,1
DA:584,2
DA:586,9
DA:588,9
DA:589,0
DA:592,9
DA:594,9
DA:596,9
DA:597,9
DA:598,3
DA:599,3
DA:600,6
DA:604,16
DA:605,16
DA:606,16
DA:608,9
DA:610,9
DA:612,8
DA:613,8
DA:614,8
DA:615,8
DA:616,8
DA:617,8
DA:619,8
DA:620,0
DA:623,8
DA:624,1
DA:625,7
DA:627,7
DA:628,7
DA:629,7
DA:631,7
DA:632,7
DA:634,7
DA:635,1
DA:636,6
DA:638,6
DA:639,2
DA:640,2
DA:641,2
DA:642,2
DA:643,4
DA:645,4
DA:646,4
DA:647,4
DA:648,4
DA:649,4
DA:651,7
DA:653,7
DA:654,7
DA:655,7
DA:656,7
DA:658,7
DA:659,7
DA:660,7
DA:661,7
DA:662,7
DA:663,7
DA:664,7
DA:665,7
DA:667,7
DA:668,0
DA:669,0
DA:670,0
DA:671,0
DA:672,0
DA:673,0
DA:674,0
DA:675,0
DA:676,0
DA:680,7
DA:681,1
DA:682,1
DA:683,1
DA:684,1
DA:685,1
DA:686,1
DA:687,1
DA:688,1
DA:689,6
DA:691,6
DA:692,0
DA:693,0
DA:694,0
DA:695,0
DA:696,0
DA:697,0
DA:698,0
DA:701,6
DA:702,3
DA:703,2
DA:704,2
DA:705,2
DA:706,2
DA:707,1
DA:708,3
DA:709,3
DA:710,3
DA:712,4
DA:713,4
DA:714,4
DA:715,4
DA:719,1
DA:721,1
DA:722,1
DA:723,1
DA:724,1
DA:725,1
DA:726,1
DA:727,1
DA:728,1
DA:729,1
DA:730,1
DA:731,1
DA:732,1
DA:733,1
DA:734,1
DA:736,8
DA:738,9
DA:740,9
DA:741,9
DA:742,9
DA:743,3
DA:744,0
DA:745,3
DA:747,3
DA:748,3
DA:749,0
DA:750,3
DA:752,3
DA:754,9
DA:756,9
DA:758,9
DA:759,9
DA:760,9
DA:761,9
DA:763,82
DA:765,82
DA:766,155
DA:767,82
DA:769,82
DA:770,82
DA:771,82
DA:774,82
DA:775,60
DA:776,22
DA:778,22
DA:779,0
DA:782,22
DA:783,16
DA:784,16
DA:788,9
DA:790,9
DA:792,22
DA:794,22
DA:795,44
DA:796,22
DA:797,22
DA:799,22
DA:800,22
DA:801,22
DA:803,16
DA:804,0
DA:805,16
DA:807,16
DA:808,16
DA:809,0
DA:810,16
DA:812,16
DA:814,22
DA:816,7
DA:817,7
DA:818,7
DA:819,7
DA:820,7
DA:821,7
DA:822,7
DA:824,7
DA:825,7
DA:826,7
DA:827,7
DA:828,0
DA:829,0
DA:831,0
DA:833,0
DA:834,0
DA:835,0
DA:836,0
DA:837,0
DA:838,0
DA:839,0
DA:841,0
DA:843,7
DA:845,2
DA:846,2
DA:847,2
DA:849,4
DA:850,4
DA:852,4
DA:853,4
DA:855,4
DA:856,4
DA:857,4
DA:858,4
DA:860,4
DA:861,4
DA:862,4
DA:863,4
DA:865,4
DA:866,4
DA:867,4
DA:868,4
DA:870,0
DA:871,0
DA:872,0
DA:873,0
DA:875,0
DA:876,0
DA:879,0
DA:880,0
DA:881,0
DA:883,0
DA:884,0
DA:885,0
DA:886,0
DA:887,0
DA:888,0
DA:889,0
DA:891,0
DA:892,0
DA:893,0
DA:894,0
DA:895,0
DA:896,0
DA:899,0
DA:900,0
DA:902,0
DA:903,0
DA:904,0
DA:905,0
DA:906,0
DA:907,0
DA:908,0
DA:909,0
DA:910,0
DA:911,0
DA:912,0
DA:913,0
DA:914,0
DA:915,0
DA:916,0
DA:917,0
DA:918,0
DA:919,0
DA:920,0
DA:921,0
DA:922,0
DA:923,0
DA:924,0
DA:925,0
DA:926,0
DA:927,0
DA:928,0
DA:929,0
DA:930,0
DA:931,0
DA:932,0
DA:933,0
DA:934,0
DA:935,0
DA:936,0
DA:937,0
DA:938,0
DA:939,0
DA:940,0
DA:941,0
DA:942,0
DA:943,0
DA:944,0
DA:945,0
DA:946,0
DA:947,0
DA:948,0
DA:949,0
DA:950,0
DA:951,0
DA:952,0
DA:953,0
DA:954,0
DA:955,0
DA:956,0
DA:958,0
DA:959,0
DA:960,0
DA:961,0
DA:962,0
DA:963,0
DA:964,0
DA:966,0
DA:967,0
DA:968,0
DA:969,0
DA:970,0
DA:971,0
DA:972,0
DA:976,0
DA:978,0
DA:980,0
DA:982,0
DA:984,0
DA:985,0
DA:986,0
DA:987,0
DA:988,0
DA:989,0
DA:992,0
DA:996,0
DA:998,0
DA:999,0
DA:1000,0
DA:1001,0
DA:1002,0
DA:1004,0
DA:1005,0
DA:1008,0
DA:1009,0
DA:1010,0
DA:1012,0
DA:1013,0
DA:1015,0
DA:1017,0
DA:1018,0
DA:1019,0
DA:1020,0
DA:1021,0
DA:1022,0
DA:1023,0
DA:1028,0
DA:1029,0
DA:1030,0
DA:1031,0
DA:1032,0
DA:1033,0
DA:1034,0
DA:1035,0
DA:1041,0
DA:1042,0
DA:1043,0
DA:1044,0
DA:1045,0
DA:1046,0
DA:1047,0
DA:1048,0
DA:1049,0
DA:1050,0
DA:1051,0
DA:1052,0
DA:1053,0
DA:1054,0
DA:1055,0
DA:1056,0
DA:1057,0
DA:1058,0
DA:1059,0
DA:1060,0
DA:1061,0
DA:1062,0
DA:1063,0
DA:1064,0
DA:1065,0
DA:1066,0
DA:1067,0
DA:1068,0
DA:1069,0
DA:1070,0
DA:1071,0
DA:1072,0
DA:1073,0
DA:1074,0
DA:1075,0
DA:1076,0
DA:1077,0
DA:1078,0
DA:1079,0
DA:1080,0
DA:1081,0
DA:1082,0
DA:1083,0
DA:1084,0
DA:1085,0
DA:1086,0
DA:1087,0
DA:1088,0
DA:1089,0
DA:1090,0
DA:1091,0
DA:1092,0
DA:1093,0
DA:1094,0
DA:1095,0
DA:1096,0
DA:1097,0
DA:1098,0
DA:1099,0
DA:1100,0
DA:1101,0
DA:1102,0
DA:1103,0
DA:1104,0
DA:1105,0
DA:1106,0
DA:1107,0
DA:1108,0
DA:1109,0
DA:1111,0
DA:1113,0
DA:1114,0
DA:1115,0
DA:1116,0
DA:1117,0
DA:1118,0
DA:1120,0
DA:1121,0
DA:1124,0
DA:1125,0
DA:1126,0
DA:1128,0
DA:1129,0
DA:1130,0
DA:1131,0
DA:1132,0
DA:1133,0
DA:1135,0
DA:1136,0
DA:1138,0
DA:1141,0
DA:1143,0
DA:1144,0
DA:1146,0
DA:1149,0
DA:1151,0
DA:1152,0
DA:1153,0
DA:1154,0
DA:1155,0
DA:1156,0
DA:1157,0
DA:1158,0
DA:1159,0
DA:1160,0
DA:1162,0
DA:1163,0
DA:1165,0
DA:1167,0
DA:1168,0
DA:1169,0
DA:1170,0
DA:1172,0
DA:1173,0
DA:1176,0
DA:1177,0
DA:1178,0
DA:1181,0
DA:1183,0
DA:1184,0
DA:1189,0
DA:1191,0
DA:1195,0
DA:1196,0
DA:1198,0
DA:1199,0
DA:1200,0
DA:1201,0
DA:1203,0
DA:1205,0
DA:1206,0
DA:1207,0
DA:1208,0
DA:1209,0
DA:1210,0
DA:1211,0
DA:1212,0
DA:1213,0
DA:1214,0
DA:1215,0
DA:1216,0
DA:1217,0
DA:1219,0
DA:1220,0
DA:1221,0
DA:1222,0
DA:1228,0
DA:1229,0
DA:1231,0
DA:1232,0
DA:1233,0
DA:1234,0
DA:1237,0
DA:1238,0
DA:1239,0
DA:1240,0
DA:1241,0
DA:1242,0
DA:1244,0
DA:1245,0
DA:1247,0
DA:1248,0
DA:1249,0
DA:1250,0
DA:1251,0
DA:1254,0
DA:1255,0
DA:1256,0
DA:1257,0
DA:1258,0
DA:1259,0
DA:1263,0
DA:1264,0
DA:1265,0
DA:1266,0
DA:1267,0
DA:1268,0
DA:1269,0
DA:1270,0
DA:1271,0
DA:1272,0
DA:1273,0
DA:1274,0
DA:1275,0
DA:1276,0
DA:1277,0
DA:1278,0
DA:1279,0
DA:1280,0
DA:1281,0
DA:1282,0
DA:1283,0
DA:1284,0
DA:1285,0
DA:1286,0
DA:1287,0
DA:1288,0
DA:1289,0
DA:1290,0
DA:1291,0
DA:1292,0
DA:1293,0
DA:1294,0
DA:1295,0
DA:1296,0
DA:1297,0
DA:1298,0
DA:1299,0
DA:1300,0
DA:1301,0
DA:1302,0
DA:1303,0
DA:1304,0
DA:1305,0
DA:1306,0
DA:1307,0
DA:1308,0
DA:1309,0
DA:1310,0
DA:1311,0
DA:1312,0
DA:1313,0
DA:1314,0
DA:1315,0
DA:1316,0
DA:1317,0
DA:1318,0
DA:1319,0
DA:1320,0
DA:1321,0
DA:1322,0
DA:1323,0
DA:1324,0
DA:1325,0
DA:1326,0
DA:1327,0
DA:1328,0
DA:1329,0
DA:1330,0
DA:1331,0
DA:1332,0
DA:1333,0
DA:1334,0
DA:1335,0
DA:1336,0
DA:1337,0
DA:1338,0
DA:1339,0
DA:1342,0
DA:1346,0
DA:1348,0
DA:1349,0
DA:1350,0
DA:1354,0
DA:1355,0
DA:1357,0
DA:1358,0
DA:1359,0
DA:1360,0
DA:1361,0
DA:1364,0
DA:1365,0
DA:1366,0
DA:1367,0
DA:1368,0
DA:1369,0
DA:1371,0
DA:1375,0
DA:1376,0
DA:1377,0
DA:1380,0
DA:1383,0
DA:1384,0
DA:1385,0
DA:1386,0
DA:1387,0
DA:1388,0
DA:1389,0
DA:1390,0
DA:1391,0
DA:1392,0
DA:1393,0
DA:1394,0
DA:1395,0
DA:1396,0
DA:1397,0
DA:1398,0
DA:1399,0
DA:1400,0
DA:1401,0
DA:1402,0
DA:1403,0
DA:1404,0
DA:1405,0
DA:1406,0
DA:1407,0
DA:1408,0
DA:1409,0
DA:1410,0
DA:1411,0
DA:1412,0
DA:1413,0
DA:1414,0
DA:1415,0
DA:1416,0
DA:1417,0
DA:1418,0
DA:1419,0
DA:1420,0
DA:1421,0
DA:1422,0
DA:1423,0
DA:1424,0
DA:1425,0
DA:1426,0
DA:1427,0
DA:1428,0
DA:1429,0
DA:1430,0
DA:1431,0
DA:1432,0
DA:1433,0
DA:1434,0
DA:1435,0
DA:1436,0
DA:1437,0
DA:1438,0
DA:1439,0
DA:1440,0
DA:1441,0
DA:1442,0
DA:1443,0
DA:1444,0
DA:1445,0
DA:1446,0
DA:1447,0
DA:1448,0
DA:1449,0
DA:1450,0
DA:1451,0
DA:1452,0
DA:1453,0
DA:1454,0
DA:1455,0
DA:1456,0
DA:1457,0
DA:1458,0
DA:1459,0
DA:1463,0
DA:1465,0
DA:1467,0
DA:1468,0
DA:1469,0
DA:1470,0
DA:1471,0
DA:1472,0
DA:1474,0
DA:1475,0
DA:1478,0
DA:1479,0
DA:1480,0
DA:1482,0
DA:1483,0
DA:1484,0
DA:1487,0
DA:1488,0
DA:1489,0
DA:1491,0
DA:1492,0
DA:1494,0
DA:1495,0
DA:1496,0
DA:1499,0
DA:1500,0
DA:1501,0
DA:1502,0
DA:1503,0
DA:1504,0
DA:1505,0
DA:1506,0
DA:1507,0
DA:1508,0
DA:1509,0
DA:1510,0
DA:1512,0
DA:1513,0
DA:1515,0
DA:1516,0
DA:1517,0
DA:1518,0
DA:1519,0
DA:1520,0
DA:1521,0
DA:1522,0
DA:1523,0
DA:1524,0
DA:1525,0
DA:1526,0
DA:1527,0
DA:1528,0
DA:1529,0
DA:1530,0
DA:1531,0
DA:1532,0
DA:1533,0
DA:1534,0
DA:1535,0
DA:1536,0
DA:1537,0
DA:1538,0
DA:1539,0
DA:1540,0
DA:1541,0
DA:1542,0
DA:1543,0
DA:1544,0
DA:1545,0
DA:1546,0
DA:1547,0
DA:1548,0
DA:1549,0
DA:1550,0
DA:1551,0
DA:1552,0
DA:1553,0
DA:1554,0
DA:1555,0
DA:1558,0
DA:1560,0
DA:1562,3
DA:1564,3
DA:1565,1
DA:1566,2
DA:1568,2
DA:1569,0
DA:1570,2
DA:1572,2
DA:1573,2
DA:1574,2
DA:1576,3
DA:1579,0
DA:1580,0
DA:1581,0
DA:1582,0
DA:1583,0
DA:1584,0
DA:1585,0
DA:1586,0
DA:1587,0
DA:1588,0
DA:1589,0
DA:1590,0
DA:1591,0
DA:1592,0
DA:1593,0
DA:1595,0
DA:1597,0
DA:1598,0
DA:1599,0
DA:1601,0
DA:1604,0
DA:1606,0
DA:1607,0
DA:1608,0
DA:1612,0
DA:1614,0
DA:1616,0
DA:1617,0
DA:1620,0
DA:1621,0
DA:1622,0
DA:1623,0
DA:1625,0
DA:1626,0
DA:1628,0
DA:1630,0
DA:1631,0
DA:1633,0
DA:1634,0
DA:1635,0
DA:1636,0
DA:1638,0
DA:1640,0
DA:1641,0
DA:1642,0
DA:1645,0
DA:1646,0
DA:1647,0
DA:1648,0
DA:1649,0
DA:1650,0
DA:1651,0
DA:1652,0
DA:1653,0
DA:1654,0
DA:1655,0
DA:1656,0
DA:1657,0
DA:1658,0
DA:1659,0
DA:1660,0
DA:1661,0
DA:1664,0
DA:1665,0
DA:1666,0
DA:1667,0
DA:1668,0
DA:1671,0
DA:1672,0
DA:1674,0
DA:1675,0
DA:1676,0
DA:1678,0
DA:1684,0
DA:1685,0
DA:1687,0
DA:1689,0
DA:1691,0
DA:1693,0
DA:1694,0
DA:1697,0
DA:1700,0
DA:1701,0
DA:1703,0
DA:1704,0
DA:1706,0
DA:1707,0
DA:1708,0
DA:1709,0
DA:1710,0
DA:1711,0
DA:1713,0
DA:1715,0
DA:1716,0
DA:1717,0
DA:1720,0
DA:1722,0
DA:1729,0
DA:1734,0
DA:1735,0
DA:1743,0
DA:1744,0
DA:1746,0
DA:1748,0
DA:1750,0
DA:1752,0
DA:1754,0
DA:1755,0
DA:1756,0
DA:1757,0
DA:1758,0
DA:1759,0
DA:1760,0
DA:1761,0
DA:1762,0
DA:1764,0
DA:1765,0
DA:1767,0
DA:1772,0
DA:1774,0
DA:1776,0
DA:1777,0
DA:1779,0
DA:1781,0
DA:1782,0
DA:1783,0
DA:1786,0
DA:1787,0
DA:1788,0
DA:1789,0
DA:1790,0
DA:1791,0
DA:1792,0
DA:1793,0
DA:1794,0
DA:1795,0
DA:1796,0
DA:1797,0
DA:1798,0
DA:1799,0
DA:1800,0
DA:1803,0
DA:1804,0
DA:1805,0
DA:1810,0
DA:1812,0
DA:1813,0
DA:1815,0
DA:1817,0
DA:1819,0
DA:1822,0
DA:1823,0
DA:1826,0
DA:1827,0
DA:1828,0
DA:1829,0
DA:1830,0
DA:1831,0
DA:1833,0
DA:1834,0
DA:1835,0
DA:1836,0
DA:1837,0
DA:1838,0
DA:1839,0
DA:1841,0
DA:1844,0
DA:1847,0
DA:1848,0
DA:1849,0
DA:1851,0
DA:1853,0
DA:1855,0
DA:1856,0
DA:1857,0
DA:1858,0
DA:1859,0
DA:1860,0
DA:1862,0
DA:1863,0
DA:1864,0
DA:1865,0
DA:1866,0
DA:1867,0
DA:1868,0
DA:1870,0
DA:1871,0
DA:1872,0
DA:1873,0
DA:1874,0
DA:1876,0
DA:1879,0
DA:1881,0
DA:1883,0
DA:1885,0
DA:1886,0
DA:1887,0
DA:1888,0
DA:1890,0
DA:1891,0
DA:1892,0
DA:1893,0
DA:1894,0
DA:1895,0
DA:1899,0
DA:1900,0
DA:1901,0
DA:1902,0
DA:1903,0
DA:1904,0
DA:1910,0
DA:1911,0
DA:1912,0
DA:1913,0
DA:1914,0
DA:1915,0
DA:1919,0
DA:1921,0
DA:1922,0
DA:1923,0
DA:1928,0
DA:1930,0
DA:1936,0
DA:1937,0
DA:1939,0
DA:1941,0
DA:1943,0
DA:1945,0
DA:1951,0
DA:1952,0
DA:1954,0
DA:1957,0
DA:1959,0
DA:1961,0
DA:1962,0
DA:1964,0
DA:1965,0
DA:1968,0
DA:1969,0
DA:1970,0
DA:1971,0
DA:1972,0
DA:1973,0
DA:1975,0
DA:1976,0
DA:1977,0
DA:1979,0
DA:1982,0
DA:1983,0
DA:1984,0
DA:1985,0
DA:1986,0
DA:1987,0
DA:1988,0
DA:1989,0
DA:1992,0
DA:1993,0
DA:1994,0
DA:1995,0
DA:1996,0
DA:1997,0
DA:1998,0
DA:1999,0
DA:2000,0
DA:2002,0
DA:2003,0
DA:2004,0
DA:2009,0
DA:2011,0
DA:2017,0
DA:2018,0
DA:2019,0
DA:2021,0
DA:2023,0
DA:2025,0
DA:2032,0
DA:2034,0
DA:2035,0
DA:2036,0
DA:2037,0
DA:2038,0
DA:2039,0
DA:2041,0
DA:2042,0
DA:2043,0
DA:2048,0
DA:2050,0
DA:2056,0
DA:2057,0
DA:2059,0
DA:2061,0
DA:2063,0
DA:2065,0
DA:2072,0
DA:2073,0
DA:2075,0
DA:2078,0
DA:2079,0
DA:2080,0
DA:2081,0
DA:2082,0
DA:2083,0
DA:2084,0
DA:2086,0
DA:2088,0
DA:2089,0
DA:2090,0
DA:2091,0
DA:2092,0
DA:2093,0
DA:2094,0
DA:2096,0
DA:2098,0
DA:2099,0
DA:2100,0
DA:2101,0
DA:2102,0
DA:2103,0
DA:2107,0
DA:2109,0
DA:2110,0
DA:2112,0
DA:2116,0
DA:2122,0
DA:2123,0
DA:2124,0
DA:2125,0
DA:2126,0
DA:2130,0
DA:2131,0
DA:2132,0
DA:2133,0
DA:2134,0
DA:2135,0
DA:2137,0
DA:2139,0
DA:2140,0
DA:2145,0
DA:2147,0
DA:2153,0
DA:2154,0
DA:2156,0
DA:2158,0
DA:2160,0
DA:2162,0
DA:2163,0
DA:2164,0
DA:2165,0
DA:2166,0
DA:2167,0
DA:2168,0
DA:2170,0
DA:2175,0
DA:2178,0
DA:2179,0
DA:2181,0
DA:2183,0
DA:2185,0
DA:2187,0
DA:2188,0
DA:2189,0
DA:2190,0
DA:2193,0
DA:2195,0
DA:2197,0
DA:2198,0
DA:2201,0
DA:2202,0
DA:2203,0
DA:2204,0
DA:2205,0
DA:2210,0
DA:2214,0
DA:2216,0
DA:2217,0
DA:2218,0
DA:2219,0
DA:2220,0
DA:2224,0
DA:2226,0
DA:2228,0
DA:2229,0
DA:2232,0
DA:2233,0
DA:2234,0
DA:2235,0
DA:2236,0
DA:2241,0
DA:2245,0
DA:2247,0
DA:2249,0
DA:2250,0
DA:2252,0
DA:2254,0
DA:2256,0
DA:2257,0
DA:2259,0
DA:2260,0
DA:2264,0
DA:2270,0
DA:2271,0
DA:2273,0
DA:2274,0
DA:2275,0
DA:2276,0
DA:2277,0
DA:2278,0
DA:2280,0
DA:2281,0
DA:2282,0
DA:2283,0
DA:2284,0
DA:2285,0
DA:2286,0
DA:2287,0
DA:2288,0
DA:2289,0
DA:2291,0
DA:2292,0
DA:2293,0
DA:2294,0
DA:2295,0
DA:2297,0
DA:2299,0
DA:2300,0
DA:2301,0
DA:2302,0
DA:2303,0
DA:2304,0
DA:2306,0
DA:2307,0
DA:2308,0
DA:2309,0
DA:2311,0
DA:2313,0
DA:2314,0
DA:2315,0
DA:2316,0
DA:2317,0
DA:2318,0
DA:2320,0
DA:2322,0
DA:2323,0
DA:2324,0
DA:2326,0
DA:2329,0
DA:2335,0
DA:2336,0
DA:2337,0
DA:2341,0
DA:2343,0
DA:2344,0
DA:2350,0
DA:2351,0
DA:2352,0
DA:2353,0
DA:2355,0
DA:2357,0
DA:2359,0
DA:2360,0
DA:2362,0
DA:2363,0
DA:2364,0
DA:2367,0
DA:2368,0
DA:2369,0
DA:2370,0
DA:2372,0
DA:2378,0
DA:2379,0
DA:2381,0
DA:2383,0
DA:2384,0
DA:2385,0
DA:2386,0
DA:2387,0
DA:2389,0
DA:2392,0
DA:2394,0
DA:2396,0
DA:2397,0
DA:2398,0
DA:2399,0
DA:2400,0
DA:2401,0
DA:2402,0
DA:2403,0
DA:2405,0
DA:2406,0
DA:2407,0
DA:2408,0
DA:2414,0
DA:2415,0
DA:2416,0
DA:2417,0
DA:2418,0
DA:2419,0
DA:2420,0
DA:2421,0
DA:2425,0
DA:2426,0
DA:2429,0
DA:2430,0
DA:2431,0
DA:2432,0
DA:2433,0
DA:2434,0
DA:2435,0
DA:2437,0
DA:2439,0
DA:2441,0
DA:2443,0
DA:2444,0
DA:2445,0
DA:2447,0
DA:2452,0
DA:2457,0
DA:2459,0
DA:2460,0
DA:2461,0
DA:2462,0
DA:2466,0
DA:2476,7
DA:2477,7
DA:2478,7
DA:2479,7
DA:2480,7
DA:2481,7
DA:2482,7
DA:2484,31
DA:2485,31
DA:2486,31
DA:2487,31
DA:2488,31
DA:2489,31
DA:2491,18
DA:2492,18
DA:2493,18
DA:2498,18
DA:2500,6
DA:2501,6
DA:2502,6
DA:2503,6
DA:2504,6
DA:2505,6
DA:2506,6
DA:2508,6
DA:2509,6
DA:2510,6
DA:2511,6
DA:2512,6
DA:2513,6
DA:2514,6
DA:2515,6
DA:2516,6
DA:2517,6
DA:2518,6
DA:2521,6
DA:2522,6
DA:2523,6
DA:2525,6
DA:2526,6
DA:2527,6
DA:2528,6
DA:2529,6
DA:2530,6
DA:2531,6
DA:2532,6
DA:2533,6
DA:2534,6
DA:2535,6
DA:2536,6
DA:2537,6
DA:2538,6
DA:2541,6
DA:2542,6
DA:2543,6
DA:2544,6
DA:2545,6
DA:2546,6
DA:2547,6
DA:2548,6
DA:2549,6
DA:2550,6
DA:2551,6
DA:2552,6
DA:2553,6
DA:2554,6
DA:2555,6
DA:2556,6
DA:2557,6
DA:2558,6
DA:2559,6
DA:2561,6
DA:2563,6
DA:2566,1
DA:2568,1
DA:2569,1
DA:2570,1
DA:2571,1
DA:2572,1
DA:2574,1
DA:2575,1
DA:2576,1
DA:2577,1
DA:2578,1
DA:2579,1
DA:2582,1
DA:2583,1
DA:2584,1
DA:2585,1
DA:2586,1
DA:2587,1
DA:2590,1
DA:2591,1
DA:2593,1
DA:2594,1
DA:2595,1
DA:2596,1
DA:2597,1
DA:2598,1
DA:2599,1
DA:2600,1
DA:2601,1
DA:2602,1
DA:2603,1
DA:2604,1
DA:2607,1
DA:2608,1
DA:2609,1
DA:2611,1
DA:2613,1
DA:2614,0
DA:2617,1
DA:2618,1
DA:2619,1
DA:2620,2
DA:2621,2
DA:2622,1
DA:2623,1
DA:2625,1
DA:2626,1
DA:2628,1
DA:2629,1
DA:2631,1
DA:2634,1
DA:2636,1
DA:2637,1
DA:2638,1
DA:2639,1
DA:2640,1
DA:2642,1
DA:2643,1
DA:2644,1
DA:2645,1
DA:2646,1
DA:2647,1
DA:2650,1
DA:2651,1
DA:2652,1
DA:2653,1
DA:2654,1
DA:2655,1
DA:2658,1
DA:2659,1
DA:2661,1
DA:2662,1
DA:2663,1
DA:2664,1
DA:2665,1
DA:2666,1
DA:2667,1
DA:2668,1
DA:2669,1
DA:2670,1
DA:2671,1
DA:2672,1
DA:2675,1
DA:2676,1
DA:2677,1
DA:2679,1
DA:2681,1
DA:2682,0
DA:2685,1
DA:2686,1
DA:2687,1
DA:2688,1
DA:2689,1
DA:2691,1
DA:2694,1
DA:2696,1
DA:2697,1
DA:2698,1
DA:2699,1
DA:2701,1
DA:2703,1
DA:2704,1
DA:2705,1
DA:2706,1
DA:2707,1
DA:2708,1
DA:2709,1
DA:2710,1
DA:2713,1
DA:2714,1
DA:2715,1
DA:2717,1
DA:2719,1
DA:2720,0
DA:2723,1
DA:2724,1
DA:2725,1
DA:2726,1
DA:2727,1
DA:2729,1
DA:2732,1
DA:2734,1
DA:2735,1
DA:2736,1
DA:2737,1
DA:2739,1
DA:2741,1
DA:2742,1
DA:2743,1
DA:2744,1
DA:2745,1
DA:2746,1
DA:2747,1
DA:2748,1
DA:2751,1
DA:2752,1
DA:2753,1
DA:2755,1
DA:2756,0
DA:2759,1
DA:2760,1
DA:2761,1
DA:2762,1
DA:2764,1
DA:2767,1
DA:2769,1
DA:2770,1
DA:2771,1
DA:2772,1
DA:2773,1
DA:2775,1
DA:2776,1
DA:2777,1
DA:2778,1
DA:2779,1
DA:2780,1
DA:2783,1
DA:2784,1
DA:2785,1
DA:2786,1
DA:2787,1
DA:2788,1
DA:2791,1
DA:2792,1
DA:2794,1
DA:2795,1
DA:2796,1
DA:2797,1
DA:2798,1
DA:2799,1
DA:2800,1
DA:2801,1
DA:2802,1
DA:2803,1
DA:2804,1
DA:2805,1
DA:2808,1
DA:2809,1
DA:2810,1
DA:2812,1
DA:2813,0
DA:2816,1
DA:2817,1
DA:2818,1
DA:2819,1
DA:2821,1
DA:2824,1
DA:2826,1
DA:2827,1
DA:2828,1
DA:2829,1
DA:2831,1
DA:2833,1
DA:2834,1
DA:2835,1
DA:2836,1
DA:2837,1
DA:2838,1
DA:2839,1
DA:2840,1
DA:2843,1
DA:2844,1
DA:2845,1
DA:2847,1
DA:2848,0
DA:2851,1
DA:2852,1
DA:2853,1
DA:2854,1
DA:2856,1
DA:2859,1
DA:2861,1
DA:2862,1
DA:2863,1
DA:2864,1
DA:2865,1
DA:2866,1
DA:2867,1
DA:2868,1
DA:2871,1
DA:2872,1
DA:2873,1
DA:2874,1
DA:2875,1
DA:2876,1
DA:2877,1
DA:2878,1
DA:2879,1
DA:2882,1
DA:2883,1
DA:2884,1
DA:2886,1
DA:2887,1
DA:2888,1
DA:2891,1
DA:2894,1
DA:2896,1
DA:2897,1
DA:2898,1
DA:2899,1
DA:2900,1
DA:2901,1
DA:2902,1
DA:2903,1
DA:2906,1
DA:2907,1
DA:2908,1
DA:2911,1
DA:2914,1
DA:2916,1
DA:2917,1
DA:2918,1
DA:2919,1
DA:2920,1
DA:2921,1
DA:2922,1
DA:2923,1
DA:2926,1
DA:2927,1
DA:2928,1
DA:2931,1
DA:2934,1
DA:2936,1
DA:2937,1
DA:2938,1
DA:2939,1
DA:2940,1
DA:2941,1
DA:2942,1
DA:2943,1
DA:2946,1
DA:2948,1
DA:2951,1
DA:2953,1
DA:2954,1
DA:2955,1
DA:2956,1
DA:2958,1
DA:2960,1
DA:2961,1
DA:2962,1
DA:2963,1
DA:2964,1
DA:2965,1
DA:2966,1
DA:2967,1
DA:2970,1
DA:2971,1
DA:2972,1
DA:2973,1
DA:2974,1
DA:2975,1
DA:2976,1
DA:2977,1
DA:2980,1
DA:2981,1
DA:2982,1
DA:2983,1
DA:2984,1
DA:2985,1
DA:2986,1
DA:2988,1
DA:2989,1
DA:2990,1
DA:2991,1
DA:2992,1
DA:2993,1
DA:2994,1
DA:2996,1
DA:2997,1
DA:3000,1
DA:3001,1
DA:3002,1
DA:3003,1
DA:3005,1
DA:3008,1
DA:3009,1
DA:3010,1
DA:3011,1
DA:3012,1
DA:3013,1
DA:3015,1
DA:3016,1
DA:3017,1
DA:3018,1
DA:3021,1
DA:3023,1
DA:3024,1
DA:3025,1
DA:3026,1
DA:3027,1
DA:3029,1
DA:3031,1
DA:3032,1
DA:3033,1
DA:3034,1
DA:3035,1
DA:3037,1
DA:3039,1
DA:3040,1
DA:3041,1
DA:3042,1
DA:3043,1
DA:3045,1
DA:3047,1
DA:3050,1
DA:3051,1
DA:3052,1
DA:3053,1
DA:3054,1
DA:3055,1
DA:3058,1
DA:3059,1
DA:3060,1
DA:3061,1
DA:3062,1
DA:3063,1
DA:3066,1
DA:3067,1
DA:3068,1
DA:3069,1
DA:3070,1
DA:3071,1
DA:3074,1
DA:3075,1
DA:3076,1
DA:3077,1
DA:3078,1
DA:3079,1
BRF:0
BRH:0
LF:2127
LH:773
end_of_record
SF:/Users/samcolak/Source Code/rust/distdb/distdb/server/src/core/control/outbound_transport.rs
FN:78,_RNvNtNtNtCsjRwMhjCpbZQ_6server4core7control18outbound_transport28configure_outbound_tls_state
FN:49,_RNvXs0_NtNtNtCsjRwMhjCpbZQ_6server4core7control18outbound_transportNtB5_21OutboundServiceStreamNtNtCsgL88BVMLsDE_3std2io5Write5flush
FN:111,_RNCNvNtNtNtCsjRwMhjCpbZQ_6server4core7control18outbound_transport27connect_tls_outbound_stream0B9_
FN:122,_RNCNvNtNtNtCsjRwMhjCpbZQ_6server4core7control18outbound_transport27connect_tls_outbound_streams0_0B9_
FN:115,_RNCNvNtNtNtCsjRwMhjCpbZQ_6server4core7control18outbound_transport27connect_tls_outbound_streams_0B9_
FN:191,_RNCNvNtNtNtCsjRwMhjCpbZQ_6server4core7control18outbound_transport28send_service_message_to_addr0B9_
FN:207,_RNCNvNtNtNtCsjRwMhjCpbZQ_6server4core7control18outbound_transport28send_service_message_to_addrs0_0B9_
FN:208,_RNCNvNtNtNtCsjRwMhjCpbZQ_6server4core7control18outbound_transport28send_service_message_to_addrs1_0B9_
FN:198,_RNCNvNtNtNtCsjRwMhjCpbZQ_6server4core7control18outbound_transport28send_service_message_to_addrs_0B9_
FN:228,_RNCNvNtNtNtCsjRwMhjCpbZQ_6server4core7control18outbound_transport28send_service_request_to_addr0B9_
FN:244,_RNCNvNtNtNtCsjRwMhjCpbZQ_6server4core7control18outbound_transport28send_service_request_to_addrs0_0B9_
FN:253,_RNCNvNtNtNtCsjRwMhjCpbZQ_6server4core7control18outbound_transport28send_service_request_to_addrs1_0B9_
FN:254,_RNCNvNtNtNtCsjRwMhjCpbZQ_6server4core7control18outbound_transport28send_service_request_to_addrs2_0B9_
FN:285,_RNCNvNtNtNtCsjRwMhjCpbZQ_6server4core7control18outbound_transport28send_service_request_to_addrs3_0B9_
FN:237,_RNCNvNtNtNtCsjRwMhjCpbZQ_6server4core7control18outbound_transport28send_service_request_to_addrs_0B9_
FN:102,_RNCNvNtNtNtCsjRwMhjCpbZQ_6server4core7control18outbound_transport30outbound_server_name_from_addrs_0B9_
FN:137,_RNCNvNtNtNtCsjRwMhjCpbZQ_6server4core7control18outbound_transport31connect_outbound_service_stream0B9_
FN:171,_RNCNvNtNtNtCsjRwMhjCpbZQ_6server4core7control18outbound_transport31connect_outbound_service_streams0_0B9_
FN:145,_RNCNvNtNtNtCsjRwMhjCpbZQ_6server4core7control18outbound_transport31connect_outbound_service_streams_0B9_
FN:67,_RNvMs1_NtNtNtCsjRwMhjCpbZQ_6server4core7control18outbound_transportNtB5_21OutboundServiceStream16set_read_timeout
FN:60,_RNvMs1_NtNtNtCsjRwMhjCpbZQ_6server4core7control18outbound_transportNtB5_21OutboundServiceStream17set_write_timeout
FN:85,_RNvNtNtNtCsjRwMhjCpbZQ_6server4core7control18outbound_transport18outbound_tls_state
FN:105,_RNvNtNtNtCsjRwMhjCpbZQ_6server4core7control18outbound_transport27connect_tls_outbound_stream
FN:182,_RNvNtNtNtCsjRwMhjCpbZQ_6server4core7control18outbound_transport28send_service_message_to_addr
FN:219,_RNvNtNtNtCsjRwMhjCpbZQ_6server4core7control18outbound_transport28send_service_request_to_addr
FN:89,_RNvNtNtNtCsjRwMhjCpbZQ_6server4core7control18outbound_transport30outbound_server_name_from_addr
FN:128,_RNvNtNtNtCsjRwMhjCpbZQ_6server4core7control18outbound_transport31connect_outbound_service_stream
FN:17,_RNvXNtNtNtCsjRwMhjCpbZQ_6server4core7control18outbound_transportNtB2_16OutboundTlsStateNtNtCsfOyy81DYK0U_4core7default7Default7default
FN:42,_RNvXs0_NtNtNtCsjRwMhjCpbZQ_6server4core7control18outbound_transportNtB5_21OutboundServiceStreamNtNtCsgL88BVMLsDE_3std2io5Write5write
FN:32,_RNvXs_NtNtNtCsjRwMhjCpbZQ_6server4core7control18outbound_transportNtB4_21OutboundServiceStreamNtNtCsgL88BVMLsDE_3std2io4Read4read
FNDA:0,_RNvNtNtNtCsjRwMhjCpbZQ_6server4core7control18outbound_transport28configure_outbound_tls_state
FNDA:0,_RNvXs0_NtNtNtCsjRwMhjCpbZQ_6server4core7control18outbound_transportNtB5_21OutboundServiceStreamNtNtCsgL88BVMLsDE_3std2io5Write5flush
FNDA:0,_RNCNvNtNtNtCsjRwMhjCpbZQ_6server4core7control18outbound_transport27connect_tls_outbound_stream0B9_
FNDA:0,_RNCNvNtNtNtCsjRwMhjCpbZQ_6server4core7control18outbound_transport27connect_tls_outbound_streams0_0B9_
FNDA:0,_RNCNvNtNtNtCsjRwMhjCpbZQ_6server4core7control18outbound_transport27connect_tls_outbound_streams_0B9_
FNDA:0,_RNCNvNtNtNtCsjRwMhjCpbZQ_6server4core7control18outbound_transport28send_service_message_to_addr0B9_
FNDA:0,_RNCNvNtNtNtCsjRwMhjCpbZQ_6server4core7control18outbound_transport28send_service_message_to_addrs0_0B9_
FNDA:0,_RNCNvNtNtNtCsjRwMhjCpbZQ_6server4core7control18outbound_transport28send_service_message_to_addrs1_0B9_
FNDA:0,_RNCNvNtNtNtCsjRwMhjCpbZQ_6server4core7control18outbound_transport28send_service_message_to_addrs_0B9_
FNDA:0,_RNCNvNtNtNtCsjRwMhjCpbZQ_6server4core7control18outbound_transport28send_service_request_to_addr0B9_
FNDA:0,_RNCNvNtNtNtCsjRwMhjCpbZQ_6server4core7control18outbound_transport28send_service_request_to_addrs0_0B9_
FNDA:0,_RNCNvNtNtNtCsjRwMhjCpbZQ_6server4core7control18outbound_transport28send_service_request_to_addrs1_0B9_
FNDA:0,_RNCNvNtNtNtCsjRwMhjCpbZQ_6server4core7control18outbound_transport28send_service_request_to_addrs2_0B9_
FNDA:0,_RNCNvNtNtNtCsjRwMhjCpbZQ_6server4core7control18outbound_transport28send_service_request_to_addrs3_0B9_
FNDA:0,_RNCNvNtNtNtCsjRwMhjCpbZQ_6server4core7control18outbound_transport28send_service_request_to_addrs_0B9_
FNDA:0,_RNCNvNtNtNtCsjRwMhjCpbZQ_6server4core7control18outbound_transport30outbound_server_name_from_addrs_0B9_
FNDA:0,_RNCNvNtNtNtCsjRwMhjCpbZQ_6server4core7control18outbound_transport31connect_outbound_service_stream0B9_
FNDA:0,_RNCNvNtNtNtCsjRwMhjCpbZQ_6server4core7control18outbound_transport31connect_outbound_service_streams0_0B9_
FNDA:0,_RNCNvNtNtNtCsjRwMhjCpbZQ_6server4core7control18outbound_transport31connect_outbound_service_streams_0B9_
FNDA:0,_RNvMs1_NtNtNtCsjRwMhjCpbZQ_6server4core7control18outbound_transportNtB5_21OutboundServiceStream16set_read_timeout
FNDA:0,_RNvMs1_NtNtNtCsjRwMhjCpbZQ_6server4core7control18outbound_transportNtB5_21OutboundServiceStream17set_write_timeout
FNDA:0,_RNvNtNtNtCsjRwMhjCpbZQ_6server4core7control18outbound_transport18outbound_tls_state
FNDA:0,_RNvNtNtNtCsjRwMhjCpbZQ_6server4core7control18outbound_transport27connect_tls_outbound_stream
FNDA:0,_RNvNtNtNtCsjRwMhjCpbZQ_6server4core7control18outbound_transport28send_service_message_to_addr
FNDA:0,_RNvNtNtNtCsjRwMhjCpbZQ_6server4core7control18outbound_transport28send_service_request_to_addr
FNDA:0,_RNvNtNtNtCsjRwMhjCpbZQ_6server4core7control18outbound_transport30outbound_server_name_from_addr
FNDA:0,_RNvNtNtNtCsjRwMhjCpbZQ_6server4core7control18outbound_transport31connect_outbound_service_stream
FNDA:0,_RNvXNtNtNtCsjRwMhjCpbZQ_6server4core7control18outbound_transportNtB2_16OutboundTlsStateNtNtCsfOyy81DYK0U_4core7default7Default7default
FNDA:0,_RNvXs0_NtNtNtCsjRwMhjCpbZQ_6server4core7control18outbound_transportNtB5_21OutboundServiceStreamNtNtCsgL88BVMLsDE_3std2io5Write5write
FNDA:0,_RNvXs_NtNtNtCsjRwMhjCpbZQ_6server4core7control18outbound_transportNtB4_21OutboundServiceStreamNtNtCsgL88BVMLsDE_3std2io4Read4read
FNF:30
FNH:0
DA:17,0
DA:18,0
DA:19,0
DA:20,0
DA:21,0
DA:22,0
DA:32,0
DA:33,0
DA:34,0
DA:35,0
DA:37,0
DA:42,0
DA:43,0
DA:44,0
DA:45,0
DA:47,0
DA:49,0
DA:50,0
DA:51,0
DA:52,0
DA:54,0
DA:60,0
DA:61,0
DA:62,0
DA:63,0
DA:65,0
DA:67,0
DA:68,0
DA:69,0
DA:70,0
DA:72,0
DA:78,0
DA:79,0
DA:80,0
DA:81,0
DA:82,0
DA:83,0
DA:85,0
DA:86,0
DA:87,0
DA:89,0
DA:91,0
DA:92,0
DA:93,0
DA:94,0
DA:95,0
DA:96,0
DA:98,0
DA:99,0
DA:100,0
DA:102,0
DA:103,0
DA:105,0
DA:106,0
DA:107,0
DA:108,0
DA:110,0
DA:111,0
DA:113,0
DA:114,0
DA:115,0
DA:117,0
DA:119,0
DA:120,0
DA:121,0
DA:122,0
DA:124,0
DA:126,0
DA:128,0
DA:129,0
DA:130,0
DA:132,0
DA:134,0
DA:135,0
DA:136,0
DA:137,0
DA:138,0
DA:139,0
DA:140,0
DA:141,0
DA:142,0
DA:145,0
DA:146,0
DA:147,0
DA:148,0
DA:149,0
DA:151,0
DA:152,0
DA:156,0
DA:157,0
DA:158,0
DA:159,0
DA:160,0
DA:167,0
DA:169,0
DA:170,0
DA:171,0
DA:172,0
DA:173,0
DA:174,0
DA:175,0
DA:176,0
DA:180,0
DA:182,0
DA:183,0
DA:184,0
DA:185,0
DA:187,0
DA:189,0
DA:190,0
DA:191,0
DA:192,0
DA:193,0
DA:194,0
DA:195,0
DA:196,0
DA:198,0
DA:199,0
DA:200,0
DA:201,0
DA:202,0
DA:204,0
DA:205,0
DA:206,0
DA:207,0
DA:208,0
DA:209,0
DA:210,0
DA:211,0
DA:212,0
DA:213,0
DA:215,0
DA:217,0
DA:219,0
DA:220,0
DA:221,0
DA:222,0
DA:224,0
DA:226,0
DA:227,0
DA:228,0
DA:229,0
DA:230,0
DA:231,0
DA:232,0
DA:233,0
DA:235,0
DA:236,0
DA:237,0
DA:238,0
DA:239,0
DA:240,0
DA:241,0
DA:242,0
DA:244,0
DA:245,0
DA:246,0
DA:247,0
DA:248,0
DA:250,0
DA:251,0
DA:252,0
DA:253,0
DA:254,0
DA:255,0
DA:256,0
DA:257,0
DA:258,0
DA:259,0
DA:263,0
DA:265,0
DA:267,0
DA:268,0
DA:269,0
DA:272,0
DA:273,0
DA:274,0
DA:276,0
DA:277,0
DA:278,0
DA:279,0
DA:280,0
DA:282,0
DA:283,0
DA:285,0
DA:286,0
DA:287,0
DA:288,0
DA:289,0
DA:290,0
DA:292,0
DA:293,0
DA:294,0
DA:298,0
DA:299,0
DA:300,0
DA:301,0
DA:303,0
BRF:0
BRH:0
LF:224
LH:0
end_of_record
SF:/Users/samcolak/Source Code/rust/distdb/distdb/server/src/core/control/p2p_wire.rs
FN:26,_RNvNtNtNtCsjRwMhjCpbZQ_6server4core7control8p2p_wire28peer_node_to_node_descriptor
FN:333,_RNvNtNtNtNtCsjRwMhjCpbZQ_6server4core7control8p2p_wire5testss_36bootstrap_nodes_use_normalized_addrs
FN:269,_RNvNtNtNtNtCsjRwMhjCpbZQ_6server4core7control8p2p_wire5testss_38node_announce_wire_encoding_roundtrips
FN:282,_RNvNtNtNtNtCsjRwMhjCpbZQ_6server4core7control8p2p_wire5testss_39schema_catalog_wire_encoding_roundtrips
FN:299,_RNvNtNtNtNtCsjRwMhjCpbZQ_6server4core7control8p2p_wire5testss_41normalize_bootstrap_addr_parses_bare_port
FN:244,_RNvNtNtNtNtCsjRwMhjCpbZQ_6server4core7control8p2p_wire5testss_41normalize_bootstrap_addr_parses_host_port
FN:256,_RNvNtNtNtNtCsjRwMhjCpbZQ_6server4core7control8p2p_wire5testss_43multiaddr_to_socket_addr_parses_ip4_and_dns
FN:324,_RNvNtNtNtNtCsjRwMhjCpbZQ_6server4core7control8p2p_wire5testss_48advertised_listen_addr_prefers_explicit_override
FN:311,_RNvNtNtNtNtCsjRwMhjCpbZQ_6server4core7control8p2p_wire5testss_53advertised_listen_addr_defaults_wildcard_to_localhost
FN:238,_RNvNtNtNtNtCsjRwMhjCpbZQ_6server4core7control8p2p_wire5testss_54normalize_bootstrap_addr_accepts_multiaddr_passthrough
FN:66,_RNCNvNtNtNtCsjRwMhjCpbZQ_6server4core7control8p2p_wire25affinity_document_to_wire0B9_
FN:76,_RNCNvNtNtNtCsjRwMhjCpbZQ_6server4core7control8p2p_wire25affinity_document_to_wires_0B9_
FN:126,_RNCNvNtNtNtCsjRwMhjCpbZQ_6server4core7control8p2p_wire32advertised_listen_addr_from_args0B9_
FN:188,_RNCNvNtNtNtCsjRwMhjCpbZQ_6server4core7control8p2p_wire32bootstrap_nodes_from_server_list0B9_
FN:98,_RNCNvNtNtNtCsjRwMhjCpbZQ_6server4core7control8p2p_wire32wire_affinity_document_to_domain0B9_
FN:108,_RNCNvNtNtNtCsjRwMhjCpbZQ_6server4core7control8p2p_wire32wire_affinity_document_to_domains_0B9_
FN:221,_RNvNtNtNtCsjRwMhjCpbZQ_6server4core7control8p2p_wire22decode_service_message
FN:214,_RNvNtNtNtCsjRwMhjCpbZQ_6server4core7control8p2p_wire22encode_service_message
FN:34,_RNvNtNtNtCsjRwMhjCpbZQ_6server4core7control8p2p_wire22transaction_id_to_wire
FN:196,_RNvNtNtNtCsjRwMhjCpbZQ_6server4core7control8p2p_wire24multiaddr_to_socket_addr
FN:141,_RNvNtNtNtCsjRwMhjCpbZQ_6server4core7control8p2p_wire24normalize_bootstrap_addr
FN:58,_RNvNtNtNtCsjRwMhjCpbZQ_6server4core7control8p2p_wire25affinity_document_to_wire
FN:18,_RNvNtNtNtCsjRwMhjCpbZQ_6server4core7control8p2p_wire28node_descriptor_to_peer_node
FN:42,_RNvNtNtNtCsjRwMhjCpbZQ_6server4core7control8p2p_wire30affinity_member_status_to_wire
FN:122,_RNvNtNtNtCsjRwMhjCpbZQ_6server4core7control8p2p_wire32advertised_listen_addr_from_args
FN:183,_RNvNtNtNtCsjRwMhjCpbZQ_6server4core7control8p2p_wire32bootstrap_nodes_from_server_list
FN:90,_RNvNtNtNtCsjRwMhjCpbZQ_6server4core7control8p2p_wire32wire_affinity_document_to_domain
FN:50,_RNvNtNtNtCsjRwMhjCpbZQ_6server4core7control8p2p_wire37wire_affinity_member_status_to_domain
FN:38,_RNvNtNtNtCsjRwMhjCpbZQ_6server4core7control8p2p_wire37wire_transaction_id_to_transaction_id
FN:342,_RNCNvNtNtNtNtCsjRwMhjCpbZQ_6server4core7control8p2p_wire5testss_36bootstrap_nodes_use_normalized_addrs0Bb_
FNDA:0,_RNvNtNtNtCsjRwMhjCpbZQ_6server4core7control8p2p_wire28peer_node_to_node_descriptor
FNDA:1,_RNvNtNtNtNtCsjRwMhjCpbZQ_6server4core7control8p2p_wire5testss_36bootstrap_nodes_use_normalized_addrs
FNDA:1,_RNvNtNtNtNtCsjRwMhjCpbZQ_6server4core7control8p2p_wire5testss_38node_announce_wire_encoding_roundtrips
FNDA:1,_RNvNtNtNtNtCsjRwMhjCpbZQ_6server4core7control8p2p_wire5testss_39schema_catalog_wire_encoding_roundtrips
FNDA:1,_RNvNtNtNtNtCsjRwMhjCpbZQ_6server4core7control8p2p_wire5testss_41normalize_bootstrap_addr_parses_bare_port
FNDA:1,_RNvNtNtNtNtCsjRwMhjCpbZQ_6server4core7control8p2p_wire5testss_41normalize_bootstrap_addr_parses_host_port
FNDA:1,_RNvNtNtNtNtCsjRwMhjCpbZQ_6server4core7control8p2p_wire5testss_43multiaddr_to_socket_addr_parses_ip4_and_dns
FNDA:1,_RNvNtNtNtNtCsjRwMhjCpbZQ_6server4core7control8p2p_wire5testss_48advertised_listen_addr_prefers_explicit_override
FNDA:1,_RNvNtNtNtNtCsjRwMhjCpbZQ_6server4core7control8p2p_wire5testss_53advertised_listen_addr_defaults_wildcard_to_localhost
FNDA:1,_RNvNtNtNtNtCsjRwMhjCpbZQ_6server4core7control8p2p_wire5testss_54normalize_bootstrap_addr_accepts_multiaddr_passthrough
FNDA:0,_RNCNvNtNtNtCsjRwMhjCpbZQ_6server4core7control8p2p_wire25affinity_document_to_wire0B9_
FNDA:0,_RNCNvNtNtNtCsjRwMhjCpbZQ_6server4core7control8p2p_wire25affinity_document_to_wires_0B9_
FNDA:4,_RNCNvNtNtNtCsjRwMhjCpbZQ_6server4core7control8p2p_wire32advertised_listen_addr_from_args0B9_
FNDA:2,_RNCNvNtNtNtCsjRwMhjCpbZQ_6server4core7control8p2p_wire32bootstrap_nodes_from_server_list0B9_
FNDA:0,_RNCNvNtNtNtCsjRwMhjCpbZQ_6server4core7control8p2p_wire32wire_affinity_document_to_domain0B9_
FNDA:0,_RNCNvNtNtNtCsjRwMhjCpbZQ_6server4core7control8p2p_wire32wire_affinity_document_to_domains_0B9_
FNDA:2,_RNvNtNtNtCsjRwMhjCpbZQ_6server4core7control8p2p_wire22decode_service_message
FNDA:2,_RNvNtNtNtCsjRwMhjCpbZQ_6server4core7control8p2p_wire22encode_service_message
FNDA:0,_RNvNtNtNtCsjRwMhjCpbZQ_6server4core7control8p2p_wire22transaction_id_to_wire
FNDA:5,_RNvNtNtNtCsjRwMhjCpbZQ_6server4core7control8p2p_wire24multiaddr_to_socket_addr
FNDA:5,_RNvNtNtNtCsjRwMhjCpbZQ_6server4core7control8p2p_wire24normalize_bootstrap_addr
FNDA:0,_RNvNtNtNtCsjRwMhjCpbZQ_6server4core7control8p2p_wire25affinity_document_to_wire
FNDA:0,_RNvNtNtNtCsjRwMhjCpbZQ_6server4core7control8p2p_wire28node_descriptor_to_peer_node
FNDA:0,_RNvNtNtNtCsjRwMhjCpbZQ_6server4core7control8p2p_wire30affinity_member_status_to_wire
FNDA:3,_RNvNtNtNtCsjRwMhjCpbZQ_6server4core7control8p2p_wire32advertised_listen_addr_from_args
FNDA:1,_RNvNtNtNtCsjRwMhjCpbZQ_6server4core7control8p2p_wire32bootstrap_nodes_from_server_list
FNDA:0,_RNvNtNtNtCsjRwMhjCpbZQ_6server4core7control8p2p_wire32wire_affinity_document_to_domain
FNDA:0,_RNvNtNtNtCsjRwMhjCpbZQ_6server4core7control8p2p_wire37wire_affinity_member_status_to_domain
FNDA:0,_RNvNtNtNtCsjRwMhjCpbZQ_6server4core7control8p2p_wire37wire_transaction_id_to_transaction_id
FNDA:2,_RNCNvNtNtNtNtCsjRwMhjCpbZQ_6server4core7control8p2p_wire5testss_36bootstrap_nodes_use_normalized_addrs0Bb_
FNF:30
FNH:18
DA:18,0
DA:19,0
DA:20,0
DA:21,0
DA:22,0
DA:23,0
DA:24,0
DA:26,0
DA:27,0
DA:28,0
DA:29,0
DA:30,0
DA:31,0
DA:32,0
DA:34,0
DA:35,0
DA:36,0
DA:38,0
DA:39,0
DA:40,0
DA:42,0
DA:43,0
DA:44,0
DA:45,0
DA:46,0
DA:48,0
DA:50,0
DA:51,0
DA:52,0
DA:53,0
DA:54,0
DA:56,0
DA:58,0
DA:60,0
DA:61,0
DA:62,0
DA:63,0
DA:64,0
DA:65,0
DA:66,0
DA:67,0
DA:68,0
DA:69,0
DA:70,0
DA:71,0
DA:72,0
DA:73,0
DA:74,0
DA:75,0
DA:76,0
DA:77,0
DA:78,0
DA:79,0
DA:80,0
DA:81,0
DA:82,0
DA:83,0
DA:84,0
DA:85,0
DA:86,0
DA:88,0
DA:90,0
DA:92,0
DA:93,0
DA:94,0
DA:95,0
DA:96,0
DA:97,0
DA:98,0
DA:99,0
DA:100,0
DA:101,0
DA:102,0
DA:103,0
DA:104,0
DA:105,0
DA:106,0
DA:107,0
DA:108,0
DA:109,0
DA:110,0
DA:111,0
DA:112,0
DA:113,0
DA:114,0
DA:115,0
DA:116,0
DA:117,0
DA:118,0
DA:120,0
DA:122,3
DA:124,3
DA:125,3
DA:126,4
DA:128,1
DA:129,1
DA:130,1
DA:131,0
DA:132,2
DA:134,2
DA:135,1
DA:136,1
DA:138,1
DA:139,3
DA:141,5
DA:143,5
DA:144,5
DA:145,0
DA:146,5
DA:148,5
DA:149,1
DA:150,4
DA:152,4
DA:153,1
DA:154,3
DA:156,3
DA:157,1
DA:158,1
DA:159,2
DA:161,2
DA:162,2
DA:163,2
DA:164,2
DA:166,0
DA:169,2
DA:170,0
DA:171,2
DA:173,2
DA:174,1
DA:176,1
DA:179,2
DA:181,5
DA:183,1
DA:185,1
DA:186,1
DA:187,1
DA:188,2
DA:189,2
DA:191,2
DA:192,1
DA:194,1
DA:196,5
DA:198,5
DA:199,5
DA:200,2
DA:201,3
DA:203,3
DA:204,3
DA:205,3
DA:206,3
DA:207,3
DA:209,0
DA:212,5
DA:214,2
DA:215,2
DA:216,2
DA:217,2
DA:218,2
DA:219,2
DA:221,2
DA:222,2
DA:223,0
DA:224,2
DA:226,2
DA:227,0
DA:228,2
DA:230,2
DA:231,2
DA:238,1
DA:239,1
DA:240,1
DA:241,1
DA:244,1
DA:245,1
DA:246,1
DA:247,1
DA:249,1
DA:250,1
DA:251,1
DA:253,1
DA:256,1
DA:257,1
DA:258,1
DA:259,1
DA:261,1
DA:262,1
DA:263,1
DA:265,1
DA:266,1
DA:269,1
DA:270,1
DA:271,1
DA:272,1
DA:273,1
DA:274,1
DA:276,1
DA:277,1
DA:278,1
DA:279,1
DA:282,1
DA:283,1
DA:284,1
DA:285,1
DA:286,1
DA:287,1
DA:288,1
DA:289,1
DA:290,1
DA:291,1
DA:293,1
DA:294,1
DA:295,1
DA:296,1
DA:299,1
DA:300,1
DA:301,1
DA:302,1
DA:304,1
DA:305,1
DA:306,1
DA:308,1
DA:311,1
DA:312,1
DA:313,1
DA:314,1
DA:315,1
DA:317,1
DA:318,1
DA:319,1
DA:321,1
DA:324,1
DA:325,1
DA:326,1
DA:327,1
DA:328,1
DA:330,1
DA:333,1
DA:334,1
DA:335,1
DA:336,1
DA:337,1
DA:339,1
DA:340,1
DA:341,1
DA:342,2
DA:343,1
BRF:0
BRH:0
LF:248
LH:151
end_of_record
SF:/Users/samcolak/Source Code/rust/distdb/distdb/server/src/core/control/replication_sync.rs
FN:75,_RNCNCNCNvNtNtNtCsjRwMhjCpbZQ_6server4core7control16replication_sync31spawn_affinity_replication_task0s0_00Bd_
FN:76,_RNCNCNCNvNtNtNtCsjRwMhjCpbZQ_6server4core7control16replication_sync31spawn_affinity_replication_task0s0_0s_0Bd_
FN:69,_RNCNCNCNvNtNtNtCsjRwMhjCpbZQ_6server4core7control16replication_sync31spawn_affinity_replication_task0s_00Bd_
FN:70,_RNCNCNCNvNtNtNtCsjRwMhjCpbZQ_6server4core7control16replication_sync31spawn_affinity_replication_task0s_0s_0Bd_
FN:57,_RNCNCNvNtNtNtCsjRwMhjCpbZQ_6server4core7control16replication_sync31spawn_affinity_replication_task00Bb_
FN:72,_RNCNCNvNtNtNtCsjRwMhjCpbZQ_6server4core7control16replication_sync31spawn_affinity_replication_task0s0_0Bb_
FN:95,_RNCNCNvNtNtNtCsjRwMhjCpbZQ_6server4core7control16replication_sync31spawn_affinity_replication_task0s1_0Bb_
FN:229,_RNCNCNvNtNtNtCsjRwMhjCpbZQ_6server4core7control16replication_sync31spawn_affinity_replication_task0s2_0Bb_
FN:238,_RNCNCNvNtNtNtCsjRwMhjCpbZQ_6server4core7control16replication_sync31spawn_affinity_replication_task0s3_0Bb_
FN:247,_RNCNCNvNtNtNtCsjRwMhjCpbZQ_6server4core7control16replication_sync31spawn_affinity_replication_task0s5_0Bb_
FN:66,_RNCNCNvNtNtNtCsjRwMhjCpbZQ_6server4core7control16replication_sync31spawn_affinity_replication_task0s_0Bb_
FN:32,_RNCNvNtNtNtCsjRwMhjCpbZQ_6server4core7control16replication_sync31spawn_affinity_replication_task0B9_
FN:436,_RNvNtNtNtCsjRwMhjCpbZQ_6server4core7control16replication_sync29execute_live_wal_catchup_sync
FN:23,_RNvNtNtNtCsjRwMhjCpbZQ_6server4core7control16replication_sync31spawn_affinity_replication_task
FN:302,_RNvNtNtNtCsjRwMhjCpbZQ_6server4core7control16replication_sync32execute_live_schema_catalog_sync
FN:501,_RNCNCNCNvNtNtNtCsjRwMhjCpbZQ_6server4core7control16replication_sync29execute_live_wal_catchup_sync0s_00Bd_
FN:464,_RNCNCNvNtNtNtCsjRwMhjCpbZQ_6server4core7control16replication_sync29execute_live_wal_catchup_sync00Bb_
FN:548,_RNCNCNvNtNtNtCsjRwMhjCpbZQ_6server4core7control16replication_sync29execute_live_wal_catchup_sync0s0_0Bb_
FN:582,_RNCNCNvNtNtNtCsjRwMhjCpbZQ_6server4core7control16replication_sync29execute_live_wal_catchup_sync0s1_0Bb_
FN:499,_RNCNCNvNtNtNtCsjRwMhjCpbZQ_6server4core7control16replication_sync29execute_live_wal_catchup_sync0s_0Bb_
FN:395,_RNCNCNvNtNtNtCsjRwMhjCpbZQ_6server4core7control16replication_sync32execute_live_schema_catalog_sync00Bb_
FN:444,_RNCNvNtNtNtCsjRwMhjCpbZQ_6server4core7control16replication_sync29execute_live_wal_catchup_sync0B9_
FN:310,_RNCNvNtNtNtCsjRwMhjCpbZQ_6server4core7control16replication_sync32execute_live_schema_catalog_sync0B9_
FNDA:0,_RNCNCNCNvNtNtNtCsjRwMhjCpbZQ_6server4core7control16replication_sync31spawn_affinity_replication_task0s0_00Bd_
FNDA:0,_RNCNCNCNvNtNtNtCsjRwMhjCpbZQ_6server4core7control16replication_sync31spawn_affinity_replication_task0s0_0s_0Bd_
FNDA:0,_RNCNCNCNvNtNtNtCsjRwMhjCpbZQ_6server4core7control16replication_sync31spawn_affinity_replication_task0s_00Bd_
FNDA:0,_RNCNCNCNvNtNtNtCsjRwMhjCpbZQ_6server4core7control16replication_sync31spawn_affinity_replication_task0s_0s_0Bd_
FNDA:0,_RNCNCNvNtNtNtCsjRwMhjCpbZQ_6server4core7control16replication_sync31spawn_affinity_replication_task00Bb_
FNDA:0,_RNCNCNvNtNtNtCsjRwMhjCpbZQ_6server4core7control16replication_sync31spawn_affinity_replication_task0s0_0Bb_
FNDA:0,_RNCNCNvNtNtNtCsjRwMhjCpbZQ_6server4core7control16replication_sync31spawn_affinity_replication_task0s1_0Bb_
FNDA:0,_RNCNCNvNtNtNtCsjRwMhjCpbZQ_6server4core7control16replication_sync31spawn_affinity_replication_task0s2_0Bb_
FNDA:0,_RNCNCNvNtNtNtCsjRwMhjCpbZQ_6server4core7control16replication_sync31spawn_affinity_replication_task0s3_0Bb_
FNDA:0,_RNCNCNvNtNtNtCsjRwMhjCpbZQ_6server4core7control16replication_sync31spawn_affinity_replication_task0s5_0Bb_
FNDA:0,_RNCNCNvNtNtNtCsjRwMhjCpbZQ_6server4core7control16replication_sync31spawn_affinity_replication_task0s_0Bb_
FNDA:0,_RNCNvNtNtNtCsjRwMhjCpbZQ_6server4core7control16replication_sync31spawn_affinity_replication_task0B9_
FNDA:0,_RNvNtNtNtCsjRwMhjCpbZQ_6server4core7control16replication_sync29execute_live_wal_catchup_sync
FNDA:0,_RNvNtNtNtCsjRwMhjCpbZQ_6server4core7control16replication_sync31spawn_affinity_replication_task
FNDA:0,_RNvNtNtNtCsjRwMhjCpbZQ_6server4core7control16replication_sync32execute_live_schema_catalog_sync
FNDA:0,_RNCNCNCNvNtNtNtCsjRwMhjCpbZQ_6server4core7control16replication_sync29execute_live_wal_catchup_sync0s_00Bd_
FNDA:0,_RNCNCNvNtNtNtCsjRwMhjCpbZQ_6server4core7control16replication_sync29execute_live_wal_catchup_sync00Bb_
FNDA:0,_RNCNCNvNtNtNtCsjRwMhjCpbZQ_6server4core7control16replication_sync29execute_live_wal_catchup_sync0s0_0Bb_
FNDA:0,_RNCNCNvNtNtNtCsjRwMhjCpbZQ_6server4core7control16replication_sync29execute_live_wal_catchup_sync0s1_0Bb_
FNDA:0,_RNCNCNvNtNtNtCsjRwMhjCpbZQ_6server4core7control16replication_sync29execute_live_wal_catchup_sync0s_0Bb_
FNDA:0,_RNCNCNvNtNtNtCsjRwMhjCpbZQ_6server4core7control16replication_sync32execute_live_schema_catalog_sync00Bb_
FNDA:0,_RNCNvNtNtNtCsjRwMhjCpbZQ_6server4core7control16replication_sync29execute_live_wal_catchup_sync0B9_
FNDA:0,_RNCNvNtNtNtCsjRwMhjCpbZQ_6server4core7control16replication_sync32execute_live_schema_catalog_sync0B9_
FNF:23
FNH:0
DA:23,0
DA:24,0
DA:25,0
DA:26,0
DA:27,0
DA:28,0
DA:29,0
DA:30,0
DA:32,0
DA:34,0
DA:35,0
DA:36,0
DA:37,0
DA:38,0
DA:41,0
DA:43,0
DA:45,0
DA:46,0
DA:47,0
DA:48,0
DA:49,0
DA:51,0
DA:52,0
DA:53,0
DA:55,0
DA:56,0
DA:57,0
DA:58,0
DA:60,0
DA:61,0
DA:62,0
DA:63,0
DA:64,0
DA:65,0
DA:66,0
DA:67,0
DA:68,0
DA:69,0
DA:70,0
DA:71,0
DA:72,0
DA:73,0
DA:74,0
DA:75,0
DA:76,0
DA:77,0
DA:79,0
DA:81,0
DA:87,0
DA:88,0
DA:90,0
DA:91,0
DA:93,0
DA:94,0
DA:95,0
DA:96,0
DA:98,0
DA:100,0
DA:101,0
DA:102,0
DA:103,0
DA:104,0
DA:105,0
DA:106,0
DA:107,0
DA:109,0
DA:111,0
DA:112,0
DA:113,0
DA:114,0
DA:117,0
DA:118,0
DA:126,0
DA:127,0
DA:129,0
DA:131,0
DA:132,0
DA:133,0
DA:135,0
DA:136,0
DA:138,0
DA:139,0
DA:140,0
DA:142,0
DA:143,0
DA:145,0
DA:146,0
DA:148,0
DA:152,0
DA:153,0
DA:154,0
DA:161,0
DA:162,0
DA:167,0
DA:169,0
DA:171,0
DA:173,0
DA:175,0
DA:176,0
DA:177,0
DA:180,0
DA:181,0
DA:182,0
DA:183,0
DA:186,0
DA:188,0
DA:189,0
DA:191,0
DA:193,0
DA:195,0
DA:197,0
DA:198,0
DA:202,0
DA:204,0
DA:205,0
DA:208,0
DA:210,0
DA:211,0
DA:212,0
DA:213,0
DA:215,0
DA:217,0
DA:219,0
DA:221,0
DA:222,0
DA:225,0
DA:226,0
DA:227,0
DA:228,0
DA:229,0
DA:230,0
DA:232,0
DA:233,0
DA:234,0
DA:235,0
DA:236,0
DA:237,0
DA:238,0
DA:239,0
DA:240,0
DA:243,0
DA:245,0
DA:246,0
DA:247,0
DA:248,0
DA:250,0
DA:251,0
DA:252,0
DA:254,0
DA:256,0
DA:258,0
DA:260,0
DA:261,0
DA:262,0
DA:263,0
DA:264,0
DA:265,0
DA:266,0
DA:267,0
DA:269,0
DA:271,0
DA:272,0
DA:273,0
DA:274,0
DA:277,0
DA:278,0
DA:292,0
DA:294,0
DA:300,0
DA:302,0
DA:303,0
DA:304,0
DA:305,0
DA:306,0
DA:307,0
DA:308,0
DA:309,0
DA:310,0
DA:312,0
DA:313,0
DA:314,0
DA:316,0
DA:318,0
DA:319,0
DA:320,0
DA:322,0
DA:323,0
DA:324,0
DA:326,0
DA:328,0
DA:329,0
DA:331,0
DA:332,0
DA:333,0
DA:334,0
DA:335,0
DA:337,0
DA:338,0
DA:339,0
DA:342,0
DA:346,0
DA:347,0
DA:352,0
DA:353,0
DA:355,0
DA:357,0
DA:359,0
DA:360,0
DA:363,0
DA:364,0
DA:365,0
DA:366,0
DA:367,0
DA:368,0
DA:369,0
DA:370,0
DA:371,0
DA:373,0
DA:375,0
DA:381,0
DA:382,0
DA:384,0
DA:387,0
DA:388,0
DA:389,0
DA:391,0
DA:393,0
DA:394,0
DA:395,0
DA:397,0
DA:404,0
DA:406,0
DA:408,0
DA:410,0
DA:411,0
DA:412,0
DA:413,0
DA:414,0
DA:416,0
DA:417,0
DA:418,0
DA:420,0
DA:424,0
DA:425,0
DA:430,0
DA:432,0
DA:434,0
DA:436,0
DA:437,0
DA:438,0
DA:439,0
DA:440,0
DA:441,0
DA:442,0
DA:443,0
DA:444,0
DA:446,0
DA:447,0
DA:448,0
DA:450,0
DA:452,0
DA:454,0
DA:455,0
DA:457,0
DA:458,0
DA:459,0
DA:460,0
DA:461,0
DA:463,0
DA:464,0
DA:465,0
DA:466,0
DA:470,0
DA:474,0
DA:475,0
DA:480,0
DA:481,0
DA:483,0
DA:484,0
DA:486,0
DA:488,0
DA:489,0
DA:492,0
DA:494,0
DA:495,0
DA:496,0
DA:497,0
DA:498,0
DA:499,0
DA:500,0
DA:501,0
DA:502,0
DA:503,0
DA:504,0
DA:508,0
DA:510,0
DA:517,0
DA:518,0
DA:520,0
DA:523,0
DA:524,0
DA:525,0
DA:527,0
DA:528,0
DA:529,0
DA:531,0
DA:532,0
DA:537,0
DA:539,0
DA:541,0
DA:543,0
DA:545,0
DA:546,0
DA:547,0
DA:548,0
DA:549,0
DA:550,0
DA:551,0
DA:552,0
DA:553,0
DA:554,0
DA:557,0
DA:558,0
DA:566,0
DA:567,0
DA:568,0
DA:570,0
DA:574,0
DA:577,0
DA:578,0
DA:580,0
DA:581,0
DA:582,0
DA:583,0
DA:585,0
BRF:0
BRH:0
LF:355
LH:0
end_of_record
SF:/Users/samcolak/Source Code/rust/distdb/distdb/server/src/core/control/schema_catalog.rs
FN:4,_RNvNtNtNtCsjRwMhjCpbZQ_6server4core7control14schema_catalog22resolve_schema_catalog
FN:59,_RNvNtNtNtCsjRwMhjCpbZQ_6server4core7control14schema_catalog24schema_catalog_signature
FN:23,_RNvNtNtNtCsjRwMhjCpbZQ_6server4core7control14schema_catalog29load_schema_catalog_from_disk
FN:77,_RNvNtNtNtCsjRwMhjCpbZQ_6server4core7control14schema_catalog37build_schema_definitions_for_database
FN:129,_RNvNtNtNtCsjRwMhjCpbZQ_6server4core7control14schema_catalog42apply_schema_definitions_to_local_database
FN:20,_RNCNvNtNtNtCsjRwMhjCpbZQ_6server4core7control14schema_catalog22resolve_schema_catalog0B9_
FN:83,_RNCNvNtNtNtCsjRwMhjCpbZQ_6server4core7control14schema_catalog37build_schema_definitions_for_database0B9_
FN:101,_RNCNvNtNtNtCsjRwMhjCpbZQ_6server4core7control14schema_catalog37build_schema_definitions_for_databases1_0B9_
FN:111,_RNCNvNtNtNtCsjRwMhjCpbZQ_6server4core7control14schema_catalog37build_schema_definitions_for_databases2_0B9_
FN:112,_RNCNvNtNtNtCsjRwMhjCpbZQ_6server4core7control14schema_catalog37build_schema_definitions_for_databases3_0B9_
FN:84,_RNCNvNtNtNtCsjRwMhjCpbZQ_6server4core7control14schema_catalog37build_schema_definitions_for_databases_0B9_
FNDA:0,_RNvNtNtNtCsjRwMhjCpbZQ_6server4core7control14schema_catalog22resolve_schema_catalog
FNDA:0,_RNvNtNtNtCsjRwMhjCpbZQ_6server4core7control14schema_catalog24schema_catalog_signature
FNDA:0,_RNvNtNtNtCsjRwMhjCpbZQ_6server4core7control14schema_catalog29load_schema_catalog_from_disk
FNDA:0,_RNvNtNtNtCsjRwMhjCpbZQ_6server4core7control14schema_catalog37build_schema_definitions_for_database
FNDA:0,_RNvNtNtNtCsjRwMhjCpbZQ_6server4core7control14schema_catalog42apply_schema_definitions_to_local_database
FNDA:0,_RNCNvNtNtNtCsjRwMhjCpbZQ_6server4core7control14schema_catalog22resolve_schema_catalog0B9_
FNDA:0,_RNCNvNtNtNtCsjRwMhjCpbZQ_6server4core7control14schema_catalog37build_schema_definitions_for_database0B9_
FNDA:0,_RNCNvNtNtNtCsjRwMhjCpbZQ_6server4core7control14schema_catalog37build_schema_definitions_for_databases1_0B9_
FNDA:0,_RNCNvNtNtNtCsjRwMhjCpbZQ_6server4core7control14schema_catalog37build_schema_definitions_for_databases2_0B9_
FNDA:0,_RNCNvNtNtNtCsjRwMhjCpbZQ_6server4core7control14schema_catalog37build_schema_definitions_for_databases3_0B9_
FNDA:0,_RNCNvNtNtNtCsjRwMhjCpbZQ_6server4core7control14schema_catalog37build_schema_definitions_for_databases_0B9_
FNF:11
FNH:0
DA:4,0
DA:5,0
DA:6,0
DA:7,0
DA:9,0
DA:10,0
DA:11,0
DA:13,0
DA:14,0
DA:15,0
DA:16,0
DA:18,0
DA:19,0
DA:20,0
DA:21,0
DA:23,0
DA:24,0
DA:25,0
DA:26,0
DA:27,0
DA:29,0
DA:30,0
DA:31,0
DA:32,0
DA:34,0
DA:35,0
DA:36,0
DA:37,0
DA:39,0
DA:40,0
DA:41,0
DA:43,0
DA:44,0
DA:45,0
DA:46,0
DA:49,0
DA:56,0
DA:57,0
DA:59,0
DA:60,0
DA:61,0
DA:63,0
DA:64,0
DA:65,0
DA:66,0
DA:67,0
DA:68,0
DA:69,0
DA:70,0
DA:71,0
DA:74,0
DA:75,0
DA:77,0
DA:78,0
DA:79,0
DA:80,0
DA:81,0
DA:82,0
DA:83,0
DA:84,0
DA:86,0
DA:87,0
DA:89,0
DA:91,0
DA:92,0
DA:93,0
DA:96,0
DA:97,0
DA:99,0
DA:100,0
DA:101,0
DA:102,0
DA:103,0
DA:104,0
DA:105,0
DA:106,0
DA:107,0
DA:109,0
DA:110,0
DA:111,0
DA:112,0
DA:113,0
DA:115,0
DA:116,0
DA:117,0
DA:119,0
DA:122,0
DA:126,0
DA:127,0
DA:129,0
DA:130,0
DA:131,0
DA:132,0
DA:133,0
DA:134,0
DA:135,0
BRF:0
BRH:0
LF:102
LH:0
end_of_record
SF:/Users/samcolak/Source Code/rust/distdb/distdb/server/src/core/control/session.rs
FN:169,_RNCNvNtNtNtCsjRwMhjCpbZQ_6server4core7control7session10now_millis0B9_
FN:76,_RNvMNtNtNtCsjRwMhjCpbZQ_6server4core7control7sessionNtB2_23ServerConnectionSession14record_request
FN:107,_RNvMNtNtNtCsjRwMhjCpbZQ_6server4core7control7sessionNtB2_23ServerConnectionSession15mark_disconnect
FN:69,_RNvMNtNtNtCsjRwMhjCpbZQ_6server4core7control7sessionNtB2_23ServerConnectionSession17challenge_message
FN:117,_RNvMNtNtNtCsjRwMhjCpbZQ_6server4core7control7sessionNtB2_23ServerConnectionSession27authenticate_if_valid_token
FN:22,_RNvMNtNtNtCsjRwMhjCpbZQ_6server4core7control7sessionNtB2_23ServerConnectionSession3new
FN:166,_RNvNtNtNtCsjRwMhjCpbZQ_6server4core7control7session10now_millis
FN:151,_RNvNtNtNtCsjRwMhjCpbZQ_6server4core7control7session18extract_auth_token
FN:162,_RNvNtNtNtCsjRwMhjCpbZQ_6server4core7control7session23security_context_secret
FNDA:0,_RNCNvNtNtNtCsjRwMhjCpbZQ_6server4core7control7session10now_millis0B9_
FNDA:0,_RNvMNtNtNtCsjRwMhjCpbZQ_6server4core7control7sessionNtB2_23ServerConnectionSession14record_request
FNDA:0,_RNvMNtNtNtCsjRwMhjCpbZQ_6server4core7control7sessionNtB2_23ServerConnectionSession15mark_disconnect
FNDA:0,_RNvMNtNtNtCsjRwMhjCpbZQ_6server4core7control7sessionNtB2_23ServerConnectionSession17challenge_message
FNDA:0,_RNvMNtNtNtCsjRwMhjCpbZQ_6server4core7control7sessionNtB2_23ServerConnectionSession27authenticate_if_valid_token
FNDA:0,_RNvMNtNtNtCsjRwMhjCpbZQ_6server4core7control7sessionNtB2_23ServerConnectionSession3new
FNDA:0,_RNvNtNtNtCsjRwMhjCpbZQ_6server4core7control7session10now_millis
FNDA:0,_RNvNtNtNtCsjRwMhjCpbZQ_6server4core7control7session18extract_auth_token
FNDA:0,_RNvNtNtNtCsjRwMhjCpbZQ_6server4core7control7session23security_context_secret
FNF:9
FNH:0
DA:22,0
DA:23,0
DA:25,0
DA:26,0
DA:29,0
DA:30,0
DA:31,0
DA:33,0
DA:34,0
DA:35,0
DA:36,0
DA:37,0
DA:38,0
DA:41,0
DA:43,0
DA:44,0
DA:45,0
DA:49,0
DA:50,0
DA:51,0
DA:58,0
DA:59,0
DA:60,0
DA:61,0
DA:62,0
DA:63,0
DA:64,0
DA:65,0
DA:66,0
DA:67,0
DA:69,0
DA:70,0
DA:74,0
DA:76,0
DA:77,0
DA:78,0
DA:79,0
DA:80,0
DA:82,0
DA:83,0
DA:84,0
DA:86,0
DA:87,0
DA:88,0
DA:90,0
DA:91,0
DA:92,0
DA:96,0
DA:97,0
DA:98,0
DA:101,0
DA:105,0
DA:107,0
DA:108,0
DA:110,0
DA:111,0
DA:115,0
DA:117,0
DA:118,0
DA:119,0
DA:120,0
DA:122,0
DA:123,0
DA:124,0
DA:126,0
DA:127,0
DA:128,0
DA:135,0
DA:137,0
DA:138,0
DA:139,0
DA:146,0
DA:148,0
DA:151,0
DA:152,0
DA:153,0
DA:154,0
DA:155,0
DA:156,0
DA:157,0
DA:158,0
DA:159,0
DA:160,0
DA:162,0
DA:163,0
DA:164,0
DA:166,0
DA:167,0
DA:168,0
DA:169,0
DA:170,0
DA:171,0
BRF:0
BRH:0
LF:93
LH:0
end_of_record
SF:/Users/samcolak/Source Code/rust/distdb/distdb/server/src/core/control/tcp_transport.rs
FN:152,_RNCNCNvNtNtNtCsjRwMhjCpbZQ_6server4core7control13tcp_transport27spawn_service_announce_task00Bb_
FN:113,_RNCNvNtNtNtCsjRwMhjCpbZQ_6server4core7control13tcp_transport24spawn_p2p_heartbeat_task0B9_
FN:143,_RNCNvNtNtNtCsjRwMhjCpbZQ_6server4core7control13tcp_transport27spawn_service_announce_task0B9_
FN:23,_RNvMNtNtNtCsjRwMhjCpbZQ_6server4core7control13tcp_transportNtB2_18TcpServerTransport3new
FN:108,_RNvNtNtNtCsjRwMhjCpbZQ_6server4core7control13tcp_transport24spawn_p2p_heartbeat_task
FN:137,_RNvNtNtNtCsjRwMhjCpbZQ_6server4core7control13tcp_transport27spawn_service_announce_task
FN:75,_RNvNtNtNtCsjRwMhjCpbZQ_6server4core7control13tcp_transport29initialize_server_p2p_runtime
FN:37,_RNvXs_NtNtNtCsjRwMhjCpbZQ_6server4core7control13tcp_transportNtB4_18TcpServerTransportNtNtNtCsavwprGDmRzL_7peerlib3p2p9transport9Transport9broadcast
FN:30,_RNvXs_NtNtNtCsjRwMhjCpbZQ_6server4core7control13tcp_transportNtB4_18TcpServerTransportNtNtNtCsavwprGDmRzL_7peerlib3p2p9transport9Transport4send
FN:32,_RNCNvXs_NtNtNtCsjRwMhjCpbZQ_6server4core7control13tcp_transportNtB6_18TcpServerTransportNtNtNtCsavwprGDmRzL_7peerlib3p2p9transport9Transport4send0Bc_
FN:34,_RNCNvXs_NtNtNtCsjRwMhjCpbZQ_6server4core7control13tcp_transportNtB6_18TcpServerTransportNtNtNtCsavwprGDmRzL_7peerlib3p2p9transport9Transport4sends_0Bc_
FNDA:0,_RNCNCNvNtNtNtCsjRwMhjCpbZQ_6server4core7control13tcp_transport27spawn_service_announce_task00Bb_
FNDA:0,_RNCNvNtNtNtCsjRwMhjCpbZQ_6server4core7control13tcp_transport24spawn_p2p_heartbeat_task0B9_
FNDA:0,_RNCNvNtNtNtCsjRwMhjCpbZQ_6server4core7control13tcp_transport27spawn_service_announce_task0B9_
FNDA:0,_RNvMNtNtNtCsjRwMhjCpbZQ_6server4core7control13tcp_transportNtB2_18TcpServerTransport3new
FNDA:0,_RNvNtNtNtCsjRwMhjCpbZQ_6server4core7control13tcp_transport24spawn_p2p_heartbeat_task
FNDA:0,_RNvNtNtNtCsjRwMhjCpbZQ_6server4core7control13tcp_transport27spawn_service_announce_task
FNDA:0,_RNvNtNtNtCsjRwMhjCpbZQ_6server4core7control13tcp_transport29initialize_server_p2p_runtime
FNDA:0,_RNvXs_NtNtNtCsjRwMhjCpbZQ_6server4core7control13tcp_transportNtB4_18TcpServerTransportNtNtNtCsavwprGDmRzL_7peerlib3p2p9transport9Transport9broadcast
FNDA:0,_RNvXs_NtNtNtCsjRwMhjCpbZQ_6server4core7control13tcp_transportNtB4_18TcpServerTransportNtNtNtCsavwprGDmRzL_7peerlib3p2p9transport9Transport4send
FNDA:0,_RNCNvXs_NtNtNtCsjRwMhjCpbZQ_6server4core7control13tcp_transportNtB6_18TcpServerTransportNtNtNtCsavwprGDmRzL_7peerlib3p2p9transport9Transport4send0Bc_
FNDA:0,_RNCNvXs_NtNtNtCsjRwMhjCpbZQ_6server4core7control13tcp_transportNtB6_18TcpServerTransportNtNtNtCsavwprGDmRzL_7peerlib3p2p9transport9Transport4sends_0Bc_
FNF:11
FNH:0
DA:23,0
DA:24,0
DA:25,0
DA:30,0
DA:31,0
DA:32,0
DA:33,0
DA:34,0
DA:35,0
DA:37,0
DA:39,0
DA:40,0
DA:41,0
DA:43,0
DA:44,0
DA:45,0
DA:46,0
DA:47,0
DA:50,0
DA:52,0
DA:53,0
DA:55,0
DA:56,0
DA:61,0
DA:62,0
DA:66,0
DA:67,0
DA:69,0
DA:71,0
DA:75,0
DA:76,0
DA:77,0
DA:78,0
DA:79,0
DA:80,0
DA:81,0
DA:83,0
DA:84,0
DA:85,0
DA:86,0
DA:87,0
DA:90,0
DA:91,0
DA:93,0
DA:94,0
DA:97,0
DA:98,0
DA:99,0
DA:100,0
DA:101,0
DA:102,0
DA:104,0
DA:106,0
DA:108,0
DA:109,0
DA:110,0
DA:111,0
DA:113,0
DA:115,0
DA:118,0
DA:120,0
DA:121,0
DA:122,0
DA:123,0
DA:125,0
DA:126,0
DA:127,0
DA:129,0
DA:130,0
DA:135,0
DA:137,0
DA:138,0
DA:139,0
DA:140,0
DA:141,0
DA:143,0
DA:145,0
DA:148,0
DA:150,0
DA:151,0
DA:152,0
DA:153,0
DA:155,0
DA:156,0
DA:157,0
DA:160,0
DA:161,0
DA:162,0
DA:163,0
DA:165,0
DA:166,0
DA:167,0
DA:168,0
DA:169,0
DA:170,0
DA:171,0
DA:172,0
DA:173,0
DA:174,0
DA:175,0
DA:176,0
DA:181,0
DA:188,0
BRF:0
BRH:0
LF:108
LH:0
end_of_record
SF:/Users/samcolak/Source Code/rust/distdb/distdb/server/src/core/control/tls_support.rs
FN:99,_RNCNvNtNtNtCsjRwMhjCpbZQ_6server4core7control11tls_support18build_tls_acceptor0B9_
FN:112,_RNCNvNtNtNtCsjRwMhjCpbZQ_6server4core7control11tls_support18build_tls_acceptors0_0B9_
FN:104,_RNCNvNtNtNtCsjRwMhjCpbZQ_6server4core7control11tls_support18build_tls_acceptors_0B9_
FN:77,_RNCNvNtNtNtCsjRwMhjCpbZQ_6server4core7control11tls_support20load_tls_private_key0B9_
FN:83,_RNCNvNtNtNtCsjRwMhjCpbZQ_6server4core7control11tls_support20load_tls_private_keys0_0B9_
FN:82,_RNCNvNtNtNtCsjRwMhjCpbZQ_6server4core7control11tls_support20load_tls_private_keys_0B9_
FN:55,_RNCNvNtNtNtCsjRwMhjCpbZQ_6server4core7control11tls_support21load_tls_certificates0B9_
FN:61,_RNCNvNtNtNtCsjRwMhjCpbZQ_6server4core7control11tls_support21load_tls_certificatess_0B9_
FN:126,_RNCNvNtNtNtCsjRwMhjCpbZQ_6server4core7control11tls_support23build_tls_client_config0B9_
FN:137,_RNCNvNtNtNtCsjRwMhjCpbZQ_6server4core7control11tls_support23build_tls_client_configs_0B9_
FN:31,_RNCNvNtNtNtCsjRwMhjCpbZQ_6server4core7control11tls_support26parse_tls_config_from_args0B9_
FN:41,_RNCNvNtNtNtCsjRwMhjCpbZQ_6server4core7control11tls_support26parse_tls_config_from_argss0_0B9_
FN:36,_RNCNvNtNtNtCsjRwMhjCpbZQ_6server4core7control11tls_support26parse_tls_config_from_argss_0B9_
FN:94,_RNvNtNtNtCsjRwMhjCpbZQ_6server4core7control11tls_support18build_tls_acceptor
FN:74,_RNvNtNtNtCsjRwMhjCpbZQ_6server4core7control11tls_support20load_tls_private_key
FN:52,_RNvNtNtNtCsjRwMhjCpbZQ_6server4core7control11tls_support21load_tls_certificates
FN:120,_RNvNtNtNtCsjRwMhjCpbZQ_6server4core7control11tls_support23build_tls_client_config
FN:161,_RNvNtNtNtCsjRwMhjCpbZQ_6server4core7control11tls_support26negotiate_connector_stream
FN:27,_RNvNtNtNtCsjRwMhjCpbZQ_6server4core7control11tls_support26parse_tls_config_from_args
FN:236,_RNvNtNtNtNtCsjRwMhjCpbZQ_6server4core7control11tls_support5testss_28default_tls_mode_is_optional
FN:257,_RNvNtNtNtNtCsjRwMhjCpbZQ_6server4core7control11tls_support5testss_28invalid_tls_mode_is_rejected
FN:250,_RNvNtNtNtNtCsjRwMhjCpbZQ_6server4core7control11tls_support5testss_33explicit_tls_required_is_accepted
FN:243,_RNvNtNtNtNtCsjRwMhjCpbZQ_6server4core7control11tls_support5testss_34explicit_tls_off_overrides_default
FN:173,_RNCNCNvNtNtNtCsjRwMhjCpbZQ_6server4core7control11tls_support26negotiate_connector_stream00Bb_
FN:214,_RNCNCNvNtNtNtCsjRwMhjCpbZQ_6server4core7control11tls_support26negotiate_connector_stream0s0_0Bb_
FN:179,_RNCNCNvNtNtNtCsjRwMhjCpbZQ_6server4core7control11tls_support26negotiate_connector_stream0s_0Bb_
FN:20,_RNCNvNtNtNtCsjRwMhjCpbZQ_6server4core7control11tls_support24parse_tls_mode_from_args0B9_
FN:22,_RNCNvNtNtNtCsjRwMhjCpbZQ_6server4core7control11tls_support24parse_tls_mode_from_argss_0B9_
FN:166,_RNCNvNtNtNtCsjRwMhjCpbZQ_6server4core7control11tls_support26negotiate_connector_stream0B9_
FN:19,_RNvNtNtNtCsjRwMhjCpbZQ_6server4core7control11tls_support24parse_tls_mode_from_args
FN:156,_RNvNtNtNtCsjRwMhjCpbZQ_6server4core7control11tls_support27looks_like_tls_client_hello
FNDA:0,_RNCNvNtNtNtCsjRwMhjCpbZQ_6server4core7control11tls_support18build_tls_acceptor0B9_
FNDA:0,_RNCNvNtNtNtCsjRwMhjCpbZQ_6server4core7control11tls_support18build_tls_acceptors0_0B9_
FNDA:0,_RNCNvNtNtNtCsjRwMhjCpbZQ_6server4core7control11tls_support18build_tls_acceptors_0B9_
FNDA:0,_RNCNvNtNtNtCsjRwMhjCpbZQ_6server4core7control11tls_support20load_tls_private_key0B9_
FNDA:0,_RNCNvNtNtNtCsjRwMhjCpbZQ_6server4core7control11tls_support20load_tls_private_keys0_0B9_
FNDA:0,_RNCNvNtNtNtCsjRwMhjCpbZQ_6server4core7control11tls_support20load_tls_private_keys_0B9_
FNDA:0,_RNCNvNtNtNtCsjRwMhjCpbZQ_6server4core7control11tls_support21load_tls_certificates0B9_
FNDA:0,_RNCNvNtNtNtCsjRwMhjCpbZQ_6server4core7control11tls_support21load_tls_certificatess_0B9_
FNDA:0,_RNCNvNtNtNtCsjRwMhjCpbZQ_6server4core7control11tls_support23build_tls_client_config0B9_
FNDA:0,_RNCNvNtNtNtCsjRwMhjCpbZQ_6server4core7control11tls_support23build_tls_client_configs_0B9_
FNDA:0,_RNCNvNtNtNtCsjRwMhjCpbZQ_6server4core7control11tls_support26parse_tls_config_from_args0B9_
FNDA:0,_RNCNvNtNtNtCsjRwMhjCpbZQ_6server4core7control11tls_support26parse_tls_config_from_argss0_0B9_
FNDA:0,_RNCNvNtNtNtCsjRwMhjCpbZQ_6server4core7control11tls_support26parse_tls_config_from_argss_0B9_
FNDA:0,_RNvNtNtNtCsjRwMhjCpbZQ_6server4core7control11tls_support18build_tls_acceptor
FNDA:0,_RNvNtNtNtCsjRwMhjCpbZQ_6server4core7control11tls_support20load_tls_private_key
FNDA:0,_RNvNtNtNtCsjRwMhjCpbZQ_6server4core7control11tls_support21load_tls_certificates
FNDA:0,_RNvNtNtNtCsjRwMhjCpbZQ_6server4core7control11tls_support23build_tls_client_config
FNDA:0,_RNvNtNtNtCsjRwMhjCpbZQ_6server4core7control11tls_support26negotiate_connector_stream
FNDA:0,_RNvNtNtNtCsjRwMhjCpbZQ_6server4core7control11tls_support26parse_tls_config_from_args
FNDA:1,_RNvNtNtNtNtCsjRwMhjCpbZQ_6server4core7control11tls_support5testss_28default_tls_mode_is_optional
FNDA:1,_RNvNtNtNtNtCsjRwMhjCpbZQ_6server4core7control11tls_support5testss_28invalid_tls_mode_is_rejected
FNDA:1,_RNvNtNtNtNtCsjRwMhjCpbZQ_6server4core7control11tls_support5testss_33explicit_tls_required_is_accepted
FNDA:1,_RNvNtNtNtNtCsjRwMhjCpbZQ_6server4core7control11tls_support5testss_34explicit_tls_off_overrides_default
FNDA:0,_RNCNCNvNtNtNtCsjRwMhjCpbZQ_6server4core7control11tls_support26negotiate_connector_stream00Bb_
FNDA:0,_RNCNCNvNtNtNtCsjRwMhjCpbZQ_6server4core7control11tls_support26negotiate_connector_stream0s0_0Bb_
FNDA:0,_RNCNCNvNtNtNtCsjRwMhjCpbZQ_6server4core7control11tls_support26negotiate_connector_stream0s_0Bb_
FNDA:3,_RNCNvNtNtNtCsjRwMhjCpbZQ_6server4core7control11tls_support24parse_tls_mode_from_args0B9_
FNDA:1,_RNCNvNtNtNtCsjRwMhjCpbZQ_6server4core7control11tls_support24parse_tls_mode_from_argss_0B9_
FNDA:0,_RNCNvNtNtNtCsjRwMhjCpbZQ_6server4core7control11tls_support26negotiate_connector_stream0B9_
FNDA:4,_RNvNtNtNtCsjRwMhjCpbZQ_6server4core7control11tls_support24parse_tls_mode_from_args
FNDA:0,_RNvNtNtNtCsjRwMhjCpbZQ_6server4core7control11tls_support27looks_like_tls_client_hello
FNF:31
FNH:7
DA:19,4
DA:20,4
DA:21,3
DA:22,3
DA:23,1
DA:25,4
DA:27,0
DA:29,0
DA:30,0
DA:31,0
DA:32,0
DA:34,0
DA:35,0
DA:36,0
DA:37,0
DA:39,0
DA:40,0
DA:41,0
DA:42,0
DA:44,0
DA:45,0
DA:46,0
DA:47,0
DA:48,0
DA:50,0
DA:52,0
DA:54,0
DA:55,0
DA:57,0
DA:59,0
DA:60,0
DA:61,0
DA:63,0
DA:64,0
DA:65,0
DA:66,0
DA:67,0
DA:68,0
DA:70,0
DA:72,0
DA:74,0
DA:76,0
DA:77,0
DA:79,0
DA:81,0
DA:82,0
DA:83,0
DA:84,0
DA:86,0
DA:88,0
DA:90,0
DA:92,0
DA:94,0
DA:96,0
DA:97,0
DA:98,0
DA:99,0
DA:101,0
DA:102,0
DA:103,0
DA:104,0
DA:106,0
DA:107,0
DA:109,0
DA:110,0
DA:111,0
DA:112,0
DA:114,0
DA:116,0
DA:118,0
DA:120,0
DA:122,0
DA:123,0
DA:124,0
DA:125,0
DA:126,0
DA:127,0
DA:128,0
DA:129,0
DA:131,0
DA:132,0
DA:133,0
DA:134,0
DA:135,0
DA:136,0
DA:137,0
DA:140,0
DA:141,0
DA:142,0
DA:143,0
DA:144,0
DA:145,0
DA:147,0
DA:148,0
DA:149,0
DA:150,0
DA:152,0
DA:154,0
DA:156,0
DA:158,0
DA:159,0
DA:161,0
DA:162,0
DA:163,0
DA:164,0
DA:165,0
DA:166,0
DA:168,0
DA:170,0
DA:173,0
DA:174,0
DA:175,0
DA:178,0
DA:179,0
DA:180,0
DA:181,0
DA:182,0
DA:184,0
DA:185,0
DA:189,0
DA:190,0
DA:193,0
DA:194,0
DA:195,0
DA:196,0
DA:198,0
DA:200,0
DA:201,0
DA:205,0
DA:209,0
DA:210,0
DA:211,0
DA:213,0
DA:214,0
DA:215,0
DA:216,0
DA:217,0
DA:219,0
DA:220,0
DA:221,0
DA:223,0
DA:228,0
DA:236,1
DA:237,1
DA:238,1
DA:239,1
DA:240,1
DA:243,1
DA:244,1
DA:245,1
DA:246,1
DA:247,1
DA:250,1
DA:251,1
DA:252,1
DA:253,1
DA:254,1
DA:257,1
DA:258,1
DA:259,1
DA:260,1
BRF:0
BRH:0
LF:185
LH:27
end_of_record
SF:/Users/samcolak/Source Code/rust/distdb/distdb/server/src/core/control/wire_io.rs
FN:7,_RINvNtNtNtCsjRwMhjCpbZQ_6server4core7control7wire_io20write_response_frameINtNtCslDfkGcRelIg_5alloc5boxed3BoxDNtNtB4_11tls_support14AsyncReadWriteEL_EEB8_
FN:18,_RINvNtNtNtCsjRwMhjCpbZQ_6server4core7control7wire_io31write_service_message_to_streamINtNtCslDfkGcRelIg_5alloc5boxed3BoxDNtNtB4_11tls_support14AsyncReadWriteEL_EEB8_
FN:10,_RNCINvNtNtNtCsjRwMhjCpbZQ_6server4core7control7wire_io20write_response_frameINtNtCslDfkGcRelIg_5alloc5boxed3BoxDNtNtB6_11tls_support14AsyncReadWriteEL_EE0Ba_
FN:21,_RNCINvNtNtNtCsjRwMhjCpbZQ_6server4core7control7wire_io31write_service_message_to_streamINtNtCslDfkGcRelIg_5alloc5boxed3BoxDNtNtB6_11tls_support14AsyncReadWriteEL_EE0Ba_
FNDA:0,_RINvNtNtNtCsjRwMhjCpbZQ_6server4core7control7wire_io20write_response_frameINtNtCslDfkGcRelIg_5alloc5boxed3BoxDNtNtB4_11tls_support14AsyncReadWriteEL_EEB8_
FNDA:0,_RINvNtNtNtCsjRwMhjCpbZQ_6server4core7control7wire_io31write_service_message_to_streamINtNtCslDfkGcRelIg_5alloc5boxed3BoxDNtNtB4_11tls_support14AsyncReadWriteEL_EEB8_
FNDA:0,_RNCINvNtNtNtCsjRwMhjCpbZQ_6server4core7control7wire_io20write_response_frameINtNtCslDfkGcRelIg_5alloc5boxed3BoxDNtNtB6_11tls_support14AsyncReadWriteEL_EE0Ba_
FNDA:0,_RNCINvNtNtNtCsjRwMhjCpbZQ_6server4core7control7wire_io31write_service_message_to_streamINtNtCslDfkGcRelIg_5alloc5boxed3BoxDNtNtB6_11tls_support14AsyncReadWriteEL_EE0Ba_
FNF:4
FNH:0
DA:7,0
DA:8,0
DA:9,0
DA:10,0
DA:11,0
DA:12,0
DA:13,0
DA:14,0
DA:15,0
DA:16,0
DA:18,0
DA:19,0
DA:20,0
DA:21,0
DA:22,0
DA:23,0
DA:24,0
DA:25,0
DA:26,0
DA:27,0
BRF:0
BRH:0
LF:22
LH:0
end_of_record
SF:/Users/samcolak/Source Code/rust/distdb/distdb/server/src/core/mappings/perf.rs
FN:21,_RNvMs_NtNtNtCsjRwMhjCpbZQ_6server4core8mappings4perfNtB4_21QueryTimingThresholds8from_env
FN:43,_RNvNtNtNtCsjRwMhjCpbZQ_6server4core8mappings4perf8env_u128
FN:36,_RNvNtNtNtCsjRwMhjCpbZQ_6server4core8mappings4perf9env_usize
FN:10,_RNvXNtNtNtCsjRwMhjCpbZQ_6server4core8mappings4perfNtB2_21QueryTimingThresholdsNtNtCsfOyy81DYK0U_4core7default7Default7default
FN:46,_RNCNvNtNtNtCsjRwMhjCpbZQ_6server4core8mappings4perf8env_u1280B9_
FN:39,_RNCNvNtNtNtCsjRwMhjCpbZQ_6server4core8mappings4perf9env_usize0B9_
FNDA:1,_RNvMs_NtNtNtCsjRwMhjCpbZQ_6server4core8mappings4perfNtB4_21QueryTimingThresholds8from_env
FNDA:3,_RNvNtNtNtCsjRwMhjCpbZQ_6server4core8mappings4perf8env_u128
FNDA:1,_RNvNtNtNtCsjRwMhjCpbZQ_6server4core8mappings4perf9env_usize
FNDA:1,_RNvXNtNtNtCsjRwMhjCpbZQ_6server4core8mappings4perfNtB2_21QueryTimingThresholdsNtNtCsfOyy81DYK0U_4core7default7Default7default
FNDA:0,_RNCNvNtNtNtCsjRwMhjCpbZQ_6server4core8mappings4perf8env_u1280B9_
FNDA:0,_RNCNvNtNtNtCsjRwMhjCpbZQ_6server4core8mappings4perf9env_usize0B9_
FNF:6
FNH:4
DA:10,1
DA:11,1
DA:12,1
DA:13,1
DA:14,1
DA:15,1
DA:16,1
DA:17,1
DA:21,1
DA:22,1
DA:24,1
DA:25,1
DA:26,1
DA:27,1
DA:28,1
DA:29,1
DA:30,1
DA:31,1
DA:32,1
DA:33,1
DA:36,1
DA:37,1
DA:38,1
DA:39,1
DA:40,1
DA:41,1
DA:43,3
DA:44,3
DA:45,3
DA:46,3
DA:47,3
DA:48,3
BRF:0
BRH:0
LF:34
LH:32
end_of_record
SF:/Users/samcolak/Source Code/rust/distdb/distdb/server/src/core/mappings/query/catalogs.rs
FN:45,_RNCNvNtNtNtNtCsjRwMhjCpbZQ_6server4core8mappings5query8catalogs35resolve_catalog_for_table_reference0Bb_
FN:55,_RNCNvNtNtNtNtCsjRwMhjCpbZQ_6server4core8mappings5query8catalogs35resolve_catalog_for_table_references_0Bb_
FN:32,_RNvNtNtNtNtCsjRwMhjCpbZQ_6server4core8mappings5query8catalogs35resolve_catalog_for_table_reference
FN:5,_RNvNtNtNtNtCsjRwMhjCpbZQ_6server4core8mappings5query8catalogs15resolve_catalog
FN:18,_RNvNtNtNtNtCsjRwMhjCpbZQ_6server4core8mappings5query8catalogs19resolve_catalog_mut
FN:62,_RNvNtNtNtNtCsjRwMhjCpbZQ_6server4core8mappings5query8catalogs39resolve_catalog_for_table_reference_mut
FN:13,_RNCNCNvNtNtNtNtCsjRwMhjCpbZQ_6server4core8mappings5query8catalogs15resolve_catalog00Bd_
FN:10,_RNCNvNtNtNtNtCsjRwMhjCpbZQ_6server4core8mappings5query8catalogs15resolve_catalog0Bb_
FN:75,_RNCNvNtNtNtNtCsjRwMhjCpbZQ_6server4core8mappings5query8catalogs39resolve_catalog_for_table_reference_mut0Bb_
FN:85,_RNCNvNtNtNtNtCsjRwMhjCpbZQ_6server4core8mappings5query8catalogs39resolve_catalog_for_table_reference_muts_0Bb_
FNDA:0,_RNCNvNtNtNtNtCsjRwMhjCpbZQ_6server4core8mappings5query8catalogs35resolve_catalog_for_table_reference0Bb_
FNDA:0,_RNCNvNtNtNtNtCsjRwMhjCpbZQ_6server4core8mappings5query8catalogs35resolve_catalog_for_table_references_0Bb_
FNDA:0,_RNvNtNtNtNtCsjRwMhjCpbZQ_6server4core8mappings5query8catalogs35resolve_catalog_for_table_reference
FNDA:510,_RNvNtNtNtNtCsjRwMhjCpbZQ_6server4core8mappings5query8catalogs15resolve_catalog
FNDA:713,_RNvNtNtNtNtCsjRwMhjCpbZQ_6server4core8mappings5query8catalogs19resolve_catalog_mut
FNDA:86,_RNvNtNtNtNtCsjRwMhjCpbZQ_6server4core8mappings5query8catalogs39resolve_catalog_for_table_reference_mut
FNDA:4,_RNCNCNvNtNtNtNtCsjRwMhjCpbZQ_6server4core8mappings5query8catalogs15resolve_catalog00Bd_
FNDA:4,_RNCNvNtNtNtNtCsjRwMhjCpbZQ_6server4core8mappings5query8catalogs15resolve_catalog0Bb_
FNDA:2,_RNCNvNtNtNtNtCsjRwMhjCpbZQ_6server4core8mappings5query8catalogs39resolve_catalog_for_table_reference_mut0Bb_
FNDA:84,_RNCNvNtNtNtNtCsjRwMhjCpbZQ_6server4core8mappings5query8catalogs39resolve_catalog_for_table_reference_muts_0Bb_
FNF:10
FNH:7
DA:5,510
DA:6,510
DA:7,510
DA:8,510
DA:10,510
DA:11,4
DA:12,4
DA:13,4
DA:14,4
DA:16,510
DA:18,713
DA:19,713
DA:20,713
DA:21,713
DA:23,713
DA:24,699
DA:25,14
DA:27,14
DA:28,14
DA:30,713
DA:32,0
DA:33,0
DA:34,0
DA:35,0
DA:36,0
DA:38,0
DA:39,0
DA:41,0
DA:42,0
DA:43,0
DA:45,0
DA:46,0
DA:48,0
DA:50,0
DA:51,0
DA:52,0
DA:54,0
DA:55,0
DA:56,0
DA:58,0
DA:60,0
DA:62,86
DA:63,86
DA:64,86
DA:65,86
DA:66,86
DA:68,86
DA:69,2
DA:71,2
DA:72,0
DA:73,2
DA:75,2
DA:76,84
DA:78,84
DA:80,84
DA:81,0
DA:82,84
DA:84,84
DA:85,84
DA:86,0
DA:88,0
DA:90,86
BRF:0
BRH:0
LF:68
LH:41
end_of_record
SF:/Users/samcolak/Source Code/rust/distdb/distdb/server/src/core/mappings/query/core/ddl_ops.rs
FN:1212,_RNCNvNtNtNtNtNtCsjRwMhjCpbZQ_6server4core8mappings5query4core7ddl_ops23persist_entity_snapshot0Bd_
FN:1226,_RNCNvNtNtNtNtNtCsjRwMhjCpbZQ_6server4core8mappings5query4core7ddl_ops23persist_entity_snapshots0_0Bd_
FN:1215,_RNCNvNtNtNtNtNtCsjRwMhjCpbZQ_6server4core8mappings5query4core7ddl_ops23persist_entity_snapshots_0Bd_
FN:162,_RNCNvNtNtNtNtNtCsjRwMhjCpbZQ_6server4core8mappings5query4core7ddl_ops24execute_alter_table_impls0_0Bd_
FN:121,_RNCNvNtNtNtNtNtCsjRwMhjCpbZQ_6server4core8mappings5query4core7ddl_ops24execute_alter_table_impls_0Bd_
FN:355,_RNCNvNtNtNtNtNtCsjRwMhjCpbZQ_6server4core8mappings5query4core7ddl_ops25execute_create_table_impl0Bd_
FN:400,_RNCNvNtNtNtNtNtCsjRwMhjCpbZQ_6server4core8mappings5query4core7ddl_ops25execute_create_table_impls0_0Bd_
FN:358,_RNCNvNtNtNtNtNtCsjRwMhjCpbZQ_6server4core8mappings5query4core7ddl_ops25execute_create_table_impls_0Bd_
FN:1092,_RNCNvNtNtNtNtNtCsjRwMhjCpbZQ_6server4core8mappings5query4core7ddl_ops26append_payload_record_pair0Bd_
FN:1095,_RNCNvNtNtNtNtNtCsjRwMhjCpbZQ_6server4core8mappings5query4core7ddl_ops26append_payload_record_pairs_0Bd_
FN:1115,_RNCNvNtNtNtNtNtCsjRwMhjCpbZQ_6server4core8mappings5query4core7ddl_ops30apply_entity_metadata_with_wal0Bd_
FN:1124,_RNCNvNtNtNtNtNtCsjRwMhjCpbZQ_6server4core8mappings5query4core7ddl_ops30apply_entity_metadata_with_wals_0Bd_
FN:1163,_RNCNvNtNtNtNtNtCsjRwMhjCpbZQ_6server4core8mappings5query4core7ddl_ops37append_sql_definition_upsert_with_wal0Bd_
FN:248,_RNCNvNtNtNtNtNtCsjRwMhjCpbZQ_6server4core8mappings5query4core7ddl_ops40parse_create_database_encryption_key_ref0Bd_
FN:1243,_RNvNtNtNtNtNtCsjRwMhjCpbZQ_6server4core8mappings5query4core7ddl_ops20entity_snapshot_path
FN:535,_RNvNtNtNtNtNtCsjRwMhjCpbZQ_6server4core8mappings5query4core7ddl_ops21execute_drop_database
FN:1203,_RNvNtNtNtNtNtCsjRwMhjCpbZQ_6server4core8mappings5query4core7ddl_ops23persist_entity_snapshot
FN:4,_RNvNtNtNtNtNtCsjRwMhjCpbZQ_6server4core8mappings5query4core7ddl_ops24execute_alter_table_impl
FN:772,_RNvNtNtNtNtNtCsjRwMhjCpbZQ_6server4core8mappings5query4core7ddl_ops24execute_create_view_impl
FN:282,_RNvNtNtNtNtNtCsjRwMhjCpbZQ_6server4core8mappings5query4core7ddl_ops25execute_create_table_impl
FN:1178,_RNvNtNtNtNtNtCsjRwMhjCpbZQ_6server4core8mappings5query4core7ddl_ops25remove_table_stream_files
FN:1075,_RNvNtNtNtNtNtCsjRwMhjCpbZQ_6server4core8mappings5query4core7ddl_ops26append_payload_record_pair
FN:596,_RNvNtNtNtNtNtCsjRwMhjCpbZQ_6server4core8mappings5query4core7ddl_ops26execute_drop_entity_object
FN:884,_RNvNtNtNtNtNtCsjRwMhjCpbZQ_6server4core8mappings5query4core7ddl_ops27execute_create_trigger_impl
FN:474,_RNvNtNtNtNtNtCsjRwMhjCpbZQ_6server4core8mappings5query4core7ddl_ops27execute_drop_directive_impl
FN:1230,_RNvNtNtNtNtNtCsjRwMhjCpbZQ_6server4core8mappings5query4core7ddl_ops27remove_entity_snapshot_file
FN:767,_RNvNtNtNtNtNtCsjRwMhjCpbZQ_6server4core8mappings5query4core7ddl_ops28drop_statement_has_if_exists
FN:192,_RNvNtNtNtNtNtCsjRwMhjCpbZQ_6server4core8mappings5query4core7ddl_ops28execute_create_database_impl
FN:1100,_RNvNtNtNtNtNtCsjRwMhjCpbZQ_6server4core8mappings5query4core7ddl_ops30apply_entity_metadata_with_wal
FN:505,_RNvNtNtNtNtNtCsjRwMhjCpbZQ_6server4core8mappings5query4core7ddl_ops30drop_entity_operation_metadata
FN:979,_RNvNtNtNtNtNtCsjRwMhjCpbZQ_6server4core8mappings5query4core7ddl_ops36execute_create_stored_procedure_impl
FN:1139,_RNvNtNtNtNtNtCsjRwMhjCpbZQ_6server4core8mappings5query4core7ddl_ops37append_sql_definition_upsert_with_wal
FN:245,_RNvNtNtNtNtNtCsjRwMhjCpbZQ_6server4core8mappings5query4core7ddl_ops40parse_create_database_encryption_key_ref
FN:277,_RNvNtNtNtNtNtCsjRwMhjCpbZQ_6server4core8mappings5query4core7ddl_ops42default_create_database_encryption_key_ref
FNDA:0,_RNCNvNtNtNtNtNtCsjRwMhjCpbZQ_6server4core8mappings5query4core7ddl_ops23persist_entity_snapshot0Bd_
FNDA:0,_RNCNvNtNtNtNtNtCsjRwMhjCpbZQ_6server4core8mappings5query4core7ddl_ops23persist_entity_snapshots0_0Bd_
FNDA:0,_RNCNvNtNtNtNtNtCsjRwMhjCpbZQ_6server4core8mappings5query4core7ddl_ops23persist_entity_snapshots_0Bd_
FNDA:0,_RNCNvNtNtNtNtNtCsjRwMhjCpbZQ_6server4core8mappings5query4core7ddl_ops24execute_alter_table_impls0_0Bd_
FNDA:1,_RNCNvNtNtNtNtNtCsjRwMhjCpbZQ_6server4core8mappings5query4core7ddl_ops24execute_alter_table_impls_0Bd_
FNDA:0,_RNCNvNtNtNtNtNtCsjRwMhjCpbZQ_6server4core8mappings5query4core7ddl_ops25execute_create_table_impl0Bd_
FNDA:0,_RNCNvNtNtNtNtNtCsjRwMhjCpbZQ_6server4core8mappings5query4core7ddl_ops25execute_create_table_impls0_0Bd_
FNDA:0,_RNCNvNtNtNtNtNtCsjRwMhjCpbZQ_6server4core8mappings5query4core7ddl_ops25execute_create_table_impls_0Bd_
FNDA:0,_RNCNvNtNtNtNtNtCsjRwMhjCpbZQ_6server4core8mappings5query4core7ddl_ops26append_payload_record_pair0Bd_
FNDA:0,_RNCNvNtNtNtNtNtCsjRwMhjCpbZQ_6server4core8mappings5query4core7ddl_ops26append_payload_record_pairs_0Bd_
FNDA:0,_RNCNvNtNtNtNtNtCsjRwMhjCpbZQ_6server4core8mappings5query4core7ddl_ops30apply_entity_metadata_with_wal0Bd_
FNDA:0,_RNCNvNtNtNtNtNtCsjRwMhjCpbZQ_6server4core8mappings5query4core7ddl_ops30apply_entity_metadata_with_wals_0Bd_
FNDA:0,_RNCNvNtNtNtNtNtCsjRwMhjCpbZQ_6server4core8mappings5query4core7ddl_ops37append_sql_definition_upsert_with_wal0Bd_
FNDA:11,_RNCNvNtNtNtNtNtCsjRwMhjCpbZQ_6server4core8mappings5query4core7ddl_ops40parse_create_database_encryption_key_ref0Bd_
FNDA:9,_RNvNtNtNtNtNtCsjRwMhjCpbZQ_6server4core8mappings5query4core7ddl_ops20entity_snapshot_path
FNDA:1,_RNvNtNtNtNtNtCsjRwMhjCpbZQ_6server4core8mappings5query4core7ddl_ops21execute_drop_database
FNDA:5,_RNvNtNtNtNtNtCsjRwMhjCpbZQ_6server4core8mappings5query4core7ddl_ops23persist_entity_snapshot
FNDA:1,_RNvNtNtNtNtNtCsjRwMhjCpbZQ_6server4core8mappings5query4core7ddl_ops24execute_alter_table_impl
FNDA:3,_RNvNtNtNtNtNtCsjRwMhjCpbZQ_6server4core8mappings5query4core7ddl_ops24execute_create_view_impl
FNDA:52,_RNvNtNtNtNtNtCsjRwMhjCpbZQ_6server4core8mappings5query4core7ddl_ops25execute_create_table_impl
FNDA:1,_RNvNtNtNtNtNtCsjRwMhjCpbZQ_6server4core8mappings5query4core7ddl_ops25remove_table_stream_files
FNDA:166,_RNvNtNtNtNtNtCsjRwMhjCpbZQ_6server4core8mappings5query4core7ddl_ops26append_payload_record_pair
FNDA:6,_RNvNtNtNtNtNtCsjRwMhjCpbZQ_6server4core8mappings5query4core7ddl_ops26execute_drop_entity_object
FNDA:1,_RNvNtNtNtNtNtCsjRwMhjCpbZQ_6server4core8mappings5query4core7ddl_ops27execute_create_trigger_impl
FNDA:7,_RNvNtNtNtNtNtCsjRwMhjCpbZQ_6server4core8mappings5query4core7ddl_ops27execute_drop_directive_impl
FNDA:4,_RNvNtNtNtNtNtCsjRwMhjCpbZQ_6server4core8mappings5query4core7ddl_ops27remove_entity_snapshot_file
FNDA:7,_RNvNtNtNtNtNtCsjRwMhjCpbZQ_6server4core8mappings5query4core7ddl_ops28drop_statement_has_if_exists
FNDA:3,_RNvNtNtNtNtNtCsjRwMhjCpbZQ_6server4core8mappings5query4core7ddl_ops28execute_create_database_impl
FNDA:5,_RNvNtNtNtNtNtCsjRwMhjCpbZQ_6server4core8mappings5query4core7ddl_ops30apply_entity_metadata_with_wal
FNDA:12,_RNvNtNtNtNtNtCsjRwMhjCpbZQ_6server4core8mappings5query4core7ddl_ops30drop_entity_operation_metadata
FNDA:1,_RNvNtNtNtNtNtCsjRwMhjCpbZQ_6server4core8mappings5query4core7ddl_ops36execute_create_stored_procedure_impl
FNDA:5,_RNvNtNtNtNtNtCsjRwMhjCpbZQ_6server4core8mappings5query4core7ddl_ops37append_sql_definition_upsert_with_wal
FNDA:3,_RNvNtNtNtNtNtCsjRwMhjCpbZQ_6server4core8mappings5query4core7ddl_ops40parse_create_database_encryption_key_ref
FNDA:1,_RNvNtNtNtNtNtCsjRwMhjCpbZQ_6server4core8mappings5query4core7ddl_ops42default_create_database_encryption_key_ref
FNF:34
FNH:22
DA:4,1
DA:5,1
DA:6,1
DA:7,1
DA:8,1
DA:9,1
DA:10,1
DA:11,1
DA:13,1
DA:14,0
DA:15,0
DA:16,0
DA:20,1
DA:21,1
DA:22,0
DA:23,0
DA:24,0
DA:25,0
DA:30,1
DA:31,1
DA:32,0
DA:33,0
DA:34,0
DA:36,1
DA:38,1
DA:39,1
DA:40,0
DA:41,0
DA:42,0
DA:43,0
DA:48,1
DA:49,1
DA:50,1
DA:51,1
DA:53,2
DA:55,2
DA:57,1
DA:58,1
DA:59,1
DA:60,1
DA:61,1
DA:62,1
DA:63,1
DA:64,1
DA:65,1
DA:66,1
DA:67,1
DA:68,1
DA:71,0
DA:72,0
DA:73,0
DA:76,1
DA:77,1
DA:78,1
DA:79,1
DA:80,1
DA:81,1
DA:82,0
DA:84,1
DA:85,1
DA:88,0
DA:89,0
DA:90,0
DA:95,0
DA:96,0
DA:98,0
DA:99,0
DA:100,0
DA:101,0
DA:102,0
DA:107,2
DA:108,0
DA:109,0
DA:110,0
DA:111,0
DA:113,2
DA:117,1
DA:118,1
DA:119,1
DA:121,1
DA:123,1
DA:124,1
DA:125,1
DA:127,1
DA:128,1
DA:129,1
DA:130,1
DA:131,1
DA:132,1
DA:134,1
DA:136,1
DA:137,1
DA:138,1
DA:139,1
DA:140,1
DA:141,1
DA:143,1
DA:145,1
DA:147,1
DA:148,0
DA:149,0
DA:150,0
DA:152,1
DA:155,1
DA:157,0
DA:158,0
DA:159,0
DA:160,0
DA:161,0
DA:162,0
DA:163,0
DA:164,0
DA:165,0
DA:168,0
DA:169,0
DA:171,0
DA:172,0
DA:173,0
DA:175,0
DA:176,0
DA:177,0
DA:178,0
DA:179,0
DA:181,0
DA:183,1
DA:185,1
DA:186,1
DA:187,1
DA:190,1
DA:192,3
DA:193,3
DA:194,3
DA:195,3
DA:196,3
DA:197,3
DA:198,3
DA:199,3
DA:201,3
DA:202,0
DA:203,0
DA:208,3
DA:210,3
DA:212,3
DA:213,3
DA:214,2
DA:215,0
DA:216,0
DA:217,0
DA:219,2
DA:221,2
DA:222,0
DA:223,0
DA:224,0
DA:226,2
DA:227,1
DA:229,3
DA:230,3
DA:231,3
DA:232,3
DA:236,0
DA:237,0
DA:238,0
DA:243,3
DA:245,3
DA:246,3
DA:247,3
DA:248,11
DA:249,3
DA:251,11
DA:252,11
DA:254,11
DA:255,1
DA:256,0
DA:257,0
DA:258,0
DA:259,0
DA:260,1
DA:262,1
DA:263,10
DA:265,10
DA:266,1
DA:267,0
DA:268,1
DA:270,1
DA:271,9
DA:274,1
DA:275,3
DA:277,1
DA:278,1
DA:279,1
DA:280,1
DA:282,52
DA:283,52
DA:284,52
DA:285,52
DA:286,52
DA:287,52
DA:288,52
DA:289,52
DA:291,52
DA:292,0
DA:293,0
DA:294,0
DA:298,52
DA:299,52
DA:300,0
DA:301,0
DA:302,0
DA:303,0
DA:308,52
DA:309,52
DA:310,52
DA:312,52
DA:313,52
DA:314,0
DA:315,0
DA:316,0
DA:317,0
DA:319,0
DA:321,0
DA:322,0
DA:323,0
DA:328,52
DA:330,52
DA:332,52
DA:333,0
DA:334,0
DA:335,0
DA:336,0
DA:337,0
DA:338,0
DA:339,0
DA:340,0
DA:341,0
DA:343,0
DA:344,52
DA:345,0
DA:346,0
DA:347,0
DA:349,52
DA:351,52
DA:352,52
DA:353,52
DA:354,52
DA:355,52
DA:356,52
DA:357,52
DA:358,52
DA:359,52
DA:360,52
DA:361,52
DA:362,52
DA:363,52
DA:364,52
DA:365,52
DA:366,52
DA:368,52
DA:369,52
DA:370,0
DA:371,0
DA:372,0
DA:373,0
DA:378,52
DA:379,52
DA:380,52
DA:381,52
DA:382,52
DA:383,52
DA:384,52
DA:385,52
DA:386,52
DA:387,52
DA:388,0
DA:389,52
DA:391,52
DA:392,52
DA:393,52
DA:394,52
DA:395,52
DA:397,52
DA:398,52
DA:399,52
DA:400,52
DA:404,52
DA:405,52
DA:406,0
DA:407,0
DA:408,0
DA:409,0
DA:414,52
DA:415,52
DA:416,52
DA:417,52
DA:418,52
DA:419,52
DA:420,52
DA:421,52
DA:422,52
DA:423,52
DA:424,0
DA:425,52
DA:427,52
DA:428,52
DA:429,52
DA:431,52
DA:432,0
DA:433,0
DA:434,0
DA:436,52
DA:438,52
DA:439,52
DA:440,52
DA:441,52
DA:443,52
DA:444,52
DA:445,0
DA:446,0
DA:447,0
DA:448,0
DA:453,52
DA:454,52
DA:455,52
DA:456,52
DA:457,52
DA:458,52
DA:459,52
DA:460,52
DA:461,52
DA:462,52
DA:463,0
DA:464,52
DA:465,0
DA:467,52
DA:468,52
DA:469,52
DA:472,52
DA:474,7
DA:475,7
DA:476,7
DA:477,7
DA:478,7
DA:479,7
DA:480,7
DA:481,7
DA:483,6
DA:486,1
DA:489,6
DA:490,6
DA:493,0
DA:494,0
DA:495,0
DA:503,7
DA:505,12
DA:506,12
DA:507,12
DA:509,12
DA:511,2
DA:514,2
DA:517,4
DA:518,4
DA:519,4
DA:520,4
DA:521,4
DA:523,4
DA:524,4
DA:525,4
DA:526,4
DA:527,4
DA:529,0
DA:533,12
DA:535,1
DA:536,1
DA:537,1
DA:538,1
DA:539,1
DA:540,1
DA:542,1
DA:544,1
DA:545,0
DA:546,0
DA:551,1
DA:552,1
DA:553,1
DA:554,1
DA:556,1
DA:557,0
DA:558,1
DA:559,1
DA:561,0
DA:564,1
DA:565,0
DA:566,0
DA:567,0
DA:568,0
DA:570,0
DA:571,0
DA:572,0
DA:573,0
DA:580,1
DA:581,1
DA:582,0
DA:583,0
DA:584,0
DA:585,0
DA:587,1
DA:589,1
DA:590,1
DA:591,1
DA:594,1
DA:596,6
DA:597,6
DA:598,6
DA:599,6
DA:600,6
DA:601,6
DA:602,6
DA:603,6
DA:605,6
DA:607,6
DA:608,0
DA:609,0
DA:610,0
DA:617,6
DA:618,0
DA:619,0
DA:620,0
DA:624,6
DA:626,6
DA:627,6
DA:629,0
DA:630,0
DA:631,0
DA:638,6
DA:639,2
DA:640,2
DA:641,2
DA:642,2
DA:644,0
DA:645,0
DA:646,0
DA:647,0
DA:649,4
DA:651,4
DA:653,4
DA:654,0
DA:655,0
DA:656,0
DA:658,4
DA:660,4
DA:661,0
DA:662,0
DA:663,0
DA:665,4
DA:667,4
DA:672,4
DA:673,4
DA:674,4
DA:675,0
DA:676,0
DA:677,0
DA:679,4
DA:681,4
DA:683,4
DA:685,1
DA:686,1
DA:687,1
DA:688,1
DA:689,1
DA:690,1
DA:691,1
DA:693,1
DA:694,1
DA:695,0
DA:696,0
DA:697,0
DA:698,0
DA:703,1
DA:704,1
DA:705,1
DA:706,1
DA:707,1
DA:708,1
DA:709,1
DA:710,0
DA:711,0
DA:712,0
DA:714,1
DA:716,1
DA:717,0
DA:718,0
DA:719,0
DA:721,1
DA:725,3
DA:726,3
DA:727,3
DA:728,3
DA:729,3
DA:730,3
DA:731,3
DA:732,3
DA:733,3
DA:735,3
DA:736,3
DA:737,0
DA:738,0
DA:739,0
DA:740,0
DA:745,3
DA:746,3
DA:747,3
DA:748,3
DA:749,3
DA:750,3
DA:751,3
DA:752,0
DA:753,0
DA:754,0
DA:756,3
DA:760,4
DA:761,4
DA:762,4
DA:765,6
DA:767,7
DA:768,7
DA:769,7
DA:770,7
DA:772,3
DA:773,3
DA:774,3
DA:775,3
DA:776,3
DA:777,3
DA:778,3
DA:779,3
DA:781,3
DA:782,0
DA:783,0
DA:788,3
DA:789,0
DA:790,0
DA:791,0
DA:795,3
DA:797,3
DA:799,0
DA:800,0
DA:801,0
DA:802,0
DA:808,3
DA:809,3
DA:811,3
DA:815,3
DA:816,0
DA:817,0
DA:818,0
DA:822,3
DA:823,3
DA:824,3
DA:825,3
DA:826,3
DA:827,3
DA:828,3
DA:829,3
DA:830,3
DA:831,0
DA:832,3
DA:834,3
DA:835,3
DA:836,3
DA:837,3
DA:838,3
DA:839,3
DA:840,0
DA:841,0
DA:842,0
DA:844,3
DA:846,3
DA:847,3
DA:848,3
DA:849,3
DA:850,3
DA:851,3
DA:852,3
DA:853,3
DA:854,3
DA:855,3
DA:856,3
DA:857,3
DA:858,0
DA:859,3
DA:861,3
DA:862,0
DA:863,0
DA:864,0
DA:866,3
DA:868,3
DA:869,3
DA:870,3
DA:875,0
DA:876,0
DA:877,0
DA:882,3
DA:884,1
DA:885,1
DA:886,1
DA:887,1
DA:888,1
DA:889,1
DA:890,1
DA:891,1
DA:893,1
DA:894,0
DA:895,0
DA:900,1
DA:901,0
DA:902,0
DA:903,0
DA:907,1
DA:908,1
DA:910,1
DA:912,1
DA:913,0
DA:914,0
DA:915,0
DA:917,1
DA:919,1
DA:920,0
DA:921,0
DA:922,0
DA:926,1
DA:927,1
DA:928,1
DA:929,1
DA:930,1
DA:931,1
DA:932,0
DA:933,0
DA:934,0
DA:936,1
DA:938,1
DA:939,1
DA:940,1
DA:941,1
DA:942,1
DA:943,1
DA:944,1
DA:945,1
DA:946,1
DA:947,0
DA:948,1
DA:950,1
DA:951,1
DA:952,1
DA:953,1
DA:954,1
DA:955,1
DA:956,1
DA:957,1
DA:958,1
DA:959,1
DA:960,1
DA:961,1
DA:962,0
DA:963,1
DA:965,1
DA:966,0
DA:967,0
DA:968,0
DA:970,1
DA:972,1
DA:973,1
DA:974,1
DA:977,1
DA:979,1
DA:980,1
DA:981,1
DA:982,1
DA:983,1
DA:984,1
DA:985,1
DA:986,1
DA:988,1
DA:989,0
DA:990,0
DA:995,1
DA:996,0
DA:997,0
DA:998,0
DA:1002,1
DA:1003,1
DA:1005,1
DA:1006,1
DA:1008,1
DA:1009,0
DA:1010,0
DA:1011,0
DA:1013,1
DA:1015,1
DA:1016,0
DA:1017,0
DA:1018,0
DA:1022,1
DA:1023,1
DA:1024,1
DA:1025,1
DA:1026,1
DA:1027,1
DA:1028,0
DA:1029,0
DA:1030,0
DA:1032,1
DA:1034,1
DA:1035,1
DA:1036,1
DA:1037,1
DA:1038,1
DA:1039,1
DA:1040,1
DA:1041,1
DA:1042,1
DA:1043,0
DA:1044,1
DA:1046,1
DA:1047,1
DA:1048,1
DA:1049,1
DA:1050,1
DA:1051,1
DA:1052,1
DA:1053,1
DA:1054,1
DA:1055,1
DA:1056,1
DA:1057,1
DA:1058,0
DA:1059,1
DA:1061,1
DA:1062,0
DA:1063,0
DA:1064,0
DA:1066,1
DA:1068,1
DA:1069,1
DA:1070,1
DA:1073,1
DA:1075,166
DA:1076,166
DA:1077,166
DA:1078,166
DA:1079,166
DA:1080,166
DA:1081,166
DA:1082,166
DA:1083,166
DA:1084,166
DA:1085,166
DA:1086,166
DA:1087,166
DA:1088,166
DA:1089,166
DA:1090,166
DA:1092,166
DA:1094,166
DA:1095,166
DA:1097,166
DA:1098,166
DA:1100,5
DA:1101,5
DA:1102,5
DA:1103,5
DA:1104,5
DA:1105,5
DA:1106,5
DA:1107,5
DA:1108,5
DA:1109,5
DA:1110,5
DA:1111,5
DA:1113,5
DA:1114,5
DA:1115,5
DA:1117,5
DA:1118,5
DA:1119,5
DA:1120,5
DA:1122,5
DA:1123,5
DA:1124,5
DA:1126,5
DA:1127,5
DA:1128,5
DA:1129,5
DA:1130,5
DA:1131,5
DA:1132,5
DA:1133,5
DA:1134,5
DA:1137,5
DA:1139,5
DA:1140,5
DA:1141,5
DA:1142,5
DA:1143,5
DA:1144,5
DA:1145,5
DA:1146,5
DA:1147,5
DA:1148,5
DA:1149,5
DA:1150,5
DA:1152,5
DA:1153,5
DA:1154,5
DA:1155,5
DA:1156,5
DA:1157,5
DA:1158,5
DA:1159,5
DA:1161,5
DA:1162,5
DA:1163,5
DA:1165,5
DA:1166,5
DA:1167,5
DA:1168,5
DA:1169,5
DA:1170,5
DA:1171,5
DA:1172,5
DA:1173,5
DA:1176,5
DA:1178,1
DA:1180,1
DA:1184,1
DA:1185,1
DA:1186,1
DA:1187,1
DA:1189,2
DA:1191,2
DA:1193,2
DA:1194,0
DA:1195,0
DA:1196,2
DA:1199,1
DA:1201,1
DA:1203,5
DA:1204,5
DA:1205,5
DA:1206,5
DA:1207,5
DA:1209,5
DA:1210,5
DA:1211,5
DA:1212,5
DA:1214,5
DA:1215,5
DA:1217,5
DA:1219,5
DA:1220,5
DA:1222,5
DA:1223,5
DA:1224,5
DA:1226,5
DA:1228,5
DA:1230,4
DA:1232,4
DA:1234,4
DA:1235,1
DA:1236,0
DA:1237,4
DA:1239,4
DA:1241,4
DA:1243,9
DA:1244,9
DA:1245,9
DA:1246,9
DA:1247,9
BRF:0
BRH:0
LF:890
LH:637
end_of_record
SF:/Users/samcolak/Source Code/rust/distdb/distdb/server/src/core/mappings/query/core/dispatch_ops.rs
FN:280,_RNvNtNtNtNtNtCsjRwMhjCpbZQ_6server4core8mappings5query4core12dispatch_ops14execute_delete
FN:238,_RNvNtNtNtNtNtCsjRwMhjCpbZQ_6server4core8mappings5query4core12dispatch_ops14execute_insert
FN:301,_RNvNtNtNtNtNtCsjRwMhjCpbZQ_6server4core8mappings5query4core12dispatch_ops14execute_select
FN:259,_RNvNtNtNtNtNtCsjRwMhjCpbZQ_6server4core8mappings5query4core12dispatch_ops14execute_update
FN:126,_RNvNtNtNtNtNtCsjRwMhjCpbZQ_6server4core8mappings5query4core12dispatch_ops19execute_alter_other
FN:166,_RNvNtNtNtNtNtCsjRwMhjCpbZQ_6server4core8mappings5query4core12dispatch_ops19execute_alter_table
FN:337,_RNvNtNtNtNtNtCsjRwMhjCpbZQ_6server4core8mappings5query4core12dispatch_ops19execute_create_view
FN:320,_RNvNtNtNtNtNtCsjRwMhjCpbZQ_6server4core8mappings5query4core12dispatch_ops19execute_union_query
FN:202,_RNvNtNtNtNtNtCsjRwMhjCpbZQ_6server4core8mappings5query4core12dispatch_ops20execute_create_table
FN:20,_RNvNtNtNtNtNtCsjRwMhjCpbZQ_6server4core8mappings5query4core12dispatch_ops20execute_parsed_query
FN:355,_RNvNtNtNtNtNtCsjRwMhjCpbZQ_6server4core8mappings5query4core12dispatch_ops22execute_create_trigger
FN:220,_RNvNtNtNtNtNtCsjRwMhjCpbZQ_6server4core8mappings5query4core12dispatch_ops22execute_drop_directive
FN:184,_RNvNtNtNtNtNtCsjRwMhjCpbZQ_6server4core8mappings5query4core12dispatch_ops23execute_create_database
FN:391,_RNvNtNtNtNtNtCsjRwMhjCpbZQ_6server4core8mappings5query4core12dispatch_ops29execute_call_stored_procedure
FN:552,_RNvNtNtNtNtNtCsjRwMhjCpbZQ_6server4core8mappings5query4core12dispatch_ops29rewrite_sql_with_call_aliases
FN:373,_RNvNtNtNtNtNtCsjRwMhjCpbZQ_6server4core8mappings5query4core12dispatch_ops31execute_create_stored_procedure
FN:433,_RNCNCNvNtNtNtNtNtCsjRwMhjCpbZQ_6server4core8mappings5query4core12dispatch_ops29execute_call_stored_procedure00Bf_
FN:477,_RNCNCNvNtNtNtNtNtCsjRwMhjCpbZQ_6server4core8mappings5query4core12dispatch_ops29execute_call_stored_procedure0s0_0Bf_
FN:512,_RNCNCNvNtNtNtNtNtCsjRwMhjCpbZQ_6server4core8mappings5query4core12dispatch_ops29execute_call_stored_procedure0s1_0Bf_
FN:442,_RNCNCNvNtNtNtNtNtCsjRwMhjCpbZQ_6server4core8mappings5query4core12dispatch_ops29execute_call_stored_procedure0s_0Bf_
FN:431,_RNCNvNtNtNtNtNtCsjRwMhjCpbZQ_6server4core8mappings5query4core12dispatch_ops29execute_call_stored_procedure0Bd_
FNDA:3,_RNvNtNtNtNtNtCsjRwMhjCpbZQ_6server4core8mappings5query4core12dispatch_ops14execute_delete
FNDA:76,_RNvNtNtNtNtNtCsjRwMhjCpbZQ_6server4core8mappings5query4core12dispatch_ops14execute_insert
FNDA:1048,_RNvNtNtNtNtNtCsjRwMhjCpbZQ_6server4core8mappings5query4core12dispatch_ops14execute_select
FNDA:8,_RNvNtNtNtNtNtCsjRwMhjCpbZQ_6server4core8mappings5query4core12dispatch_ops14execute_update
FNDA:2,_RNvNtNtNtNtNtCsjRwMhjCpbZQ_6server4core8mappings5query4core12dispatch_ops19execute_alter_other
FNDA:1,_RNvNtNtNtNtNtCsjRwMhjCpbZQ_6server4core8mappings5query4core12dispatch_ops19execute_alter_table
FNDA:2,_RNvNtNtNtNtNtCsjRwMhjCpbZQ_6server4core8mappings5query4core12dispatch_ops19execute_create_view
FNDA:16,_RNvNtNtNtNtNtCsjRwMhjCpbZQ_6server4core8mappings5query4core12dispatch_ops19execute_union_query
FNDA:52,_RNvNtNtNtNtNtCsjRwMhjCpbZQ_6server4core8mappings5query4core12dispatch_ops20execute_create_table
FNDA:1223,_RNvNtNtNtNtNtCsjRwMhjCpbZQ_6server4core8mappings5query4core12dispatch_ops20execute_parsed_query
FNDA:1,_RNvNtNtNtNtNtCsjRwMhjCpbZQ_6server4core8mappings5query4core12dispatch_ops22execute_create_trigger
FNDA:7,_RNvNtNtNtNtNtCsjRwMhjCpbZQ_6server4core8mappings5query4core12dispatch_ops22execute_drop_directive
FNDA:3,_RNvNtNtNtNtNtCsjRwMhjCpbZQ_6server4core8mappings5query4core12dispatch_ops23execute_create_database
FNDA:3,_RNvNtNtNtNtNtCsjRwMhjCpbZQ_6server4core8mappings5query4core12dispatch_ops29execute_call_stored_procedure
FNDA:4,_RNvNtNtNtNtNtCsjRwMhjCpbZQ_6server4core8mappings5query4core12dispatch_ops29rewrite_sql_with_call_aliases
FNDA:1,_RNvNtNtNtNtNtCsjRwMhjCpbZQ_6server4core8mappings5query4core12dispatch_ops31execute_create_stored_procedure
FNDA:0,_RNCNCNvNtNtNtNtNtCsjRwMhjCpbZQ_6server4core8mappings5query4core12dispatch_ops29execute_call_stored_procedure00Bf_
FNDA:0,_RNCNCNvNtNtNtNtNtCsjRwMhjCpbZQ_6server4core8mappings5query4core12dispatch_ops29execute_call_stored_procedure0s0_0Bf_
FNDA:0,_RNCNCNvNtNtNtNtNtCsjRwMhjCpbZQ_6server4core8mappings5query4core12dispatch_ops29execute_call_stored_procedure0s1_0Bf_
FNDA:0,_RNCNCNvNtNtNtNtNtCsjRwMhjCpbZQ_6server4core8mappings5query4core12dispatch_ops29execute_call_stored_procedure0s_0Bf_
FNDA:3,_RNCNvNtNtNtNtNtCsjRwMhjCpbZQ_6server4core8mappings5query4core12dispatch_ops29execute_call_stored_procedure0Bd_
FNF:21
FNH:17
DA:20,1223
DA:21,1223
DA:22,1223
DA:23,1223
DA:24,1223
DA:25,1223
DA:26,1223
DA:27,1223
DA:28,1223
DA:29,1223
DA:30,1223
DA:31,1223
DA:33,1223
DA:34,0
DA:35,0
DA:38,1223
DA:40,1223
DA:42,1223
DA:43,1223
DA:44,1223
DA:45,1223
DA:46,1223
DA:47,1223
DA:48,1223
DA:49,1223
DA:50,1223
DA:52,1223
DA:61,1223
DA:63,76
DA:65,8
DA:67,3
DA:69,1048
DA:71,16
DA:73,3
DA:75,52
DA:81,7
DA:83,2
DA:85,1
DA:87,1
DA:89,3
DA:91,1
DA:93,2
DA:95,0
DA:99,1223
DA:101,1223
DA:104,0
DA:113,0
DA:114,0
DA:115,0
DA:124,1223
DA:126,2
DA:127,2
DA:128,2
DA:129,2
DA:130,2
DA:131,2
DA:133,2
DA:135,2
DA:136,1
DA:137,1
DA:140,1
DA:142,1
DA:143,1
DA:144,1
DA:147,0
DA:149,0
DA:150,0
DA:151,0
DA:154,0
DA:156,0
DA:157,0
DA:158,0
DA:164,2
DA:166,1
DA:167,1
DA:168,1
DA:169,1
DA:170,1
DA:171,1
DA:173,1
DA:174,1
DA:175,1
DA:176,1
DA:177,1
DA:178,1
DA:179,1
DA:182,1
DA:184,3
DA:185,3
DA:186,3
DA:187,3
DA:188,3
DA:189,3
DA:191,3
DA:192,3
DA:193,3
DA:194,3
DA:195,3
DA:196,3
DA:197,3
DA:200,3
DA:202,52
DA:203,52
DA:204,52
DA:205,52
DA:206,52
DA:207,52
DA:209,52
DA:210,52
DA:211,52
DA:212,52
DA:213,52
DA:214,52
DA:215,52
DA:218,52
DA:220,7
DA:221,7
DA:222,7
DA:223,7
DA:224,7
DA:225,7
DA:227,7
DA:228,7
DA:229,7
DA:230,7
DA:231,7
DA:232,7
DA:233,7
DA:236,7
DA:238,76
DA:239,76
DA:240,76
DA:241,76
DA:242,76
DA:243,76
DA:245,76
DA:246,76
DA:247,76
DA:248,76
DA:249,76
DA:250,76
DA:251,76
DA:252,76
DA:253,76
DA:254,76
DA:257,76
DA:259,8
DA:260,8
DA:261,8
DA:262,8
DA:263,8
DA:264,8
DA:266,8
DA:267,8
DA:268,8
DA:269,8
DA:270,8
DA:271,8
DA:272,8
DA:273,8
DA:274,8
DA:275,8
DA:278,8
DA:280,3
DA:281,3
DA:282,3
DA:283,3
DA:284,3
DA:285,3
DA:287,3
DA:288,3
DA:289,3
DA:290,3
DA:291,3
DA:292,3
DA:293,3
DA:294,3
DA:295,3
DA:296,3
DA:299,3
DA:301,1048
DA:302,1048
DA:303,1048
DA:304,1048
DA:305,1048
DA:306,1048
DA:308,1048
DA:309,1048
DA:310,1048
DA:311,1048
DA:312,1048
DA:313,1048
DA:314,1048
DA:315,1048
DA:318,1048
DA:320,16
DA:321,16
DA:322,16
DA:323,16
DA:324,16
DA:325,16
DA:326,16
DA:327,16
DA:328,16
DA:329,16
DA:330,16
DA:331,16
DA:332,16
DA:335,16
DA:337,2
DA:338,2
DA:339,2
DA:340,2
DA:341,2
DA:342,2
DA:344,2
DA:345,2
DA:346,2
DA:347,2
DA:348,2
DA:349,2
DA:350,2
DA:353,2
DA:355,1
DA:356,1
DA:357,1
DA:358,1
DA:359,1
DA:360,1
DA:362,1
DA:363,1
DA:364,1
DA:365,1
DA:366,1
DA:367,1
DA:368,1
DA:371,1
DA:373,1
DA:374,1
DA:375,1
DA:376,1
DA:377,1
DA:378,1
DA:380,1
DA:381,1
DA:382,1
DA:383,1
DA:384,1
DA:385,1
DA:386,1
DA:389,1
DA:391,3
DA:392,3
DA:393,3
DA:394,3
DA:395,3
DA:396,3
DA:398,3
DA:399,0
DA:400,0
DA:405,3
DA:406,0
DA:407,0
DA:408,0
DA:412,3
DA:413,0
DA:414,0
DA:415,0
DA:419,3
DA:420,3
DA:422,3
DA:425,3
DA:427,3
DA:428,3
DA:429,3
DA:430,3
DA:431,3
DA:432,3
DA:433,3
DA:435,3
DA:437,6
DA:439,6
DA:441,2
DA:442,2
DA:444,2
DA:446,2
DA:448,2
DA:449,0
DA:452,2
DA:453,2
DA:454,2
DA:455,2
DA:456,2
DA:457,0
DA:459,2
DA:461,2
DA:462,2
DA:463,2
DA:464,2
DA:466,2
DA:468,0
DA:470,4
DA:472,4
DA:473,4
DA:474,4
DA:475,4
DA:477,4
DA:479,4
DA:480,0
DA:481,4
DA:483,4
DA:484,4
DA:485,4
DA:486,4
DA:488,4
DA:489,4
DA:490,4
DA:491,4
DA:492,4
DA:493,4
DA:494,4
DA:495,4
DA:496,4
DA:497,4
DA:498,4
DA:501,4
DA:502,0
DA:503,0
DA:504,0
DA:506,0
DA:507,4
DA:509,4
DA:512,3
DA:513,0
DA:514,0
DA:515,0
DA:517,0
DA:518,3
DA:521,3
DA:522,3
DA:523,0
DA:526,3
DA:527,3
DA:529,0
DA:530,0
DA:531,0
DA:534,0
DA:535,0
DA:536,0
DA:539,0
DA:540,0
DA:541,0
DA:544,0
DA:545,0
DA:546,0
DA:550,3
DA:552,4
DA:553,4
DA:554,1
DA:555,3
DA:557,3
DA:558,3
DA:559,3
DA:560,3
DA:561,3
DA:562,3
DA:564,48
DA:565,45
DA:567,45
DA:568,0
DA:569,0
DA:570,0
DA:571,0
DA:572,45
DA:574,45
DA:575,0
DA:576,0
DA:577,0
DA:578,0
DA:579,45
DA:581,45
DA:582,0
DA:583,0
DA:584,0
DA:585,0
DA:586,45
DA:588,45
DA:589,0
DA:590,0
DA:591,0
DA:592,45
DA:594,45
DA:595,17
DA:596,17
DA:597,84
DA:598,83
DA:599,83
DA:600,67
DA:601,67
DA:602,16
DA:606,17
DA:607,17
DA:608,17
DA:609,3
DA:610,3
DA:611,3
DA:612,14
DA:613,14
DA:614,14
DA:615,17
DA:616,28
DA:618,28
DA:619,28
DA:622,3
DA:623,4
BRF:0
BRH:0
LF:419
LH:352
end_of_record
SF:/Users/samcolak/Source Code/rust/distdb/distdb/server/src/core/mappings/query/core/mod.rs
FN:100,_RNvNtNtNtNtCsjRwMhjCpbZQ_6server4core8mappings5query4core20handle_query_command
FN:85,_RNvNtNtNtNtCsjRwMhjCpbZQ_6server4core8mappings5query4core28get_and_clear_last_insert_id
FN:202,_RNvNtNtNtNtCsjRwMhjCpbZQ_6server4core8mappings5query4core29handle_query_command_internal
FN:174,_RNvNtNtNtNtCsjRwMhjCpbZQ_6server4core8mappings5query4core33inbuilt_runtime_context_for_query
FN:136,_RNvNtNtNtNtCsjRwMhjCpbZQ_6server4core8mappings5query4core35handle_query_command_in_write_group
FN:185,_RNCNCNvNtNtNtNtCsjRwMhjCpbZQ_6server4core8mappings5query4core33inbuilt_runtime_context_for_query00Bd_
FN:186,_RNCNCNvNtNtNtNtCsjRwMhjCpbZQ_6server4core8mappings5query4core33inbuilt_runtime_context_for_query0s_0Bd_
FN:120,_RNCNvNtNtNtNtCsjRwMhjCpbZQ_6server4core8mappings5query4core20handle_query_command0Bb_
FN:86,_RNCNvNtNtNtNtCsjRwMhjCpbZQ_6server4core8mappings5query4core28get_and_clear_last_insert_id0Bb_
FN:182,_RNCNvNtNtNtNtCsjRwMhjCpbZQ_6server4core8mappings5query4core33inbuilt_runtime_context_for_query0Bb_
FN:158,_RNCNvNtNtNtNtCsjRwMhjCpbZQ_6server4core8mappings5query4core35handle_query_command_in_write_group0Bb_
FNDA:1201,_RNvNtNtNtNtCsjRwMhjCpbZQ_6server4core8mappings5query4core20handle_query_command
FNDA:1161,_RNvNtNtNtNtCsjRwMhjCpbZQ_6server4core8mappings5query4core28get_and_clear_last_insert_id
FNDA:1220,_RNvNtNtNtNtCsjRwMhjCpbZQ_6server4core8mappings5query4core29handle_query_command_internal
FNDA:1220,_RNvNtNtNtNtCsjRwMhjCpbZQ_6server4core8mappings5query4core33inbuilt_runtime_context_for_query
FNDA:19,_RNvNtNtNtNtCsjRwMhjCpbZQ_6server4core8mappings5query4core35handle_query_command_in_write_group
FNDA:1174,_RNCNCNvNtNtNtNtCsjRwMhjCpbZQ_6server4core8mappings5query4core33inbuilt_runtime_context_for_query00Bd_
FNDA:0,_RNCNCNvNtNtNtNtCsjRwMhjCpbZQ_6server4core8mappings5query4core33inbuilt_runtime_context_for_query0s_0Bd_
FNDA:1201,_RNCNvNtNtNtNtCsjRwMhjCpbZQ_6server4core8mappings5query4core20handle_query_command0Bb_
FNDA:1161,_RNCNvNtNtNtNtCsjRwMhjCpbZQ_6server4core8mappings5query4core28get_and_clear_last_insert_id0Bb_
FNDA:1174,_RNCNvNtNtNtNtCsjRwMhjCpbZQ_6server4core8mappings5query4core33inbuilt_runtime_context_for_query0Bb_
FNDA:19,_RNCNvNtNtNtNtCsjRwMhjCpbZQ_6server4core8mappings5query4core35handle_query_command_in_write_group0Bb_
FNF:11
FNH:10
DA:85,1161
DA:86,1161
DA:87,1161
DA:88,1161
DA:89,60
DA:90,60
DA:91,60
DA:93,1101
DA:95,1161
DA:96,1161
DA:100,1201
DA:101,1201
DA:102,1201
DA:103,1201
DA:104,1201
DA:105,1201
DA:106,1201
DA:107,1201
DA:108,1201
DA:109,1201
DA:110,1201
DA:112,1201
DA:113,1201
DA:114,1201
DA:115,1201
DA:116,1201
DA:117,1201
DA:120,1201
DA:121,1201
DA:122,1201
DA:123,1201
DA:124,1201
DA:125,1201
DA:126,1201
DA:127,1201
DA:128,1201
DA:129,1201
DA:130,1201
DA:132,1201
DA:134,1201
DA:136,19
DA:137,19
DA:138,19
DA:139,19
DA:140,19
DA:141,19
DA:142,19
DA:143,19
DA:144,19
DA:145,19
DA:146,19
DA:147,19
DA:148,19
DA:150,19
DA:151,19
DA:152,19
DA:153,19
DA:154,19
DA:155,19
DA:158,19
DA:159,19
DA:160,19
DA:161,19
DA:162,19
DA:163,19
DA:164,19
DA:165,19
DA:166,19
DA:167,19
DA:168,19
DA:170,19
DA:172,19
DA:174,1220
DA:175,1220
DA:176,1220
DA:177,1220
DA:178,1220
DA:179,1220
DA:180,1220
DA:182,1220
DA:183,1174
DA:184,1174
DA:185,1174
DA:186,1174
DA:187,1174
DA:189,1220
DA:190,1220
DA:191,1220
DA:192,1220
DA:193,1220
DA:194,1220
DA:195,1220
DA:196,1220
DA:197,1220
DA:198,1220
DA:200,1220
DA:202,1220
DA:203,1220
DA:204,1220
DA:205,1220
DA:206,1220
DA:207,1220
DA:208,1220
DA:209,1220
DA:210,1220
DA:211,1220
DA:212,1220
DA:214,1220
DA:215,1220
DA:217,1220
DA:219,1219
DA:220,1219
DA:222,1219
DA:223,1219
DA:231,0
DA:233,1219
DA:234,1219
DA:235,1219
DA:236,1219
DA:237,1219
DA:238,1219
DA:239,1219
DA:240,1219
DA:241,1219
DA:242,1219
DA:243,1219
DA:245,1219
DA:248,1
DA:249,1
DA:254,1220
BRF:0
BRH:0
LF:136
LH:134
end_of_record
SF:/Users/samcolak/Source Code/rust/distdb/distdb/server/src/core/mappings/query/core/mutation_ops.rs
FN:1065,_RINvNtNtNtNtNtCsjRwMhjCpbZQ_6server4core8mappings5query4core12mutation_ops22with_table_write_guardNCNvB2_19execute_delete_impl0EBc_
FN:1065,_RINvNtNtNtNtNtCsjRwMhjCpbZQ_6server4core8mappings5query4core12mutation_ops22with_table_write_guardNCNvB2_19execute_insert_impls_0EBc_
FN:1065,_RINvNtNtNtNtNtCsjRwMhjCpbZQ_6server4core8mappings5query4core12mutation_ops22with_table_write_guardNCNvB2_19execute_update_impl0EBc_
FN:1099,_RNCINvNtNtNtNtNtCsjRwMhjCpbZQ_6server4core8mappings5query4core12mutation_ops22with_table_write_guardNCNvB4_19execute_delete_impl0Es_0Be_
FN:1099,_RNCINvNtNtNtNtNtCsjRwMhjCpbZQ_6server4core8mappings5query4core12mutation_ops22with_table_write_guardNCNvB4_19execute_insert_impls_0Es_0Be_
FN:1099,_RNCINvNtNtNtNtNtCsjRwMhjCpbZQ_6server4core8mappings5query4core12mutation_ops22with_table_write_guardNCNvB4_19execute_update_impl0Es_0Be_
FN:239,_RNCNCNCNvNtNtNtNtNtCsjRwMhjCpbZQ_6server4core8mappings5query4core12mutation_ops21execute_insert_lockeds2_000Bh_
FN:251,_RNCNCNCNvNtNtNtNtNtCsjRwMhjCpbZQ_6server4core8mappings5query4core12mutation_ops21execute_insert_lockeds2_00s_0Bh_
FN:547,_RNCNCNCNvNtNtNtNtNtCsjRwMhjCpbZQ_6server4core8mappings5query4core12mutation_ops30materialize_insert_source_rowss9_000Bh_
FN:1181,_RNCNCNvNtNtNtNtNtCsjRwMhjCpbZQ_6server4core8mappings5query4core12mutation_ops18load_mutation_rowss_00Bf_
FN:178,_RNCNCNvNtNtNtNtNtCsjRwMhjCpbZQ_6server4core8mappings5query4core12mutation_ops21execute_insert_lockeds0_00Bf_
FN:235,_RNCNCNvNtNtNtNtNtCsjRwMhjCpbZQ_6server4core8mappings5query4core12mutation_ops21execute_insert_lockeds2_00Bf_
FN:350,_RNCNCNvNtNtNtNtNtCsjRwMhjCpbZQ_6server4core8mappings5query4core12mutation_ops21execute_insert_lockeds2_0s0_0Bf_
FN:358,_RNCNCNvNtNtNtNtNtCsjRwMhjCpbZQ_6server4core8mappings5query4core12mutation_ops21execute_insert_lockeds2_0s1_0Bf_
FN:409,_RNCNCNvNtNtNtNtNtCsjRwMhjCpbZQ_6server4core8mappings5query4core12mutation_ops21execute_insert_lockeds2_0s2_0Bf_
FN:344,_RNCNCNvNtNtNtNtNtCsjRwMhjCpbZQ_6server4core8mappings5query4core12mutation_ops21execute_insert_lockeds2_0s_0Bf_
FN:163,_RNCNCNvNtNtNtNtNtCsjRwMhjCpbZQ_6server4core8mappings5query4core12mutation_ops21execute_insert_lockeds_00Bf_
FN:164,_RNCNCNvNtNtNtNtNtCsjRwMhjCpbZQ_6server4core8mappings5query4core12mutation_ops21execute_insert_lockeds_0s_0Bf_
FN:696,_RNCNCNvNtNtNtNtNtCsjRwMhjCpbZQ_6server4core8mappings5query4core12mutation_ops21execute_update_locked00Bf_
FN:751,_RNCNCNvNtNtNtNtNtCsjRwMhjCpbZQ_6server4core8mappings5query4core12mutation_ops21execute_update_lockeds1_00Bf_
FN:813,_RNCNCNvNtNtNtNtNtCsjRwMhjCpbZQ_6server4core8mappings5query4core12mutation_ops21execute_update_lockeds1_0s_0Bf_
FN:546,_RNCNCNvNtNtNtNtNtCsjRwMhjCpbZQ_6server4core8mappings5query4core12mutation_ops30materialize_insert_source_rowss9_00Bf_
FN:1169,_RNCNvNtNtNtNtNtCsjRwMhjCpbZQ_6server4core8mappings5query4core12mutation_ops18load_mutation_rows0Bd_
FN:1179,_RNCNvNtNtNtNtNtCsjRwMhjCpbZQ_6server4core8mappings5query4core12mutation_ops18load_mutation_rowss_0Bd_
FN:922,_RNCNvNtNtNtNtNtCsjRwMhjCpbZQ_6server4core8mappings5query4core12mutation_ops19execute_delete_impl0Bd_
FN:54,_RNCNvNtNtNtNtNtCsjRwMhjCpbZQ_6server4core8mappings5query4core12mutation_ops19execute_insert_impl0Bd_
FN:99,_RNCNvNtNtNtNtNtCsjRwMhjCpbZQ_6server4core8mappings5query4core12mutation_ops19execute_insert_impls_0Bd_
FN:610,_RNCNvNtNtNtNtNtCsjRwMhjCpbZQ_6server4core8mappings5query4core12mutation_ops19execute_update_impl0Bd_
FN:1004,_RNCNvNtNtNtNtNtCsjRwMhjCpbZQ_6server4core8mappings5query4core12mutation_ops21execute_delete_lockeds_0Bd_
FN:152,_RNCNvNtNtNtNtNtCsjRwMhjCpbZQ_6server4core8mappings5query4core12mutation_ops21execute_insert_locked0Bd_
FN:178,_RNCNvNtNtNtNtNtCsjRwMhjCpbZQ_6server4core8mappings5query4core12mutation_ops21execute_insert_lockeds0_0Bd_
FN:179,_RNCNvNtNtNtNtNtCsjRwMhjCpbZQ_6server4core8mappings5query4core12mutation_ops21execute_insert_lockeds1_0Bd_
FN:222,_RNCNvNtNtNtNtNtCsjRwMhjCpbZQ_6server4core8mappings5query4core12mutation_ops21execute_insert_lockeds2_0Bd_
FN:160,_RNCNvNtNtNtNtNtCsjRwMhjCpbZQ_6server4core8mappings5query4core12mutation_ops21execute_insert_lockeds_0Bd_
FN:689,_RNCNvNtNtNtNtNtCsjRwMhjCpbZQ_6server4core8mappings5query4core12mutation_ops21execute_update_locked0Bd_
FN:723,_RNCNvNtNtNtNtNtCsjRwMhjCpbZQ_6server4core8mappings5query4core12mutation_ops21execute_update_lockeds1_0Bd_
FN:704,_RNCNvNtNtNtNtNtCsjRwMhjCpbZQ_6server4core8mappings5query4core12mutation_ops21execute_update_lockeds_0Bd_
FN:445,_RNCNvNtNtNtNtNtCsjRwMhjCpbZQ_6server4core8mappings5query4core12mutation_ops30materialize_insert_source_rows0Bd_
FN:455,_RNCNvNtNtNtNtNtCsjRwMhjCpbZQ_6server4core8mappings5query4core12mutation_ops30materialize_insert_source_rowss0_0Bd_
FN:468,_RNCNvNtNtNtNtNtCsjRwMhjCpbZQ_6server4core8mappings5query4core12mutation_ops30materialize_insert_source_rowss1_0Bd_
FN:476,_RNCNvNtNtNtNtNtCsjRwMhjCpbZQ_6server4core8mappings5query4core12mutation_ops30materialize_insert_source_rowss2_0Bd_
FN:480,_RNCNvNtNtNtNtNtCsjRwMhjCpbZQ_6server4core8mappings5query4core12mutation_ops30materialize_insert_source_rowss3_0Bd_
FN:493,_RNCNvNtNtNtNtNtCsjRwMhjCpbZQ_6server4core8mappings5query4core12mutation_ops30materialize_insert_source_rowss4_0Bd_
FN:500,_RNCNvNtNtNtNtNtCsjRwMhjCpbZQ_6server4core8mappings5query4core12mutation_ops30materialize_insert_source_rowss5_0Bd_
FN:524,_RNCNvNtNtNtNtNtCsjRwMhjCpbZQ_6server4core8mappings5query4core12mutation_ops30materialize_insert_source_rowss6_0Bd_
FN:525,_RNCNvNtNtNtNtNtCsjRwMhjCpbZQ_6server4core8mappings5query4core12mutation_ops30materialize_insert_source_rowss7_0Bd_
FN:537,_RNCNvNtNtNtNtNtCsjRwMhjCpbZQ_6server4core8mappings5query4core12mutation_ops30materialize_insert_source_rowss8_0Bd_
FN:543,_RNCNvNtNtNtNtNtCsjRwMhjCpbZQ_6server4core8mappings5query4core12mutation_ops30materialize_insert_source_rowss9_0Bd_
FN:446,_RNCNvNtNtNtNtNtCsjRwMhjCpbZQ_6server4core8mappings5query4core12mutation_ops30materialize_insert_source_rowss_0Bd_
FN:1142,_RNvNtNtNtNtNtCsjRwMhjCpbZQ_6server4core8mappings5query4core12mutation_ops18load_mutation_rows
FN:879,_RNvNtNtNtNtNtCsjRwMhjCpbZQ_6server4core8mappings5query4core12mutation_ops19execute_delete_impl
FN:4,_RNvNtNtNtNtNtCsjRwMhjCpbZQ_6server4core8mappings5query4core12mutation_ops19execute_insert_impl
FN:567,_RNvNtNtNtNtNtCsjRwMhjCpbZQ_6server4core8mappings5query4core12mutation_ops19execute_update_impl
FN:938,_RNvNtNtNtNtNtCsjRwMhjCpbZQ_6server4core8mappings5query4core12mutation_ops21execute_delete_locked
FN:115,_RNvNtNtNtNtNtCsjRwMhjCpbZQ_6server4core8mappings5query4core12mutation_ops21execute_insert_locked
FN:626,_RNvNtNtNtNtNtCsjRwMhjCpbZQ_6server4core8mappings5query4core12mutation_ops21execute_update_locked
FN:425,_RNvNtNtNtNtNtCsjRwMhjCpbZQ_6server4core8mappings5query4core12mutation_ops30materialize_insert_source_rows
FNDA:2,_RINvNtNtNtNtNtCsjRwMhjCpbZQ_6server4core8mappings5query4core12mutation_ops22with_table_write_guardNCNvB2_19execute_delete_impl0EBc_
FNDA:75,_RINvNtNtNtNtNtCsjRwMhjCpbZQ_6server4core8mappings5query4core12mutation_ops22with_table_write_guardNCNvB2_19execute_insert_impls_0EBc_
FNDA:7,_RINvNtNtNtNtNtCsjRwMhjCpbZQ_6server4core8mappings5query4core12mutation_ops22with_table_write_guardNCNvB2_19execute_update_impl0EBc_
FNDA:2,_RNCINvNtNtNtNtNtCsjRwMhjCpbZQ_6server4core8mappings5query4core12mutation_ops22with_table_write_guardNCNvB4_19execute_delete_impl0Es_0Be_
FNDA:75,_RNCINvNtNtNtNtNtCsjRwMhjCpbZQ_6server4core8mappings5query4core12mutation_ops22with_table_write_guardNCNvB4_19execute_insert_impls_0Es_0Be_
FNDA:7,_RNCINvNtNtNtNtNtCsjRwMhjCpbZQ_6server4core8mappings5query4core12mutation_ops22with_table_write_guardNCNvB4_19execute_update_impl0Es_0Be_
FNDA:66,_RNCNCNCNvNtNtNtNtNtCsjRwMhjCpbZQ_6server4core8mappings5query4core12mutation_ops21execute_insert_lockeds2_000Bh_
FNDA:15,_RNCNCNCNvNtNtNtNtNtCsjRwMhjCpbZQ_6server4core8mappings5query4core12mutation_ops21execute_insert_lockeds2_00s_0Bh_
FNDA:4,_RNCNCNCNvNtNtNtNtNtCsjRwMhjCpbZQ_6server4core8mappings5query4core12mutation_ops30materialize_insert_source_rowss9_000Bh_
FNDA:2,_RNCNCNvNtNtNtNtNtCsjRwMhjCpbZQ_6server4core8mappings5query4core12mutation_ops18load_mutation_rowss_00Bf_
FNDA:224,_RNCNCNvNtNtNtNtNtCsjRwMhjCpbZQ_6server4core8mappings5query4core12mutation_ops21execute_insert_lockeds0_00Bf_
FNDA:66,_RNCNCNvNtNtNtNtNtCsjRwMhjCpbZQ_6server4core8mappings5query4core12mutation_ops21execute_insert_lockeds2_00Bf_
FNDA:20,_RNCNCNvNtNtNtNtNtCsjRwMhjCpbZQ_6server4core8mappings5query4core12mutation_ops21execute_insert_lockeds2_0s0_0Bf_
FNDA:4,_RNCNCNvNtNtNtNtNtCsjRwMhjCpbZQ_6server4core8mappings5query4core12mutation_ops21execute_insert_lockeds2_0s1_0Bf_
FNDA:71,_RNCNCNvNtNtNtNtNtCsjRwMhjCpbZQ_6server4core8mappings5query4core12mutation_ops21execute_insert_lockeds2_0s2_0Bf_
FNDA:66,_RNCNCNvNtNtNtNtNtCsjRwMhjCpbZQ_6server4core8mappings5query4core12mutation_ops21execute_insert_lockeds2_0s_0Bf_
FNDA:0,_RNCNCNvNtNtNtNtNtCsjRwMhjCpbZQ_6server4core8mappings5query4core12mutation_ops21execute_insert_lockeds_00Bf_
FNDA:142,_RNCNCNvNtNtNtNtNtCsjRwMhjCpbZQ_6server4core8mappings5query4core12mutation_ops21execute_insert_lockeds_0s_0Bf_
FNDA:7,_RNCNCNvNtNtNtNtNtCsjRwMhjCpbZQ_6server4core8mappings5query4core12mutation_ops21execute_update_locked00Bf_
FNDA:7,_RNCNCNvNtNtNtNtNtCsjRwMhjCpbZQ_6server4core8mappings5query4core12mutation_ops21execute_update_lockeds1_00Bf_
FNDA:0,_RNCNCNvNtNtNtNtNtCsjRwMhjCpbZQ_6server4core8mappings5query4core12mutation_ops21execute_update_lockeds1_0s_0Bf_
FNDA:4,_RNCNCNvNtNtNtNtNtCsjRwMhjCpbZQ_6server4core8mappings5query4core12mutation_ops30materialize_insert_source_rowss9_00Bf_
FNDA:6,_RNCNvNtNtNtNtNtCsjRwMhjCpbZQ_6server4core8mappings5query4core12mutation_ops18load_mutation_rows0Bd_
FNDA:2,_RNCNvNtNtNtNtNtCsjRwMhjCpbZQ_6server4core8mappings5query4core12mutation_ops18load_mutation_rowss_0Bd_
FNDA:2,_RNCNvNtNtNtNtNtCsjRwMhjCpbZQ_6server4core8mappings5query4core12mutation_ops19execute_delete_impl0Bd_
FNDA:1,_RNCNvNtNtNtNtNtCsjRwMhjCpbZQ_6server4core8mappings5query4core12mutation_ops19execute_insert_impl0Bd_
FNDA:75,_RNCNvNtNtNtNtNtCsjRwMhjCpbZQ_6server4core8mappings5query4core12mutation_ops19execute_insert_impls_0Bd_
FNDA:7,_RNCNvNtNtNtNtNtCsjRwMhjCpbZQ_6server4core8mappings5query4core12mutation_ops19execute_update_impl0Bd_
FNDA:2,_RNCNvNtNtNtNtNtCsjRwMhjCpbZQ_6server4core8mappings5query4core12mutation_ops21execute_delete_lockeds_0Bd_
FNDA:0,_RNCNvNtNtNtNtNtCsjRwMhjCpbZQ_6server4core8mappings5query4core12mutation_ops21execute_insert_locked0Bd_
FNDA:142,_RNCNvNtNtNtNtNtCsjRwMhjCpbZQ_6server4core8mappings5query4core12mutation_ops21execute_insert_lockeds0_0Bd_
FNDA:0,_RNCNvNtNtNtNtNtCsjRwMhjCpbZQ_6server4core8mappings5query4core12mutation_ops21execute_insert_lockeds1_0Bd_
FNDA:75,_RNCNvNtNtNtNtNtCsjRwMhjCpbZQ_6server4core8mappings5query4core12mutation_ops21execute_insert_lockeds2_0Bd_
FNDA:142,_RNCNvNtNtNtNtNtCsjRwMhjCpbZQ_6server4core8mappings5query4core12mutation_ops21execute_insert_lockeds_0Bd_
FNDA:7,_RNCNvNtNtNtNtNtCsjRwMhjCpbZQ_6server4core8mappings5query4core12mutation_ops21execute_update_locked0Bd_
FNDA:7,_RNCNvNtNtNtNtNtCsjRwMhjCpbZQ_6server4core8mappings5query4core12mutation_ops21execute_update_lockeds1_0Bd_
FNDA:9,_RNCNvNtNtNtNtNtCsjRwMhjCpbZQ_6server4core8mappings5query4core12mutation_ops21execute_update_lockeds_0Bd_
FNDA:0,_RNCNvNtNtNtNtNtCsjRwMhjCpbZQ_6server4core8mappings5query4core12mutation_ops30materialize_insert_source_rows0Bd_
FNDA:1,_RNCNvNtNtNtNtNtCsjRwMhjCpbZQ_6server4core8mappings5query4core12mutation_ops30materialize_insert_source_rowss0_0Bd_
FNDA:0,_RNCNvNtNtNtNtNtCsjRwMhjCpbZQ_6server4core8mappings5query4core12mutation_ops30materialize_insert_source_rowss1_0Bd_
FNDA:0,_RNCNvNtNtNtNtNtCsjRwMhjCpbZQ_6server4core8mappings5query4core12mutation_ops30materialize_insert_source_rowss2_0Bd_
FNDA:0,_RNCNvNtNtNtNtNtCsjRwMhjCpbZQ_6server4core8mappings5query4core12mutation_ops30materialize_insert_source_rowss3_0Bd_
FNDA:1,_RNCNvNtNtNtNtNtCsjRwMhjCpbZQ_6server4core8mappings5query4core12mutation_ops30materialize_insert_source_rowss4_0Bd_
FNDA:1,_RNCNvNtNtNtNtNtCsjRwMhjCpbZQ_6server4core8mappings5query4core12mutation_ops30materialize_insert_source_rowss5_0Bd_
FNDA:0,_RNCNvNtNtNtNtNtCsjRwMhjCpbZQ_6server4core8mappings5query4core12mutation_ops30materialize_insert_source_rowss6_0Bd_
FNDA:1,_RNCNvNtNtNtNtNtCsjRwMhjCpbZQ_6server4core8mappings5query4core12mutation_ops30materialize_insert_source_rowss7_0Bd_
FNDA:0,_RNCNvNtNtNtNtNtCsjRwMhjCpbZQ_6server4core8mappings5query4core12mutation_ops30materialize_insert_source_rowss8_0Bd_
FNDA:2,_RNCNvNtNtNtNtNtCsjRwMhjCpbZQ_6server4core8mappings5query4core12mutation_ops30materialize_insert_source_rowss9_0Bd_
FNDA:3,_RNCNvNtNtNtNtNtCsjRwMhjCpbZQ_6server4core8mappings5query4core12mutation_ops30materialize_insert_source_rowss_0Bd_
FNDA:9,_RNvNtNtNtNtNtCsjRwMhjCpbZQ_6server4core8mappings5query4core12mutation_ops18load_mutation_rows
FNDA:3,_RNvNtNtNtNtNtCsjRwMhjCpbZQ_6server4core8mappings5query4core12mutation_ops19execute_delete_impl
FNDA:76,_RNvNtNtNtNtNtCsjRwMhjCpbZQ_6server4core8mappings5query4core12mutation_ops19execute_insert_impl
FNDA:8,_RNvNtNtNtNtNtCsjRwMhjCpbZQ_6server4core8mappings5query4core12mutation_ops19execute_update_impl
FNDA:2,_RNvNtNtNtNtNtCsjRwMhjCpbZQ_6server4core8mappings5query4core12mutation_ops21execute_delete_locked
FNDA:75,_RNvNtNtNtNtNtCsjRwMhjCpbZQ_6server4core8mappings5query4core12mutation_ops21execute_insert_locked
FNDA:7,_RNvNtNtNtNtNtCsjRwMhjCpbZQ_6server4core8mappings5query4core12mutation_ops21execute_update_locked
FNDA:75,_RNvNtNtNtNtNtCsjRwMhjCpbZQ_6server4core8mappings5query4core12mutation_ops30materialize_insert_source_rows
FNF:53
FNH:43
DA:4,76
DA:5,76
DA:6,76
DA:7,76
DA:8,76
DA:9,76
DA:10,76
DA:11,76
DA:12,76
DA:13,76
DA:14,76
DA:16,76
DA:18,76
DA:19,76
DA:20,76
DA:22,76
DA:24,1
DA:26,0
DA:27,0
DA:28,0
DA:29,0
DA:30,0
DA:31,0
DA:36,1
DA:37,1
DA:38,0
DA:39,0
DA:40,0
DA:41,0
DA:50,75
DA:54,76
DA:55,1
DA:56,1
DA:57,1
DA:58,1
DA:60,76
DA:62,1
DA:63,1
DA:64,1
DA:65,1
DA:68,1
DA:70,1
DA:71,1
DA:72,1
DA:73,1
DA:75,0
DA:76,0
DA:77,0
DA:78,0
DA:79,0
DA:80,0
DA:81,0
DA:82,0
DA:83,0
DA:84,0
DA:85,0
DA:89,1
DA:91,75
DA:93,75
DA:94,75
DA:95,75
DA:96,75
DA:97,75
DA:98,75
DA:99,75
DA:100,75
DA:101,75
DA:102,75
DA:103,75
DA:104,75
DA:105,75
DA:106,75
DA:107,75
DA:108,75
DA:110,75
DA:113,76
DA:115,75
DA:116,75
DA:117,75
DA:118,75
DA:119,75
DA:120,75
DA:121,75
DA:122,75
DA:123,75
DA:124,75
DA:126,75
DA:127,0
DA:128,0
DA:129,0
DA:136,75
DA:137,0
DA:138,0
DA:139,0
DA:146,75
DA:148,75
DA:149,0
DA:150,0
DA:151,0
DA:152,0
DA:153,0
DA:155,75
DA:158,75
DA:159,75
DA:160,142
DA:161,142
DA:162,142
DA:163,142
DA:164,142
DA:165,142
DA:166,75
DA:168,75
DA:169,75
DA:170,0
DA:171,0
DA:175,75
DA:176,75
DA:177,75
DA:178,224
DA:179,75
DA:180,0
DA:181,0
DA:182,0
DA:183,0
DA:184,0
DA:185,0
DA:186,75
DA:188,75
DA:190,142
DA:192,142
DA:193,0
DA:194,0
DA:195,0
DA:197,142
DA:199,142
DA:200,0
DA:201,0
DA:202,0
DA:204,142
DA:208,75
DA:209,75
DA:210,75
DA:211,0
DA:214,75
DA:215,75
DA:216,75
DA:217,75
DA:218,75
DA:219,75
DA:220,75
DA:221,75
DA:222,75
DA:224,75
DA:225,75
DA:226,75
DA:227,75
DA:228,75
DA:229,66
DA:231,9
DA:233,75
DA:234,75
DA:235,75
DA:236,66
DA:237,0
DA:239,66
DA:242,66
DA:243,66
DA:244,66
DA:245,66
DA:246,66
DA:247,66
DA:249,66
DA:250,66
DA:251,66
DA:252,66
DA:254,66
DA:255,66
DA:257,75
DA:259,75
DA:260,0
DA:261,0
DA:262,0
DA:264,0
DA:265,0
DA:268,75
DA:270,75
DA:272,142
DA:274,142
DA:276,142
DA:277,142
DA:278,142
DA:282,0
DA:283,0
DA:284,0
DA:285,0
DA:286,0
DA:287,0
DA:289,0
DA:297,75
DA:299,0
DA:300,0
DA:301,0
DA:302,0
DA:304,0
DA:305,0
DA:306,0
DA:307,0
DA:312,0
DA:316,75
DA:318,75
DA:320,0
DA:321,0
DA:322,0
DA:323,0
DA:329,75
DA:330,75
DA:331,0
DA:332,0
DA:333,0
DA:334,0
DA:339,75
DA:340,66
DA:342,66
DA:343,66
DA:344,66
DA:345,66
DA:347,66
DA:349,66
DA:350,66
DA:351,66
DA:352,62
DA:353,62
DA:355,4
DA:356,4
DA:357,4
DA:358,4
DA:359,4
DA:360,4
DA:362,4
DA:363,4
DA:364,4
DA:366,62
DA:368,62
DA:369,62
DA:370,9
DA:372,71
DA:374,71
DA:375,62
DA:376,62
DA:378,71
DA:382,71
DA:383,71
DA:384,71
DA:385,71
DA:386,71
DA:387,71
DA:388,71
DA:389,71
DA:390,71
DA:391,71
DA:392,71
DA:393,0
DA:394,0
DA:395,0
DA:397,71
DA:399,71
DA:404,0
DA:408,71
DA:409,71
DA:410,71
DA:411,71
DA:412,0
DA:414,71
DA:415,71
DA:416,71
DA:419,75
DA:422,75
DA:425,75
DA:426,75
DA:427,75
DA:428,75
DA:429,75
DA:430,75
DA:432,75
DA:434,73
DA:436,2
DA:438,2
DA:440,1
DA:441,1
DA:442,1
DA:443,1
DA:444,1
DA:445,0
DA:446,3
DA:447,3
DA:448,3
DA:449,3
DA:450,3
DA:451,3
DA:452,3
DA:453,3
DA:454,3
DA:455,1
DA:456,1
DA:457,1
DA:458,1
DA:459,1
DA:460,1
DA:461,1
DA:462,1
DA:463,1
DA:466,1
DA:468,0
DA:469,0
DA:470,0
DA:474,1
DA:476,1
DA:477,0
DA:478,0
DA:480,1
DA:481,0
DA:482,0
DA:484,1
DA:485,1
DA:486,1
DA:487,1
DA:489,1
DA:490,1
DA:491,1
DA:492,1
DA:493,1
DA:494,1
DA:495,1
DA:497,1
DA:498,1
DA:499,1
DA:500,1
DA:501,1
DA:502,1
DA:503,1
DA:504,1
DA:506,1
DA:507,1
DA:509,1
DA:510,1
DA:511,1
DA:512,1
DA:513,1
DA:514,1
DA:517,1
DA:518,1
DA:519,1
DA:520,1
DA:521,1
DA:522,1
DA:523,1
DA:524,0
DA:525,1
DA:526,1
DA:527,1
DA:528,1
DA:529,1
DA:530,1
DA:531,1
DA:532,1
DA:533,1
DA:537,2
DA:539,2
DA:540,2
DA:541,2
DA:542,2
DA:543,2
DA:544,2
DA:545,2
DA:546,4
DA:547,4
DA:548,4
DA:549,4
DA:550,0
DA:552,4
DA:554,4
DA:555,2
DA:556,2
DA:557,2
DA:559,2
DA:565,75
DA:567,8
DA:568,8
DA:569,8
DA:570,8
DA:571,8
DA:572,8
DA:573,8
DA:574,8
DA:575,8
DA:576,8
DA:577,8
DA:579,8
DA:581,8
DA:582,8
DA:583,0
DA:584,0
DA:585,0
DA:586,0
DA:591,8
DA:592,1
DA:593,1
DA:594,1
DA:595,1
DA:596,1
DA:597,1
DA:598,1
DA:599,1
DA:600,1
DA:602,7
DA:604,7
DA:605,7
DA:606,7
DA:607,7
DA:608,7
DA:609,7
DA:610,7
DA:611,7
DA:612,7
DA:613,7
DA:614,7
DA:615,7
DA:616,7
DA:617,7
DA:618,7
DA:619,7
DA:621,7
DA:624,8
DA:626,7
DA:627,7
DA:628,7
DA:629,7
DA:630,7
DA:631,7
DA:632,7
DA:633,7
DA:634,7
DA:635,7
DA:637,7
DA:638,0
DA:639,0
DA:640,0
DA:647,7
DA:648,0
DA:649,0
DA:650,0
DA:657,7
DA:659,7
DA:660,7
DA:661,0
DA:662,0
DA:663,0
DA:665,7
DA:668,7
DA:670,7
DA:671,7
DA:672,7
DA:673,7
DA:674,7
DA:675,7
DA:676,7
DA:677,7
DA:678,7
DA:679,7
DA:680,7
DA:681,7
DA:682,7
DA:683,0
DA:684,0
DA:688,7
DA:689,7
DA:690,7
DA:691,0
DA:693,7
DA:694,7
DA:695,7
DA:696,7
DA:697,7
DA:699,7
DA:701,7
DA:702,7
DA:703,7
DA:704,9
DA:705,7
DA:707,0
DA:710,7
DA:711,7
DA:712,7
DA:713,7
DA:715,7
DA:716,7
DA:717,7
DA:718,7
DA:719,7
DA:720,7
DA:721,7
DA:722,7
DA:723,7
DA:725,7
DA:727,9
DA:729,9
DA:730,8
DA:731,8
DA:732,8
DA:733,8
DA:734,8
DA:735,8
DA:736,8
DA:738,2
DA:739,7
DA:741,7
DA:742,7
DA:743,0
DA:744,0
DA:745,0
DA:746,0
DA:751,7
DA:753,7
DA:755,7
DA:756,7
DA:757,7
DA:758,7
DA:759,7
DA:760,7
DA:761,0
DA:762,0
DA:764,0
DA:765,0
DA:766,0
DA:770,14
DA:771,14
DA:772,0
DA:773,0
DA:774,0
DA:779,14
DA:782,7
DA:783,7
DA:784,0
DA:785,0
DA:786,0
DA:787,0
DA:792,7
DA:793,7
DA:794,0
DA:795,0
DA:796,0
DA:797,0
DA:802,7
DA:804,7
DA:805,7
DA:807,7
DA:808,0
DA:809,0
DA:810,0
DA:811,0
DA:812,0
DA:813,0
DA:814,0
DA:815,0
DA:817,0
DA:818,0
DA:819,0
DA:821,7
DA:823,7
DA:824,7
DA:826,0
DA:828,7
DA:829,7
DA:830,7
DA:831,7
DA:832,7
DA:833,7
DA:834,7
DA:835,7
DA:836,7
DA:837,7
DA:838,7
DA:839,7
DA:840,7
DA:841,0
DA:842,0
DA:843,0
DA:845,7
DA:847,7
DA:848,7
DA:849,7
DA:850,7
DA:851,7
DA:852,7
DA:853,7
DA:854,7
DA:855,7
DA:856,7
DA:857,7
DA:858,7
DA:859,0
DA:860,0
DA:861,0
DA:863,7
DA:865,7
DA:869,7
DA:870,7
DA:871,7
DA:874,7
DA:877,7
DA:879,3
DA:880,3
DA:881,3
DA:882,3
DA:883,3
DA:884,3
DA:885,3
DA:886,3
DA:887,3
DA:888,3
DA:889,3
DA:891,3
DA:893,3
DA:894,3
DA:895,0
DA:896,0
DA:897,0
DA:898,0
DA:903,3
DA:904,1
DA:905,1
DA:906,1
DA:907,1
DA:908,1
DA:909,1
DA:910,1
DA:912,1
DA:914,2
DA:916,2
DA:917,2
DA:918,2
DA:919,2
DA:920,2
DA:921,2
DA:922,2
DA:923,2
DA:924,2
DA:925,2
DA:926,2
DA:927,2
DA:928,2
DA:929,2
DA:930,2
DA:931,2
DA:933,2
DA:936,3
DA:938,2
DA:939,2
DA:940,2
DA:941,2
DA:942,2
DA:943,2
DA:944,2
DA:945,2
DA:946,2
DA:947,2
DA:949,2
DA:950,0
DA:951,0
DA:952,0
DA:959,2
DA:960,0
DA:961,0
DA:962,0
DA:969,2
DA:971,2
DA:973,2
DA:974,2
DA:975,2
DA:976,2
DA:977,2
DA:978,2
DA:979,2
DA:980,2
DA:981,2
DA:982,2
DA:983,2
DA:984,2
DA:985,2
DA:986,0
DA:987,0
DA:991,2
DA:992,2
DA:993,2
DA:994,2
DA:996,2
DA:997,2
DA:998,2
DA:999,2
DA:1000,2
DA:1001,2
DA:1002,2
DA:1003,2
DA:1004,2
DA:1006,2
DA:1008,2
DA:1010,2
DA:1011,1
DA:1012,1
DA:1013,1
DA:1014,1
DA:1015,1
DA:1016,1
DA:1017,1
DA:1019,0
DA:1020,2
DA:1022,2
DA:1023,2
DA:1024,0
DA:1025,0
DA:1026,0
DA:1027,0
DA:1032,2
DA:1033,2
DA:1034,2
DA:1035,2
DA:1036,2
DA:1037,2
DA:1038,2
DA:1039,2
DA:1040,2
DA:1041,2
DA:1042,2
DA:1043,2
DA:1044,2
DA:1045,0
DA:1046,0
DA:1047,0
DA:1049,2
DA:1051,2
DA:1055,2
DA:1056,2
DA:1057,2
DA:1060,2
DA:1063,2
DA:1065,84
DA:1066,84
DA:1067,84
DA:1068,84
DA:1069,84
DA:1070,84
DA:1071,84
DA:1072,84
DA:1073,84
DA:1074,84
DA:1077,84
DA:1078,84
DA:1079,84
DA:1080,84
DA:1081,84
DA:1082,0
DA:1083,0
DA:1084,0
DA:1085,0
DA:1086,0
DA:1088,0
DA:1091,0
DA:1092,0
DA:1093,0
DA:1097,84
DA:1098,84
DA:1099,84
DA:1101,84
DA:1102,81
DA:1104,0
DA:1105,0
DA:1106,0
DA:1108,84
DA:1110,84
DA:1112,84
DA:1114,80
DA:1115,16
DA:1116,64
DA:1118,64
DA:1120,64
DA:1122,0
DA:1123,0
DA:1124,0
DA:1125,0
DA:1126,0
DA:1133,4
DA:1134,3
DA:1135,3
DA:1136,4
DA:1139,84
DA:1142,9
DA:1143,9
DA:1144,9
DA:1145,9
DA:1146,9
DA:1147,9
DA:1148,9
DA:1149,9
DA:1150,9
DA:1151,9
DA:1152,9
DA:1153,9
DA:1155,9
DA:1157,9
DA:1158,7
DA:1159,2
DA:1161,2
DA:1162,2
DA:1163,2
DA:1164,2
DA:1165,2
DA:1166,2
DA:1167,2
DA:1168,2
DA:1169,6
DA:1170,6
DA:1171,6
DA:1172,6
DA:1173,6
DA:1174,6
DA:1175,6
DA:1176,6
DA:1177,6
DA:1179,2
DA:1180,2
DA:1181,2
DA:1182,2
DA:1183,2
DA:1185,9
BRF:0
BRH:0
LF:868
LH:674
end_of_record
SF:/Users/samcolak/Source Code/rust/distdb/distdb/server/src/core/mappings/query/core/select_ops.rs
FN:128,_RNvNtNtNtNtNtCsjRwMhjCpbZQ_6server4core8mappings5query4core10select_ops19execute_select_impl
FN:847,_RNvNtNtNtNtNtCsjRwMhjCpbZQ_6server4core8mappings5query4core10select_ops21execute_joined_select
FN:108,_RNvNtNtNtNtNtCsjRwMhjCpbZQ_6server4core8mappings5query4core10select_ops23extract_view_select_sql
FN:713,_RNvNtNtNtNtNtCsjRwMhjCpbZQ_6server4core8mappings5query4core10select_ops24execute_select_with_ctes
FN:3,_RNvNtNtNtNtNtCsjRwMhjCpbZQ_6server4core8mappings5query4core10select_ops26execute_select_plan_result
FN:828,_RNvNtNtNtNtNtCsjRwMhjCpbZQ_6server4core8mappings5query4core10select_ops28remap_select_read_plan_table
FN:652,_RNvNtNtNtNtNtCsjRwMhjCpbZQ_6server4core8mappings5query4core10select_ops30strip_matching_database_prefix
FN:670,_RNvNtNtNtNtNtCsjRwMhjCpbZQ_6server4core8mappings5query4core10select_ops40execute_view_over_scoped_materialization
FN:783,_RNvNtNtNtNtNtCsjRwMhjCpbZQ_6server4core8mappings5query4core10select_ops43materialize_select_result_into_scoped_table
FN:630,_RNvNtNtNtNtNtCsjRwMhjCpbZQ_6server4core8mappings5query4core10select_ops46normalize_select_read_plan_for_active_database
FN:180,_RNCNCNvNtNtNtNtNtCsjRwMhjCpbZQ_6server4core8mappings5query4core10select_ops19execute_select_impls_00Bf_
FN:734,_RNCNCNvNtNtNtNtNtCsjRwMhjCpbZQ_6server4core8mappings5query4core10select_ops24execute_select_with_ctes00Bf_
FN:751,_RNCNCNvNtNtNtNtNtCsjRwMhjCpbZQ_6server4core8mappings5query4core10select_ops24execute_select_with_ctes0s0_0Bf_
FN:761,_RNCNCNvNtNtNtNtNtCsjRwMhjCpbZQ_6server4core8mappings5query4core10select_ops24execute_select_with_ctes0s1_0Bf_
FN:742,_RNCNCNvNtNtNtNtNtCsjRwMhjCpbZQ_6server4core8mappings5query4core10select_ops24execute_select_with_ctes0s_0Bf_
FN:703,_RNCNCNvNtNtNtNtNtCsjRwMhjCpbZQ_6server4core8mappings5query4core10select_ops40execute_view_over_scoped_materializations_00Bf_
FN:143,_RNCNvNtNtNtNtNtCsjRwMhjCpbZQ_6server4core8mappings5query4core10select_ops19execute_select_impl0Bd_
FN:442,_RNCNvNtNtNtNtNtCsjRwMhjCpbZQ_6server4core8mappings5query4core10select_ops19execute_select_impls2_0Bd_
FN:464,_RNCNvNtNtNtNtNtCsjRwMhjCpbZQ_6server4core8mappings5query4core10select_ops19execute_select_impls3_0Bd_
FN:554,_RNCNvNtNtNtNtNtCsjRwMhjCpbZQ_6server4core8mappings5query4core10select_ops19execute_select_impls4_0Bd_
FN:561,_RNCNvNtNtNtNtNtCsjRwMhjCpbZQ_6server4core8mappings5query4core10select_ops19execute_select_impls5_0Bd_
FN:604,_RNCNvNtNtNtNtNtCsjRwMhjCpbZQ_6server4core8mappings5query4core10select_ops19execute_select_impls6_0Bd_
FN:605,_RNCNvNtNtNtNtNtCsjRwMhjCpbZQ_6server4core8mappings5query4core10select_ops19execute_select_impls7_0Bd_
FN:177,_RNCNvNtNtNtNtNtCsjRwMhjCpbZQ_6server4core8mappings5query4core10select_ops19execute_select_impls_0Bd_
FN:868,_RNCNvNtNtNtNtNtCsjRwMhjCpbZQ_6server4core8mappings5query4core10select_ops21execute_joined_select0Bd_
FN:878,_RNCNvNtNtNtNtNtCsjRwMhjCpbZQ_6server4core8mappings5query4core10select_ops21execute_joined_selects0_0Bd_
FN:869,_RNCNvNtNtNtNtNtCsjRwMhjCpbZQ_6server4core8mappings5query4core10select_ops21execute_joined_selects_0Bd_
FN:722,_RNCNvNtNtNtNtNtCsjRwMhjCpbZQ_6server4core8mappings5query4core10select_ops24execute_select_with_ctes0Bd_
FN:17,_RNCNvNtNtNtNtNtCsjRwMhjCpbZQ_6server4core8mappings5query4core10select_ops26execute_select_plan_result0Bd_
FN:27,_RNCNvNtNtNtNtNtCsjRwMhjCpbZQ_6server4core8mappings5query4core10select_ops26execute_select_plan_results0_0Bd_
FN:41,_RNCNvNtNtNtNtNtCsjRwMhjCpbZQ_6server4core8mappings5query4core10select_ops26execute_select_plan_results1_0Bd_
FN:50,_RNCNvNtNtNtNtNtCsjRwMhjCpbZQ_6server4core8mappings5query4core10select_ops26execute_select_plan_results2_0Bd_
FN:54,_RNCNvNtNtNtNtNtCsjRwMhjCpbZQ_6server4core8mappings5query4core10select_ops26execute_select_plan_results3_0Bd_
FN:65,_RNCNvNtNtNtNtNtCsjRwMhjCpbZQ_6server4core8mappings5query4core10select_ops26execute_select_plan_results4_0Bd_
FN:71,_RNCNvNtNtNtNtNtCsjRwMhjCpbZQ_6server4core8mappings5query4core10select_ops26execute_select_plan_results5_0Bd_
FN:94,_RNCNvNtNtNtNtNtCsjRwMhjCpbZQ_6server4core8mappings5query4core10select_ops26execute_select_plan_results6_0Bd_
FN:95,_RNCNvNtNtNtNtNtCsjRwMhjCpbZQ_6server4core8mappings5query4core10select_ops26execute_select_plan_results7_0Bd_
FN:18,_RNCNvNtNtNtNtNtCsjRwMhjCpbZQ_6server4core8mappings5query4core10select_ops26execute_select_plan_results_0Bd_
FN:659,_RNCNvNtNtNtNtNtCsjRwMhjCpbZQ_6server4core8mappings5query4core10select_ops30strip_matching_database_prefix0Bd_
FN:687,_RNCNvNtNtNtNtNtCsjRwMhjCpbZQ_6server4core8mappings5query4core10select_ops40execute_view_over_scoped_materialization0Bd_
FN:707,_RNCNvNtNtNtNtNtCsjRwMhjCpbZQ_6server4core8mappings5query4core10select_ops40execute_view_over_scoped_materializations0_0Bd_
FN:689,_RNCNvNtNtNtNtNtCsjRwMhjCpbZQ_6server4core8mappings5query4core10select_ops40execute_view_over_scoped_materializations_0Bd_
FN:793,_RNCNvNtNtNtNtNtCsjRwMhjCpbZQ_6server4core8mappings5query4core10select_ops43materialize_select_result_into_scoped_table0Bd_
FN:806,_RNCNvNtNtNtNtNtCsjRwMhjCpbZQ_6server4core8mappings5query4core10select_ops43materialize_select_result_into_scoped_tables0_0Bd_
FN:820,_RNCNvNtNtNtNtNtCsjRwMhjCpbZQ_6server4core8mappings5query4core10select_ops43materialize_select_result_into_scoped_tables1_0Bd_
FN:801,_RNCNvNtNtNtNtNtCsjRwMhjCpbZQ_6server4core8mappings5query4core10select_ops43materialize_select_result_into_scoped_tables_0Bd_
FNDA:1048,_RNvNtNtNtNtNtCsjRwMhjCpbZQ_6server4core8mappings5query4core10select_ops19execute_select_impl
FNDA:8,_RNvNtNtNtNtNtCsjRwMhjCpbZQ_6server4core8mappings5query4core10select_ops21execute_joined_select
FNDA:1,_RNvNtNtNtNtNtCsjRwMhjCpbZQ_6server4core8mappings5query4core10select_ops23extract_view_select_sql
FNDA:3,_RNvNtNtNtNtNtCsjRwMhjCpbZQ_6server4core8mappings5query4core10select_ops24execute_select_with_ctes
FNDA:40,_RNvNtNtNtNtNtCsjRwMhjCpbZQ_6server4core8mappings5query4core10select_ops26execute_select_plan_result
FNDA:1,_RNvNtNtNtNtNtCsjRwMhjCpbZQ_6server4core8mappings5query4core10select_ops28remap_select_read_plan_table
FNDA:1097,_RNvNtNtNtNtNtCsjRwMhjCpbZQ_6server4core8mappings5query4core10select_ops30strip_matching_database_prefix
FNDA:1,_RNvNtNtNtNtNtCsjRwMhjCpbZQ_6server4core8mappings5query4core10select_ops40execute_view_over_scoped_materialization
FNDA:4,_RNvNtNtNtNtNtCsjRwMhjCpbZQ_6server4core8mappings5query4core10select_ops43materialize_select_result_into_scoped_table
FNDA:540,_RNvNtNtNtNtNtCsjRwMhjCpbZQ_6server4core8mappings5query4core10select_ops46normalize_select_read_plan_for_active_database
FNDA:504,_RNCNCNvNtNtNtNtNtCsjRwMhjCpbZQ_6server4core8mappings5query4core10select_ops19execute_select_impls_00Bf_
FNDA:0,_RNCNCNvNtNtNtNtNtCsjRwMhjCpbZQ_6server4core8mappings5query4core10select_ops24execute_select_with_ctes00Bf_
FNDA:0,_RNCNCNvNtNtNtNtNtCsjRwMhjCpbZQ_6server4core8mappings5query4core10select_ops24execute_select_with_ctes0s0_0Bf_
FNDA:0,_RNCNCNvNtNtNtNtNtCsjRwMhjCpbZQ_6server4core8mappings5query4core10select_ops24execute_select_with_ctes0s1_0Bf_
FNDA:0,_RNCNCNvNtNtNtNtNtCsjRwMhjCpbZQ_6server4core8mappings5query4core10select_ops24execute_select_with_ctes0s_0Bf_
FNDA:0,_RNCNCNvNtNtNtNtNtCsjRwMhjCpbZQ_6server4core8mappings5query4core10select_ops40execute_view_over_scoped_materializations_00Bf_
FNDA:0,_RNCNvNtNtNtNtNtCsjRwMhjCpbZQ_6server4core8mappings5query4core10select_ops19execute_select_impl0Bd_
FNDA:1,_RNCNvNtNtNtNtNtCsjRwMhjCpbZQ_6server4core8mappings5query4core10select_ops19execute_select_impls2_0Bd_
FNDA:1,_RNCNvNtNtNtNtNtCsjRwMhjCpbZQ_6server4core8mappings5query4core10select_ops19execute_select_impls3_0Bd_
FNDA:15,_RNCNvNtNtNtNtNtCsjRwMhjCpbZQ_6server4core8mappings5query4core10select_ops19execute_select_impls4_0Bd_
FNDA:15,_RNCNvNtNtNtNtNtCsjRwMhjCpbZQ_6server4core8mappings5query4core10select_ops19execute_select_impls5_0Bd_
FNDA:0,_RNCNvNtNtNtNtNtCsjRwMhjCpbZQ_6server4core8mappings5query4core10select_ops19execute_select_impls6_0Bd_
FNDA:30,_RNCNvNtNtNtNtNtCsjRwMhjCpbZQ_6server4core8mappings5query4core10select_ops19execute_select_impls7_0Bd_
FNDA:504,_RNCNvNtNtNtNtNtCsjRwMhjCpbZQ_6server4core8mappings5query4core10select_ops19execute_select_impls_0Bd_
FNDA:0,_RNCNvNtNtNtNtNtCsjRwMhjCpbZQ_6server4core8mappings5query4core10select_ops21execute_joined_select0Bd_
FNDA:14,_RNCNvNtNtNtNtNtCsjRwMhjCpbZQ_6server4core8mappings5query4core10select_ops21execute_joined_selects0_0Bd_
FNDA:21,_RNCNvNtNtNtNtNtCsjRwMhjCpbZQ_6server4core8mappings5query4core10select_ops21execute_joined_selects_0Bd_
FNDA:3,_RNCNvNtNtNtNtNtCsjRwMhjCpbZQ_6server4core8mappings5query4core10select_ops24execute_select_with_ctes0Bd_
FNDA:0,_RNCNvNtNtNtNtNtCsjRwMhjCpbZQ_6server4core8mappings5query4core10select_ops26execute_select_plan_result0Bd_
FNDA:0,_RNCNvNtNtNtNtNtCsjRwMhjCpbZQ_6server4core8mappings5query4core10select_ops26execute_select_plan_results0_0Bd_
FNDA:0,_RNCNvNtNtNtNtNtCsjRwMhjCpbZQ_6server4core8mappings5query4core10select_ops26execute_select_plan_results1_0Bd_
FNDA:0,_RNCNvNtNtNtNtNtCsjRwMhjCpbZQ_6server4core8mappings5query4core10select_ops26execute_select_plan_results2_0Bd_
FNDA:0,_RNCNvNtNtNtNtNtCsjRwMhjCpbZQ_6server4core8mappings5query4core10select_ops26execute_select_plan_results3_0Bd_
FNDA:3,_RNCNvNtNtNtNtNtCsjRwMhjCpbZQ_6server4core8mappings5query4core10select_ops26execute_select_plan_results4_0Bd_
FNDA:3,_RNCNvNtNtNtNtNtCsjRwMhjCpbZQ_6server4core8mappings5query4core10select_ops26execute_select_plan_results5_0Bd_
FNDA:0,_RNCNvNtNtNtNtNtCsjRwMhjCpbZQ_6server4core8mappings5query4core10select_ops26execute_select_plan_results6_0Bd_
FNDA:62,_RNCNvNtNtNtNtNtCsjRwMhjCpbZQ_6server4core8mappings5query4core10select_ops26execute_select_plan_results7_0Bd_
FNDA:0,_RNCNvNtNtNtNtNtCsjRwMhjCpbZQ_6server4core8mappings5query4core10select_ops26execute_select_plan_results_0Bd_
FNDA:0,_RNCNvNtNtNtNtNtCsjRwMhjCpbZQ_6server4core8mappings5query4core10select_ops30strip_matching_database_prefix0Bd_
FNDA:0,_RNCNvNtNtNtNtNtCsjRwMhjCpbZQ_6server4core8mappings5query4core10select_ops40execute_view_over_scoped_materialization0Bd_
FNDA:0,_RNCNvNtNtNtNtNtCsjRwMhjCpbZQ_6server4core8mappings5query4core10select_ops40execute_view_over_scoped_materializations0_0Bd_
FNDA:1,_RNCNvNtNtNtNtNtCsjRwMhjCpbZQ_6server4core8mappings5query4core10select_ops40execute_view_over_scoped_materializations_0Bd_
FNDA:0,_RNCNvNtNtNtNtNtCsjRwMhjCpbZQ_6server4core8mappings5query4core10select_ops43materialize_select_result_into_scoped_table0Bd_
FNDA:0,_RNCNvNtNtNtNtNtCsjRwMhjCpbZQ_6server4core8mappings5query4core10select_ops43materialize_select_result_into_scoped_tables0_0Bd_
FNDA:0,_RNCNvNtNtNtNtNtCsjRwMhjCpbZQ_6server4core8mappings5query4core10select_ops43materialize_select_result_into_scoped_tables1_0Bd_
FNDA:0,_RNCNvNtNtNtNtNtCsjRwMhjCpbZQ_6server4core8mappings5query4core10select_ops43materialize_select_result_into_scoped_tables_0Bd_
FNF:46
FNH:24
DA:3,40
DA:4,40
DA:5,40
DA:6,40
DA:7,40
DA:8,40
DA:10,40
DA:12,0
DA:13,0
DA:14,0
DA:15,0
DA:16,0
DA:17,0
DA:18,0
DA:19,0
DA:20,0
DA:21,0
DA:22,0
DA:23,0
DA:24,0
DA:25,0
DA:26,0
DA:27,0
DA:28,0
DA:29,0
DA:30,0
DA:31,0
DA:32,0
DA:33,0
DA:34,0
DA:35,0
DA:38,40
DA:40,40
DA:41,0
DA:42,0
DA:43,0
DA:44,40
DA:46,40
DA:48,40
DA:49,40
DA:50,40
DA:52,40
DA:53,40
DA:54,40
DA:56,40
DA:57,40
DA:58,40
DA:59,40
DA:61,40
DA:62,40
DA:63,40
DA:64,40
DA:65,40
DA:66,3
DA:67,3
DA:68,40
DA:69,40
DA:70,40
DA:71,40
DA:72,3
DA:73,3
DA:74,3
DA:75,3
DA:77,3
DA:78,40
DA:80,40
DA:81,40
DA:82,40
DA:83,40
DA:84,40
DA:87,40
DA:88,40
DA:89,40
DA:90,40
DA:91,40
DA:92,40
DA:93,40
DA:94,0
DA:95,62
DA:96,62
DA:97,62
DA:98,62
DA:99,62
DA:100,62
DA:101,62
DA:102,62
DA:103,62
DA:106,40
DA:108,1
DA:110,1
DA:111,1
DA:113,1
DA:114,0
DA:115,1
DA:117,1
DA:118,1
DA:119,1
DA:120,1
DA:121,0
DA:122,0
DA:124,0
DA:126,1
DA:128,1048
DA:129,1048
DA:130,1048
DA:131,1048
DA:132,1048
DA:133,1048
DA:134,1048
DA:135,1048
DA:136,1048
DA:138,1048
DA:140,1048
DA:142,0
DA:143,0
DA:144,0
DA:145,0
DA:147,0
DA:149,0
DA:152,0
DA:153,0
DA:154,0
DA:155,0
DA:156,0
DA:157,0
DA:158,0
DA:161,1048
DA:163,1048
DA:165,502
DA:166,502
DA:167,502
DA:168,502
DA:170,502
DA:171,0
DA:172,0
DA:173,0
DA:177,504
DA:178,504
DA:179,504
DA:180,504
DA:181,504
DA:182,504
DA:184,504
DA:185,504
DA:187,502
DA:188,502
DA:189,502
DA:190,502
DA:191,502
DA:192,502
DA:193,502
DA:196,546
DA:198,546
DA:199,543
DA:200,543
DA:203,3
DA:204,0
DA:205,0
DA:210,3
DA:212,0
DA:214,0
DA:215,0
DA:216,0
DA:217,0
DA:221,0
DA:225,0
DA:226,0
DA:227,0
DA:229,0
DA:230,0
DA:232,0
DA:239,3
DA:241,0
DA:242,0
DA:243,0
DA:244,0
DA:248,0
DA:252,3
DA:253,0
DA:254,0
DA:255,0
DA:259,3
DA:263,3
DA:265,1
DA:267,2
DA:269,0
DA:271,2
DA:273,1
DA:275,1
DA:277,1
DA:278,1
DA:279,1
DA:280,1
DA:285,0
DA:286,0
DA:287,0
DA:290,0
DA:291,0
DA:293,0
DA:300,3
DA:301,3
DA:302,3
DA:303,3
DA:304,3
DA:305,3
DA:306,3
DA:309,543
DA:311,543
DA:313,543
DA:315,0
DA:316,0
DA:317,0
DA:318,0
DA:324,543
DA:325,543
DA:326,543
DA:327,543
DA:329,543
DA:331,1
DA:332,1
DA:333,1
DA:334,1
DA:335,1
DA:336,1
DA:337,1
DA:339,0
DA:340,0
DA:341,0
DA:342,0
DA:344,0
DA:345,0
DA:346,0
DA:351,1
DA:352,1
DA:353,1
DA:355,542
DA:357,1
DA:358,1
DA:359,1
DA:360,1
DA:361,1
DA:362,0
DA:363,0
DA:364,0
DA:365,0
DA:367,0
DA:368,0
DA:369,0
DA:373,1
DA:374,1
DA:375,1
DA:379,541
DA:380,1
DA:381,1
DA:382,1
DA:386,540
DA:387,540
DA:388,540
DA:389,540
DA:392,540
DA:396,542
DA:398,1
DA:399,1
DA:400,0
DA:401,0
DA:405,1
DA:406,1
DA:407,1
DA:408,1
DA:409,1
DA:410,1
DA:411,1
DA:413,541
DA:415,541
DA:416,8
DA:417,533
DA:419,533
DA:421,533
DA:423,1
DA:424,0
DA:425,0
DA:426,0
DA:427,0
DA:428,0
DA:429,0
DA:430,0
DA:431,0
DA:432,0
DA:433,0
DA:434,0
DA:435,0
DA:436,0
DA:439,1
DA:441,1
DA:442,1
DA:443,1
DA:444,1
DA:445,1
DA:446,0
DA:447,0
DA:451,1
DA:452,1
DA:453,1
DA:454,1
DA:455,1
DA:456,1
DA:457,1
DA:460,532
DA:462,532
DA:463,532
DA:464,532
DA:466,532
DA:468,1
DA:469,1
DA:470,0
DA:471,0
DA:475,1
DA:476,1
DA:477,0
DA:478,0
DA:479,0
DA:480,0
DA:485,1
DA:487,1
DA:489,0
DA:490,0
DA:491,0
DA:492,0
DA:498,1
DA:499,1
DA:500,1
DA:501,1
DA:502,1
DA:503,1
DA:504,1
DA:505,1
DA:506,1
DA:508,0
DA:509,0
DA:513,1
DA:514,1
DA:515,1
DA:516,1
DA:517,1
DA:518,1
DA:519,1
DA:522,531
DA:524,531
DA:525,0
DA:526,0
DA:527,0
DA:534,531
DA:535,0
DA:536,0
DA:537,0
DA:544,531
DA:545,531
DA:546,531
DA:547,531
DA:549,531
DA:551,531
DA:552,531
DA:553,531
DA:554,531
DA:555,15
DA:556,15
DA:558,531
DA:559,531
DA:560,531
DA:561,531
DA:562,15
DA:563,15
DA:564,15
DA:565,15
DA:567,15
DA:568,531
DA:570,531
DA:571,531
DA:572,531
DA:573,531
DA:574,531
DA:577,531
DA:579,531
DA:580,0
DA:581,0
DA:582,0
DA:583,0
DA:584,0
DA:585,0
DA:586,0
DA:587,0
DA:588,0
DA:589,0
DA:590,0
DA:591,0
DA:592,0
DA:595,531
DA:597,531
DA:598,531
DA:599,531
DA:600,531
DA:601,531
DA:602,531
DA:603,531
DA:604,0
DA:605,30
DA:606,30
DA:607,30
DA:608,30
DA:609,30
DA:610,30
DA:611,30
DA:612,30
DA:613,30
DA:615,531
DA:616,0
DA:619,531
DA:620,531
DA:621,531
DA:622,531
DA:623,531
DA:624,531
DA:625,531
DA:628,1048
DA:630,540
DA:631,540
DA:632,540
DA:633,540
DA:635,540
DA:637,548
DA:638,548
DA:639,548
DA:641,540
DA:642,9
DA:643,9
DA:644,9
DA:645,9
DA:646,9
DA:647,9
DA:648,9
DA:650,540
DA:652,1097
DA:654,1097
DA:655,1097
DA:657,1097
DA:658,1097
DA:659,1097
DA:660,0
DA:661,0
DA:663,0
DA:665,0
DA:666,1097
DA:668,1097
DA:670,1
DA:671,1
DA:672,1
DA:673,1
DA:674,1
DA:675,1
DA:676,1
DA:677,1
DA:679,1
DA:681,1
DA:682,1
DA:683,1
DA:684,1
DA:685,1
DA:687,1
DA:689,1
DA:690,1
DA:692,1
DA:693,1
DA:694,1
DA:695,1
DA:696,1
DA:697,1
DA:698,0
DA:700,1
DA:702,1
DA:703,1
DA:706,1
DA:707,1
DA:709,1
DA:711,1
DA:713,3
DA:714,3
DA:715,3
DA:716,3
DA:717,3
DA:718,3
DA:720,3
DA:722,3
DA:724,3
DA:726,3
DA:727,0
DA:728,0
DA:729,0
DA:730,0
DA:731,3
DA:733,3
DA:734,3
DA:736,3
DA:737,3
DA:738,3
DA:739,3
DA:740,3
DA:742,3
DA:744,3
DA:745,3
DA:746,3
DA:747,3
DA:748,3
DA:749,3
DA:751,3
DA:753,3
DA:757,3
DA:758,3
DA:760,3
DA:761,3
DA:765,3
DA:767,3
DA:768,3
DA:769,0
DA:770,0
DA:771,0
DA:772,3
DA:775,3
DA:776,0
DA:777,3
DA:779,3
DA:781,3
DA:783,4
DA:784,4
DA:785,4
DA:786,4
DA:787,4
DA:788,4
DA:789,4
DA:791,4
DA:792,4
DA:793,4
DA:795,4
DA:797,7
DA:798,7
DA:800,8
DA:801,8
DA:802,8
DA:805,7
DA:806,7
DA:808,7
DA:809,7
DA:810,7
DA:811,7
DA:812,7
DA:813,7
DA:814,7
DA:815,7
DA:816,7
DA:817,7
DA:818,7
DA:820,7
DA:824,4
DA:826,4
DA:828,1
DA:829,1
DA:830,1
DA:831,1
DA:833,1
DA:834,1
DA:835,1
DA:837,1
DA:838,1
DA:839,1
DA:840,1
DA:843,1
DA:845,1
DA:847,8
DA:848,8
DA:849,8
DA:850,8
DA:851,8
DA:852,8
DA:853,8
DA:854,8
DA:856,8
DA:857,1
DA:858,1
DA:859,1
DA:861,7
DA:863,7
DA:864,7
DA:865,7
DA:866,7
DA:867,7
DA:868,0
DA:869,21
DA:870,21
DA:871,21
DA:872,21
DA:873,21
DA:874,21
DA:875,21
DA:876,21
DA:877,21
DA:878,14
DA:879,14
DA:880,14
DA:881,14
DA:882,14
DA:883,14
DA:884,14
DA:885,14
DA:886,14
DA:888,7
DA:889,0
DA:892,7
DA:893,7
DA:894,7
DA:895,7
DA:896,7
DA:897,7
DA:898,7
DA:901,8
BRF:0
BRH:0
LF:649
LH:473
end_of_record
SF:/Users/samcolak/Source Code/rust/distdb/distdb/server/src/core/mappings/query/core/set_ops.rs
FN:583,_RNvNtNtNtNtNtCsjRwMhjCpbZQ_6server4core8mappings5query4core7set_ops20max_enum_variant_len
FN:324,_RNvNtNtNtNtNtCsjRwMhjCpbZQ_6server4core8mappings5query4core7set_ops22apply_union_row_window
FN:552,_RNvNtNtNtNtNtCsjRwMhjCpbZQ_6server4core8mappings5query4core7set_ops22union_cell_compare_key
FN:5,_RNvNtNtNtNtNtCsjRwMhjCpbZQ_6server4core8mappings5query4core7set_ops24execute_union_query_impl
FN:542,_RNvNtNtNtNtNtCsjRwMhjCpbZQ_6server4core8mappings5query4core7set_ops24union_row_comparison_key
FN:300,_RNvNtNtNtNtNtCsjRwMhjCpbZQ_6server4core8mappings5query4core7set_ops25compare_union_cell_values
FN:348,_RNvNtNtNtNtNtCsjRwMhjCpbZQ_6server4core8mappings5query4core7set_ops25resolve_union_column_type
FN:212,_RNvNtNtNtNtNtCsjRwMhjCpbZQ_6server4core8mappings5query4core7set_ops28apply_set_boundary_operation
FN:268,_RNvNtNtNtNtNtCsjRwMhjCpbZQ_6server4core8mappings5query4core7set_ops28reconcile_union_column_types
FN:340,_RNvNtNtNtNtNtCsjRwMhjCpbZQ_6server4core8mappings5query4core7set_ops30dedupe_union_rows_with_columns
FN:514,_RNvNtNtNtNtNtCsjRwMhjCpbZQ_6server4core8mappings5query4core7set_ops30reconcile_union_metadata_value
FN:466,_RNvNtNtNtNtNtCsjRwMhjCpbZQ_6server4core8mappings5query4core7set_ops31reconcile_union_column_metadata
FN:573,_RNvNtNtNtNtNtCsjRwMhjCpbZQ_6server4core8mappings5query4core7set_ops33resolve_mixed_signed_unsigned_int
FN:564,_RNvNtNtNtNtNtCsjRwMhjCpbZQ_6server4core8mappings5query4core7set_ops44union_column_uses_case_insensitive_collation
FN:586,_RNCNvNtNtNtNtNtCsjRwMhjCpbZQ_6server4core8mappings5query4core7set_ops20max_enum_variant_len0Bd_
FN:331,_RNCNvNtNtNtNtNtCsjRwMhjCpbZQ_6server4core8mappings5query4core7set_ops22apply_union_row_window0Bd_
FN:162,_RNCNvNtNtNtNtNtCsjRwMhjCpbZQ_6server4core8mappings5query4core7set_ops24execute_union_query_impl0Bd_
FN:179,_RNCNvNtNtNtNtNtCsjRwMhjCpbZQ_6server4core8mappings5query4core7set_ops24execute_union_query_impls_0Bd_
FN:548,_RNCNvNtNtNtNtNtCsjRwMhjCpbZQ_6server4core8mappings5query4core7set_ops24union_row_comparison_key0Bd_
FN:240,_RNCNvNtNtNtNtNtCsjRwMhjCpbZQ_6server4core8mappings5query4core7set_ops28apply_set_boundary_operation0Bd_
FN:256,_RNCNvNtNtNtNtNtCsjRwMhjCpbZQ_6server4core8mappings5query4core7set_ops28apply_set_boundary_operations_0Bd_
FN:280,_RNCNvNtNtNtNtNtCsjRwMhjCpbZQ_6server4core8mappings5query4core7set_ops28reconcile_union_column_types0Bd_
FN:345,_RNCNvNtNtNtNtNtCsjRwMhjCpbZQ_6server4core8mappings5query4core7set_ops30dedupe_union_rows_with_columns0Bd_
FN:565,_RNCNvNtNtNtNtNtCsjRwMhjCpbZQ_6server4core8mappings5query4core7set_ops44union_column_uses_case_insensitive_collation0Bd_
FNDA:2,_RNvNtNtNtNtNtCsjRwMhjCpbZQ_6server4core8mappings5query4core7set_ops20max_enum_variant_len
FNDA:14,_RNvNtNtNtNtNtCsjRwMhjCpbZQ_6server4core8mappings5query4core7set_ops22apply_union_row_window
FNDA:70,_RNvNtNtNtNtNtCsjRwMhjCpbZQ_6server4core8mappings5query4core7set_ops22union_cell_compare_key
FNDA:16,_RNvNtNtNtNtNtCsjRwMhjCpbZQ_6server4core8mappings5query4core7set_ops24execute_union_query_impl
FNDA:34,_RNvNtNtNtNtNtCsjRwMhjCpbZQ_6server4core8mappings5query4core7set_ops24union_row_comparison_key
FNDA:18,_RNvNtNtNtNtNtCsjRwMhjCpbZQ_6server4core8mappings5query4core7set_ops25compare_union_cell_values
FNDA:18,_RNvNtNtNtNtNtCsjRwMhjCpbZQ_6server4core8mappings5query4core7set_ops25resolve_union_column_type
FNDA:16,_RNvNtNtNtNtNtCsjRwMhjCpbZQ_6server4core8mappings5query4core7set_ops28apply_set_boundary_operation
FNDA:18,_RNvNtNtNtNtNtCsjRwMhjCpbZQ_6server4core8mappings5query4core7set_ops28reconcile_union_column_types
FNDA:8,_RNvNtNtNtNtNtCsjRwMhjCpbZQ_6server4core8mappings5query4core7set_ops30dedupe_union_rows_with_columns
FNDA:34,_RNvNtNtNtNtNtCsjRwMhjCpbZQ_6server4core8mappings5query4core7set_ops30reconcile_union_metadata_value
FNDA:17,_RNvNtNtNtNtNtCsjRwMhjCpbZQ_6server4core8mappings5query4core7set_ops31reconcile_union_column_metadata
FNDA:1,_RNvNtNtNtNtNtCsjRwMhjCpbZQ_6server4core8mappings5query4core7set_ops33resolve_mixed_signed_unsigned_int
FNDA:70,_RNvNtNtNtNtNtCsjRwMhjCpbZQ_6server4core8mappings5query4core7set_ops44union_column_uses_case_insensitive_collation
FNDA:4,_RNCNvNtNtNtNtNtCsjRwMhjCpbZQ_6server4core8mappings5query4core7set_ops20max_enum_variant_len0Bd_
FNDA:1,_RNCNvNtNtNtNtNtCsjRwMhjCpbZQ_6server4core8mappings5query4core7set_ops22apply_union_row_window0Bd_
FNDA:2,_RNCNvNtNtNtNtNtCsjRwMhjCpbZQ_6server4core8mappings5query4core7set_ops24execute_union_query_impl0Bd_
FNDA:18,_RNCNvNtNtNtNtNtCsjRwMhjCpbZQ_6server4core8mappings5query4core7set_ops24execute_union_query_impls_0Bd_
FNDA:34,_RNCNvNtNtNtNtNtCsjRwMhjCpbZQ_6server4core8mappings5query4core7set_ops24union_row_comparison_key0Bd_
FNDA:3,_RNCNvNtNtNtNtNtCsjRwMhjCpbZQ_6server4core8mappings5query4core7set_ops28apply_set_boundary_operation0Bd_
FNDA:4,_RNCNvNtNtNtNtNtCsjRwMhjCpbZQ_6server4core8mappings5query4core7set_ops28apply_set_boundary_operations_0Bd_
FNDA:1,_RNCNvNtNtNtNtNtCsjRwMhjCpbZQ_6server4core8mappings5query4core7set_ops28reconcile_union_column_types0Bd_
FNDA:23,_RNCNvNtNtNtNtNtCsjRwMhjCpbZQ_6server4core8mappings5query4core7set_ops30dedupe_union_rows_with_columns0Bd_
FNDA:4,_RNCNvNtNtNtNtNtCsjRwMhjCpbZQ_6server4core8mappings5query4core7set_ops44union_column_uses_case_insensitive_collation0Bd_
FNF:24
FNH:24
DA:5,16
DA:6,16
DA:7,16
DA:8,16
DA:9,16
DA:10,16
DA:11,16
DA:12,16
DA:14,16
DA:15,16
DA:16,16
DA:17,0
DA:18,0
DA:19,0
DA:20,0
DA:25,16
DA:26,0
DA:27,0
DA:28,0
DA:32,16
DA:34,52
DA:35,52
DA:36,34
DA:37,34
DA:38,2
DA:39,2
DA:40,0
DA:41,0
DA:42,0
DA:43,0
DA:48,32
DA:49,32
DA:50,0
DA:51,0
DA:52,0
DA:53,0
DA:59,34
DA:62,18
DA:63,18
DA:64,0
DA:65,0
DA:66,0
DA:67,0
DA:71,18
DA:72,0
DA:73,0
DA:74,0
DA:75,0
DA:79,18
DA:80,0
DA:81,0
DA:82,0
DA:83,0
DA:85,18
DA:87,2
DA:88,18
DA:90,2
DA:91,2
DA:92,2
DA:94,16
DA:96,16
DA:97,16
DA:98,16
DA:99,16
DA:100,16
DA:103,16
DA:104,16
DA:109,14
DA:110,0
DA:111,0
DA:112,0
DA:116,14
DA:117,0
DA:118,0
DA:119,0
DA:121,14
DA:123,14
DA:124,14
DA:126,14
DA:127,4
DA:130,4
DA:131,4
DA:132,4
DA:134,2
DA:135,2
DA:137,0
DA:138,0
DA:139,0
DA:147,2
DA:148,0
DA:149,0
DA:150,0
DA:153,0
DA:156,2
DA:158,2
DA:160,2
DA:161,2
DA:162,2
DA:164,0
DA:165,0
DA:166,0
DA:173,2
DA:176,4
DA:179,18
DA:180,18
DA:181,18
DA:182,18
DA:183,18
DA:184,18
DA:187,18
DA:188,16
DA:189,15
DA:191,1
DA:193,2
DA:196,2
DA:197,18
DA:198,10
DA:200,14
DA:202,14
DA:203,14
DA:204,14
DA:205,14
DA:206,14
DA:207,14
DA:208,14
DA:210,16
DA:212,16
DA:213,16
DA:214,16
DA:215,16
DA:216,16
DA:217,16
DA:219,16
DA:222,8
DA:223,8
DA:227,5
DA:228,5
DA:229,5
DA:233,1
DA:235,1
DA:236,1
DA:237,1
DA:238,1
DA:240,3
DA:241,3
DA:242,3
DA:243,3
DA:245,1
DA:249,2
DA:251,2
DA:252,3
DA:253,3
DA:254,3
DA:256,4
DA:257,4
DA:258,4
DA:259,4
DA:261,2
DA:266,16
DA:268,18
DA:269,18
DA:270,18
DA:271,18
DA:273,18
DA:274,18
DA:275,18
DA:276,18
DA:279,18
DA:280,18
DA:281,1
DA:283,1
DA:284,1
DA:285,1
DA:287,1
DA:289,17
DA:290,17
DA:292,17
DA:296,16
DA:298,18
DA:300,18
DA:301,18
DA:302,18
DA:303,18
DA:304,18
DA:306,18
DA:308,18
DA:309,18
DA:310,18
DA:311,18
DA:314,0
DA:316,0
DA:318,0
DA:322,18
DA:324,14
DA:325,14
DA:326,14
DA:327,14
DA:328,14
DA:329,14
DA:330,14
DA:331,14
DA:332,14
DA:334,14
DA:335,14
DA:336,14
DA:337,14
DA:338,14
DA:340,8
DA:341,8
DA:342,8
DA:343,8
DA:344,8
DA:345,23
DA:346,8
DA:348,18
DA:349,18
DA:350,18
DA:351,18
DA:354,18
DA:355,13
DA:356,5
DA:358,5
DA:360,0
DA:361,0
DA:364,0
DA:365,0
DA:368,0
DA:369,0
DA:372,1
DA:373,0
DA:374,1
DA:377,0
DA:378,0
DA:379,0
DA:380,0
DA:381,0
DA:386,0
DA:393,0
DA:395,1
DA:396,1
DA:401,0
DA:403,1
DA:404,1
DA:405,1
DA:406,1
DA:409,0
DA:410,0
DA:411,0
DA:412,0
DA:416,0
DA:418,0
DA:419,0
DA:458,1
DA:460,1
DA:464,18
DA:466,17
DA:467,17
DA:468,17
DA:469,17
DA:470,17
DA:472,17
DA:473,17
DA:475,17
DA:476,17
DA:477,17
DA:478,17
DA:479,17
DA:480,0
DA:482,17
DA:483,17
DA:484,17
DA:485,17
DA:486,17
DA:487,1
DA:489,16
DA:490,0
DA:492,16
DA:495,16
DA:496,16
DA:497,16
DA:498,16
DA:499,16
DA:500,16
DA:501,16
DA:504,16
DA:505,14
DA:506,14
DA:507,2
DA:508,2
DA:510,16
DA:512,17
DA:514,34
DA:515,34
DA:516,34
DA:517,34
DA:518,34
DA:519,34
DA:521,34
DA:523,6
DA:524,5
DA:527,0
DA:529,0
DA:531,28
DA:533,1
DA:534,1
DA:535,1
DA:536,1
DA:540,34
DA:542,34
DA:543,34
DA:544,34
DA:545,34
DA:546,34
DA:547,34
DA:548,34
DA:549,34
DA:550,34
DA:552,70
DA:553,70
DA:554,0
DA:557,70
DA:558,4
DA:559,66
DA:561,66
DA:562,70
DA:564,70
DA:565,70
DA:566,66
DA:569,4
DA:570,4
DA:571,70
DA:573,1
DA:576,1
DA:577,1
DA:579,0
DA:581,1
DA:583,2
DA:584,2
DA:585,2
DA:586,4
DA:587,2
DA:588,2
DA:589,2
BRF:0
BRH:0
LF:354
LH:280
end_of_record
SF:/Users/samcolak/Source Code/rust/distdb/distdb/server/src/core/mappings/query/core/wal_ops.rs
FN:572,_RNvNtNtNtNtNtCsjRwMhjCpbZQ_6server4core8mappings5query4core7wal_ops15table_stream_id
FN:3,_RNvNtNtNtNtNtCsjRwMhjCpbZQ_6server4core8mappings5query4core7wal_ops21append_payload_record
FN:53,_RNvNtNtNtNtNtCsjRwMhjCpbZQ_6server4core8mappings5query4core7wal_ops25append_row_payload_record
FN:578,_RNvNtNtNtNtNtCsjRwMhjCpbZQ_6server4core8mappings5query4core7wal_ops25payload_context_for_table
FN:494,_RNvNtNtNtNtNtCsjRwMhjCpbZQ_6server4core8mappings5query4core7wal_ops26abort_external_write_group
FN:447,_RNvNtNtNtNtNtCsjRwMhjCpbZQ_6server4core8mappings5query4core7wal_ops27commit_external_write_group
FN:14,_RNvNtNtNtNtNtCsjRwMhjCpbZQ_6server4core8mappings5query4core7wal_ops32append_payload_record_with_group
FN:193,_RNvNtNtNtNtNtCsjRwMhjCpbZQ_6server4core8mappings5query4core7wal_ops32append_row_payload_records_batch
FN:537,_RNvNtNtNtNtNtCsjRwMhjCpbZQ_6server4core8mappings5query4core7wal_ops33rebuild_runtime_indexes_for_table
FN:80,_RNvNtNtNtNtNtCsjRwMhjCpbZQ_6server4core8mappings5query4core7wal_ops43append_row_payload_record_with_live_row_ids
FN:328,_RINvNtNtNtNtNtCsjRwMhjCpbZQ_6server4core8mappings5query4core7wal_ops26with_statement_write_batchNCNvNtB4_12mutation_ops21execute_delete_lockeds_0EBc_
FN:328,_RINvNtNtNtNtNtCsjRwMhjCpbZQ_6server4core8mappings5query4core7wal_ops26with_statement_write_batchNCNvNtB4_12mutation_ops21execute_insert_lockeds2_0EBc_
FN:328,_RINvNtNtNtNtNtCsjRwMhjCpbZQ_6server4core8mappings5query4core7wal_ops26with_statement_write_batchNCNvNtB4_12mutation_ops21execute_update_lockeds1_0EBc_
FN:527,_RNCNCNCNvNtNtNtNtNtCsjRwMhjCpbZQ_6server4core8mappings5query4core7wal_ops26abort_external_write_group000Bh_
FN:529,_RNCNCNCNvNtNtNtNtNtCsjRwMhjCpbZQ_6server4core8mappings5query4core7wal_ops26abort_external_write_group0s_00Bh_
FN:476,_RNCNCNCNvNtNtNtNtNtCsjRwMhjCpbZQ_6server4core8mappings5query4core7wal_ops27commit_external_write_group000Bh_
FN:478,_RNCNCNCNvNtNtNtNtNtCsjRwMhjCpbZQ_6server4core8mappings5query4core7wal_ops27commit_external_write_group0s_00Bh_
FN:523,_RNCNCNvNtNtNtNtNtCsjRwMhjCpbZQ_6server4core8mappings5query4core7wal_ops26abort_external_write_group00Bf_
FN:529,_RNCNCNvNtNtNtNtNtCsjRwMhjCpbZQ_6server4core8mappings5query4core7wal_ops26abort_external_write_group0s_0Bf_
FN:472,_RNCNCNvNtNtNtNtNtCsjRwMhjCpbZQ_6server4core8mappings5query4core7wal_ops27commit_external_write_group00Bf_
FN:478,_RNCNCNvNtNtNtNtNtCsjRwMhjCpbZQ_6server4core8mappings5query4core7wal_ops27commit_external_write_group0s_0Bf_
FN:575,_RNCNvNtNtNtNtNtCsjRwMhjCpbZQ_6server4core8mappings5query4core7wal_ops15table_stream_id0Bd_
FN:519,_RNCNvNtNtNtNtNtCsjRwMhjCpbZQ_6server4core8mappings5query4core7wal_ops26abort_external_write_group0Bd_
FN:468,_RNCNvNtNtNtNtNtCsjRwMhjCpbZQ_6server4core8mappings5query4core7wal_ops27commit_external_write_group0Bd_
FN:24,_RNCNvNtNtNtNtNtCsjRwMhjCpbZQ_6server4core8mappings5query4core7wal_ops32append_payload_record_with_group0Bd_
FN:47,_RNCNvNtNtNtNtNtCsjRwMhjCpbZQ_6server4core8mappings5query4core7wal_ops32append_payload_record_with_groups_0Bd_
FN:216,_RNCNvNtNtNtNtNtCsjRwMhjCpbZQ_6server4core8mappings5query4core7wal_ops32append_row_payload_records_batch0Bd_
FN:258,_RNCNvNtNtNtNtNtCsjRwMhjCpbZQ_6server4core8mappings5query4core7wal_ops32append_row_payload_records_batchs0_0Bd_
FN:297,_RNCNvNtNtNtNtNtCsjRwMhjCpbZQ_6server4core8mappings5query4core7wal_ops32append_row_payload_records_batchs1_0Bd_
FN:298,_RNCNvNtNtNtNtNtCsjRwMhjCpbZQ_6server4core8mappings5query4core7wal_ops32append_row_payload_records_batchs2_0Bd_
FN:234,_RNCNvNtNtNtNtNtCsjRwMhjCpbZQ_6server4core8mappings5query4core7wal_ops32append_row_payload_records_batchs_0Bd_
FN:565,_RNCNvNtNtNtNtNtCsjRwMhjCpbZQ_6server4core8mappings5query4core7wal_ops33rebuild_runtime_indexes_for_table0Bd_
FN:103,_RNCNvNtNtNtNtNtCsjRwMhjCpbZQ_6server4core8mappings5query4core7wal_ops43append_row_payload_record_with_live_row_ids0Bd_
FN:129,_RNCNvNtNtNtNtNtCsjRwMhjCpbZQ_6server4core8mappings5query4core7wal_ops43append_row_payload_record_with_live_row_idss0_0Bd_
FN:139,_RNCNvNtNtNtNtNtCsjRwMhjCpbZQ_6server4core8mappings5query4core7wal_ops43append_row_payload_record_with_live_row_idss1_0Bd_
FN:157,_RNCNvNtNtNtNtNtCsjRwMhjCpbZQ_6server4core8mappings5query4core7wal_ops43append_row_payload_record_with_live_row_idss2_0Bd_
FNDA:252,_RNvNtNtNtNtNtCsjRwMhjCpbZQ_6server4core8mappings5query4core7wal_ops15table_stream_id
FNDA:338,_RNvNtNtNtNtNtCsjRwMhjCpbZQ_6server4core8mappings5query4core7wal_ops21append_payload_record
FNDA:74,_RNvNtNtNtNtNtCsjRwMhjCpbZQ_6server4core8mappings5query4core7wal_ops25append_row_payload_record
FNDA:159,_RNvNtNtNtNtNtCsjRwMhjCpbZQ_6server4core8mappings5query4core7wal_ops25payload_context_for_table
FNDA:0,_RNvNtNtNtNtNtCsjRwMhjCpbZQ_6server4core8mappings5query4core7wal_ops26abort_external_write_group
FNDA:7,_RNvNtNtNtNtNtCsjRwMhjCpbZQ_6server4core8mappings5query4core7wal_ops27commit_external_write_group
FNDA:491,_RNvNtNtNtNtNtCsjRwMhjCpbZQ_6server4core8mappings5query4core7wal_ops32append_payload_record_with_group
FNDA:71,_RNvNtNtNtNtNtCsjRwMhjCpbZQ_6server4core8mappings5query4core7wal_ops32append_row_payload_records_batch
FNDA:1,_RNvNtNtNtNtNtCsjRwMhjCpbZQ_6server4core8mappings5query4core7wal_ops33rebuild_runtime_indexes_for_table
FNDA:83,_RNvNtNtNtNtNtCsjRwMhjCpbZQ_6server4core8mappings5query4core7wal_ops43append_row_payload_record_with_live_row_ids
FNDA:2,_RINvNtNtNtNtNtCsjRwMhjCpbZQ_6server4core8mappings5query4core7wal_ops26with_statement_write_batchNCNvNtB4_12mutation_ops21execute_delete_lockeds_0EBc_
FNDA:75,_RINvNtNtNtNtNtCsjRwMhjCpbZQ_6server4core8mappings5query4core7wal_ops26with_statement_write_batchNCNvNtB4_12mutation_ops21execute_insert_lockeds2_0EBc_
FNDA:7,_RINvNtNtNtNtNtCsjRwMhjCpbZQ_6server4core8mappings5query4core7wal_ops26with_statement_write_batchNCNvNtB4_12mutation_ops21execute_update_lockeds1_0EBc_
FNDA:0,_RNCNCNCNvNtNtNtNtNtCsjRwMhjCpbZQ_6server4core8mappings5query4core7wal_ops26abort_external_write_group000Bh_
FNDA:0,_RNCNCNCNvNtNtNtNtNtCsjRwMhjCpbZQ_6server4core8mappings5query4core7wal_ops26abort_external_write_group0s_00Bh_
FNDA:7,_RNCNCNCNvNtNtNtNtNtCsjRwMhjCpbZQ_6server4core8mappings5query4core7wal_ops27commit_external_write_group000Bh_
FNDA:6,_RNCNCNCNvNtNtNtNtNtCsjRwMhjCpbZQ_6server4core8mappings5query4core7wal_ops27commit_external_write_group0s_00Bh_
FNDA:0,_RNCNCNvNtNtNtNtNtCsjRwMhjCpbZQ_6server4core8mappings5query4core7wal_ops26abort_external_write_group00Bf_
FNDA:0,_RNCNCNvNtNtNtNtNtCsjRwMhjCpbZQ_6server4core8mappings5query4core7wal_ops26abort_external_write_group0s_0Bf_
FNDA:7,_RNCNCNvNtNtNtNtNtCsjRwMhjCpbZQ_6server4core8mappings5query4core7wal_ops27commit_external_write_group00Bf_
FNDA:6,_RNCNCNvNtNtNtNtNtCsjRwMhjCpbZQ_6server4core8mappings5query4core7wal_ops27commit_external_write_group0s_0Bf_
FNDA:0,_RNCNvNtNtNtNtNtCsjRwMhjCpbZQ_6server4core8mappings5query4core7wal_ops15table_stream_id0Bd_
FNDA:0,_RNCNvNtNtNtNtNtCsjRwMhjCpbZQ_6server4core8mappings5query4core7wal_ops26abort_external_write_group0Bd_
FNDA:6,_RNCNvNtNtNtNtNtCsjRwMhjCpbZQ_6server4core8mappings5query4core7wal_ops27commit_external_write_group0Bd_
FNDA:382,_RNCNvNtNtNtNtNtCsjRwMhjCpbZQ_6server4core8mappings5query4core7wal_ops32append_payload_record_with_group0Bd_
FNDA:0,_RNCNvNtNtNtNtNtCsjRwMhjCpbZQ_6server4core8mappings5query4core7wal_ops32append_payload_record_with_groups_0Bd_
FNDA:71,_RNCNvNtNtNtNtNtCsjRwMhjCpbZQ_6server4core8mappings5query4core7wal_ops32append_row_payload_records_batch0Bd_
FNDA:0,_RNCNvNtNtNtNtNtCsjRwMhjCpbZQ_6server4core8mappings5query4core7wal_ops32append_row_payload_records_batchs0_0Bd_
FNDA:0,_RNCNvNtNtNtNtNtCsjRwMhjCpbZQ_6server4core8mappings5query4core7wal_ops32append_row_payload_records_batchs1_0Bd_
FNDA:0,_RNCNvNtNtNtNtNtCsjRwMhjCpbZQ_6server4core8mappings5query4core7wal_ops32append_row_payload_records_batchs2_0Bd_
FNDA:0,_RNCNvNtNtNtNtNtCsjRwMhjCpbZQ_6server4core8mappings5query4core7wal_ops32append_row_payload_records_batchs_0Bd_
FNDA:1,_RNCNvNtNtNtNtNtCsjRwMhjCpbZQ_6server4core8mappings5query4core7wal_ops33rebuild_runtime_indexes_for_table0Bd_
FNDA:0,_RNCNvNtNtNtNtNtCsjRwMhjCpbZQ_6server4core8mappings5query4core7wal_ops43append_row_payload_record_with_live_row_ids0Bd_
FNDA:42,_RNCNvNtNtNtNtNtCsjRwMhjCpbZQ_6server4core8mappings5query4core7wal_ops43append_row_payload_record_with_live_row_idss0_0Bd_
FNDA:0,_RNCNvNtNtNtNtNtCsjRwMhjCpbZQ_6server4core8mappings5query4core7wal_ops43append_row_payload_record_with_live_row_idss1_0Bd_
FNDA:0,_RNCNvNtNtNtNtNtCsjRwMhjCpbZQ_6server4core8mappings5query4core7wal_ops43append_row_payload_record_with_live_row_idss2_0Bd_
FNF:34
FNH:19
DA:3,338
DA:4,338
DA:5,338
DA:6,338
DA:7,338
DA:8,338
DA:9,338
DA:10,338
DA:11,338
DA:12,338
DA:14,491
DA:15,491
DA:16,491
DA:17,491
DA:18,491
DA:19,491
DA:20,491
DA:21,491
DA:23,491
DA:24,491
DA:25,491
DA:27,491
DA:28,491
DA:29,81
DA:31,410
DA:35,491
DA:36,491
DA:37,491
DA:38,491
DA:39,491
DA:40,491
DA:41,491
DA:42,491
DA:43,491
DA:44,491
DA:47,491
DA:49,491
DA:51,491
DA:53,74
DA:54,74
DA:55,74
DA:56,74
DA:57,74
DA:58,74
DA:59,74
DA:60,74
DA:61,74
DA:62,74
DA:63,74
DA:64,74
DA:65,74
DA:66,74
DA:67,74
DA:68,74
DA:69,74
DA:70,74
DA:71,74
DA:72,74
DA:73,74
DA:74,74
DA:75,74
DA:76,74
DA:78,74
DA:80,83
DA:81,83
DA:82,83
DA:83,83
DA:84,83
DA:85,83
DA:86,83
DA:87,83
DA:88,83
DA:89,83
DA:90,83
DA:91,83
DA:92,83
DA:93,83
DA:94,83
DA:95,83
DA:97,83
DA:98,12
DA:99,12
DA:100,9
DA:102,3
DA:103,3
DA:104,3
DA:105,3
DA:106,3
DA:107,3
DA:109,12
DA:111,12
DA:112,2
DA:113,2
DA:114,2
DA:115,2
DA:116,10
DA:118,10
DA:119,0
DA:125,10
DA:126,71
DA:128,81
DA:129,81
DA:130,81
DA:132,81
DA:133,81
DA:134,81
DA:136,81
DA:138,72
DA:139,72
DA:142,9
DA:144,81
DA:146,81
DA:147,81
DA:148,81
DA:149,81
DA:150,81
DA:151,81
DA:152,81
DA:153,81
DA:156,81
DA:157,81
DA:158,81
DA:159,81
DA:161,81
DA:163,81
DA:164,72
DA:165,72
DA:166,72
DA:167,72
DA:168,72
DA:169,72
DA:170,72
DA:171,72
DA:172,72
DA:173,72
DA:175,81
DA:176,81
DA:178,81
DA:189,81
DA:191,83
DA:193,71
DA:194,71
DA:195,71
DA:196,71
DA:197,71
DA:198,71
DA:199,71
DA:200,71
DA:201,71
DA:202,71
DA:203,71
DA:205,71
DA:206,0
DA:207,71
DA:209,71
DA:210,71
DA:211,71
DA:212,71
DA:213,71
DA:215,71
DA:216,71
DA:217,71
DA:218,71
DA:219,71
DA:221,71
DA:222,71
DA:223,71
DA:225,71
DA:226,0
DA:227,71
DA:229,71
DA:231,71
DA:232,71
DA:233,0
DA:234,0
DA:235,0
DA:236,71
DA:238,71
DA:239,71
DA:241,71
DA:242,71
DA:243,71
DA:244,71
DA:245,71
DA:246,71
DA:247,71
DA:248,71
DA:251,71
DA:254,71
DA:256,71
DA:257,71
DA:258,71
DA:259,71
DA:260,71
DA:262,71
DA:264,71
DA:265,62
DA:266,0
DA:267,0
DA:268,0
DA:270,62
DA:271,62
DA:272,62
DA:274,0
DA:277,62
DA:278,62
DA:279,62
DA:280,62
DA:281,62
DA:282,62
DA:283,62
DA:285,9
DA:287,71
DA:288,71
DA:290,71
DA:291,0
DA:293,0
DA:294,0
DA:295,0
DA:296,0
DA:297,0
DA:298,0
DA:299,0
DA:302,0
DA:308,0
DA:310,71
DA:312,71
DA:324,71
DA:326,71
DA:328,84
DA:329,84
DA:330,84
DA:331,84
DA:332,84
DA:333,84
DA:334,84
DA:335,84
DA:336,84
DA:337,84
DA:338,84
DA:339,84
DA:342,84
DA:344,84
DA:346,19
DA:347,16
DA:348,16
DA:349,16
DA:350,16
DA:351,16
DA:352,16
DA:353,16
DA:354,16
DA:355,0
DA:356,0
DA:357,0
DA:359,19
DA:361,19
DA:362,65
DA:364,65
DA:365,65
DA:366,65
DA:367,65
DA:368,65
DA:369,65
DA:370,65
DA:371,65
DA:372,65
DA:373,0
DA:374,0
DA:375,0
DA:376,0
DA:381,65
DA:383,65
DA:385,64
DA:386,64
DA:387,64
DA:388,64
DA:389,64
DA:390,64
DA:391,64
DA:392,64
DA:393,0
DA:398,0
DA:399,0
DA:400,0
DA:401,0
DA:402,0
DA:403,0
DA:404,0
DA:405,0
DA:406,0
DA:407,0
DA:408,0
DA:409,0
DA:411,64
DA:413,64
DA:414,53
DA:420,11
DA:422,64
DA:426,1
DA:431,1
DA:432,1
DA:433,1
DA:434,1
DA:435,1
DA:436,1
DA:437,1
DA:438,1
DA:440,1
DA:441,1
DA:445,84
DA:447,7
DA:448,7
DA:449,7
DA:450,7
DA:451,7
DA:452,7
DA:453,7
DA:455,7
DA:456,7
DA:457,7
DA:458,7
DA:459,7
DA:460,7
DA:461,7
DA:462,7
DA:463,0
DA:465,7
DA:466,6
DA:467,6
DA:468,6
DA:469,6
DA:470,6
DA:471,6
DA:472,7
DA:473,7
DA:474,7
DA:475,7
DA:476,7
DA:477,7
DA:478,6
DA:479,6
DA:480,6
DA:482,6
DA:487,1
DA:490,7
DA:492,7
DA:494,0
DA:495,0
DA:496,0
DA:497,0
DA:498,0
DA:499,0
DA:500,0
DA:501,0
DA:503,0
DA:504,0
DA:505,0
DA:506,0
DA:507,0
DA:508,0
DA:509,0
DA:510,0
DA:512,0
DA:517,0
DA:518,0
DA:519,0
DA:520,0
DA:521,0
DA:522,0
DA:523,0
DA:524,0
DA:525,0
DA:526,0
DA:527,0
DA:528,0
DA:529,0
DA:530,0
DA:531,0
DA:532,0
DA:535,0
DA:537,1
DA:538,1
DA:539,1
DA:540,1
DA:541,1
DA:542,1
DA:543,1
DA:544,1
DA:545,1
DA:546,1
DA:547,0
DA:548,0
DA:553,0
DA:557,1
DA:558,1
DA:559,0
DA:560,1
DA:562,1
DA:563,1
DA:564,1
DA:565,1
DA:566,1
DA:570,1
DA:572,252
DA:573,252
DA:574,252
DA:575,252
DA:576,252
DA:578,159
DA:579,159
DA:580,159
DA:581,159
DA:582,159
DA:583,159
DA:584,159
DA:586,159
DA:587,0
DA:588,0
DA:589,0
DA:590,0
DA:591,159
DA:593,159
DA:594,159
BRF:0
BRH:0
LF:448
LH:350
end_of_record
SF:/Users/samcolak/Source Code/rust/distdb/distdb/server/src/core/mappings/query/explain.rs
FN:21,_RNvNtNtNtNtCsjRwMhjCpbZQ_6server4core8mappings5query7explain19explain_select_plan
FN:6,_RNvNtNtNtNtCsjRwMhjCpbZQ_6server4core8mappings5query7explain20connector_field_defs
FN:46,_RNvNtNtNtNtCsjRwMhjCpbZQ_6server4core8mappings5query7explain21explain_mutation_plan
FN:35,_RNvNtNtNtNtCsjRwMhjCpbZQ_6server4core8mappings5query7explain23explain_inner_statement
FN:82,_RNvNtNtNtNtCsjRwMhjCpbZQ_6server4core8mappings5query7explain26explain_join_mutation_plan
FN:70,_RNCNCNvNtNtNtNtCsjRwMhjCpbZQ_6server4core8mappings5query7explain21explain_mutation_plan00Bd_
FN:10,_RNCNvNtNtNtNtCsjRwMhjCpbZQ_6server4core8mappings5query7explain20connector_field_defs0Bb_
FN:70,_RNCNvNtNtNtNtCsjRwMhjCpbZQ_6server4core8mappings5query7explain21explain_mutation_plan0Bb_
FN:137,_RNCNvNtNtNtNtCsjRwMhjCpbZQ_6server4core8mappings5query7explain26explain_join_mutation_plan0Bb_
FNDA:6,_RNvNtNtNtNtCsjRwMhjCpbZQ_6server4core8mappings5query7explain19explain_select_plan
FNDA:1066,_RNvNtNtNtNtCsjRwMhjCpbZQ_6server4core8mappings5query7explain20connector_field_defs
FNDA:5,_RNvNtNtNtNtCsjRwMhjCpbZQ_6server4core8mappings5query7explain21explain_mutation_plan
FNDA:89,_RNvNtNtNtNtCsjRwMhjCpbZQ_6server4core8mappings5query7explain23explain_inner_statement
FNDA:3,_RNvNtNtNtNtCsjRwMhjCpbZQ_6server4core8mappings5query7explain26explain_join_mutation_plan
FNDA:80,_RNCNCNvNtNtNtNtCsjRwMhjCpbZQ_6server4core8mappings5query7explain21explain_mutation_plan00Bd_
FNDA:2105,_RNCNvNtNtNtNtCsjRwMhjCpbZQ_6server4core8mappings5query7explain20connector_field_defs0Bb_
FNDA:40,_RNCNvNtNtNtNtCsjRwMhjCpbZQ_6server4core8mappings5query7explain21explain_mutation_plan0Bb_
FNDA:5,_RNCNvNtNtNtNtCsjRwMhjCpbZQ_6server4core8mappings5query7explain26explain_join_mutation_plan0Bb_
FNF:9
FNH:9
DA:6,1066
DA:7,1066
DA:8,1066
DA:9,1066
DA:10,2105
DA:11,2105
DA:12,2105
DA:13,2105
DA:14,2105
DA:15,2105
DA:16,2105
DA:17,2105
DA:18,1066
DA:19,1066
DA:21,6
DA:22,6
DA:23,6
DA:24,6
DA:25,6
DA:26,6
DA:27,6
DA:28,6
DA:29,6
DA:30,6
DA:31,6
DA:33,6
DA:35,89
DA:36,89
DA:37,89
DA:39,89
DA:40,4
DA:42,85
DA:44,89
DA:46,5
DA:47,5
DA:48,5
DA:49,5
DA:50,5
DA:51,5
DA:52,5
DA:53,5
DA:54,5
DA:55,5
DA:56,5
DA:57,5
DA:58,5
DA:59,5
DA:60,5
DA:61,5
DA:62,5
DA:63,5
DA:64,5
DA:65,5
DA:68,5
DA:69,5
DA:70,80
DA:71,5
DA:73,5
DA:74,5
DA:75,5
DA:76,5
DA:77,5
DA:78,5
DA:80,5
DA:82,3
DA:83,3
DA:84,3
DA:85,3
DA:86,3
DA:87,3
DA:88,3
DA:89,3
DA:90,3
DA:91,3
DA:92,3
DA:93,3
DA:94,3
DA:95,3
DA:96,3
DA:99,3
DA:100,2
DA:101,2
DA:102,2
DA:103,2
DA:104,2
DA:106,3
DA:107,3
DA:108,3
DA:111,5
DA:112,5
DA:113,3
DA:114,2
DA:115,0
DA:116,0
DA:117,0
DA:120,5
DA:121,5
DA:123,5
DA:125,0
DA:128,5
DA:129,5
DA:130,5
DA:131,5
DA:133,5
DA:135,5
DA:136,5
DA:137,5
DA:138,1
DA:139,1
DA:140,1
DA:141,1
DA:142,1
DA:143,4
DA:146,3
DA:147,3
BRF:0
BRH:0
LF:118
LH:114
end_of_record
SF:/Users/samcolak/Source Code/rust/distdb/distdb/server/src/core/mappings/query/timings.rs
FN:26,_RNvNtNtNtNtCsjRwMhjCpbZQ_6server4core8mappings5query7timings18make_query_timings
FN:5,_RNvNtNtNtNtCsjRwMhjCpbZQ_6server4core8mappings5query7timings18with_query_timings
FN:16,_RNvNtNtNtNtCsjRwMhjCpbZQ_6server4core8mappings5query7timings19empty_query_timings
FNDA:1219,_RNvNtNtNtNtCsjRwMhjCpbZQ_6server4core8mappings5query7timings18make_query_timings
FNDA:1219,_RNvNtNtNtNtCsjRwMhjCpbZQ_6server4core8mappings5query7timings18with_query_timings
FNDA:1066,_RNvNtNtNtNtCsjRwMhjCpbZQ_6server4core8mappings5query7timings19empty_query_timings
FNF:3
FNH:3
DA:5,1219
DA:6,1219
DA:7,1219
DA:8,1219
DA:9,1219
DA:10,1064
DA:11,1064
DA:13,1219
DA:14,1219
DA:16,1066
DA:17,1066
DA:18,1066
DA:19,1066
DA:20,1066
DA:21,1066
DA:22,1066
DA:23,1066
DA:24,1066
DA:26,1219
DA:27,1219
DA:28,1219
DA:29,1219
DA:30,1219
DA:31,1219
DA:32,1219
DA:33,1219
DA:34,1219
DA:35,1219
BRF:0
BRH:0
LF:28
LH:28
end_of_record
SF:/Users/samcolak/Source Code/rust/distdb/distdb/server/src/core/transaction_coordinator.rs
FN:170,_RNvMs_NtNtCsjRwMhjCpbZQ_6server4core23transaction_coordinatorNtB4_22TransactionCoordinator11stage_query
FN:223,_RNvMs_NtNtCsjRwMhjCpbZQ_6server4core23transaction_coordinatorNtB4_22TransactionCoordinator27restore_after_failed_commit
FN:93,_RNvXNtNtCsjRwMhjCpbZQ_6server4core23transaction_coordinatorNtB2_22TransactionCoordinatorNtNtCsfOyy81DYK0U_4core7default7Default7default
FN:432,_RNCNCNvNtNtCsjRwMhjCpbZQ_6server4core23transaction_coordinator20run_coordinator_loop00B9_
FN:102,_RNCNvMs_NtNtCsjRwMhjCpbZQ_6server4core23transaction_coordinatorNtB6_22TransactionCoordinator3new0Ba_
FN:429,_RNCNvNtNtCsjRwMhjCpbZQ_6server4core23transaction_coordinator20run_coordinator_loop0B7_
FN:574,_RNCNvNtNtCsjRwMhjCpbZQ_6server4core23transaction_coordinator20run_coordinator_loops0_0B7_
FN:540,_RNCNvNtNtCsjRwMhjCpbZQ_6server4core23transaction_coordinator20run_coordinator_loops_0B7_
FN:344,_RNCNvNtNtCsjRwMhjCpbZQ_6server4core23transaction_coordinator21release_session_locks0B7_
FN:150,_RNvMs_NtNtCsjRwMhjCpbZQ_6server4core23transaction_coordinatorNtB4_22TransactionCoordinator11route_query
FN:184,_RNvMs_NtNtCsjRwMhjCpbZQ_6server4core23transaction_coordinatorNtB4_22TransactionCoordinator14staged_queries
FN:241,_RNvMs_NtNtCsjRwMhjCpbZQ_6server4core23transaction_coordinatorNtB4_22TransactionCoordinator15finalize_commit
FN:197,_RNvMs_NtNtCsjRwMhjCpbZQ_6server4core23transaction_coordinatorNtB4_22TransactionCoordinator15take_for_commit
FN:119,_RNvMs_NtNtCsjRwMhjCpbZQ_6server4core23transaction_coordinatorNtB4_22TransactionCoordinator22begin_with_table_locks
FN:254,_RNvMs_NtNtCsjRwMhjCpbZQ_6server4core23transaction_coordinatorNtB4_22TransactionCoordinator24apply_remote_table_locks
FN:270,_RNvMs_NtNtCsjRwMhjCpbZQ_6server4core23transaction_coordinatorNtB4_22TransactionCoordinator26release_remote_table_locks
FN:100,_RNvMs_NtNtCsjRwMhjCpbZQ_6server4core23transaction_coordinatorNtB4_22TransactionCoordinator3new
FN:106,_RNvMs_NtNtCsjRwMhjCpbZQ_6server4core23transaction_coordinatorNtB4_22TransactionCoordinator5begin
FN:210,_RNvMs_NtNtCsjRwMhjCpbZQ_6server4core23transaction_coordinatorNtB4_22TransactionCoordinator8rollback
FN:137,_RNvMs_NtNtCsjRwMhjCpbZQ_6server4core23transaction_coordinatorNtB4_22TransactionCoordinator9is_active
FN:351,_RNvNtNtCsjRwMhjCpbZQ_6server4core23transaction_coordinator20run_coordinator_loop
FN:332,_RNvNtNtCsjRwMhjCpbZQ_6server4core23transaction_coordinator21release_session_locks
FN:307,_RNvNtNtCsjRwMhjCpbZQ_6server4core23transaction_coordinator23dml_table_ids_for_query
FN:288,_RNvNtNtCsjRwMhjCpbZQ_6server4core23transaction_coordinator26normalize_unique_table_ids
FNDA:0,_RNvMs_NtNtCsjRwMhjCpbZQ_6server4core23transaction_coordinatorNtB4_22TransactionCoordinator11stage_query
FNDA:0,_RNvMs_NtNtCsjRwMhjCpbZQ_6server4core23transaction_coordinatorNtB4_22TransactionCoordinator27restore_after_failed_commit
FNDA:0,_RNvXNtNtCsjRwMhjCpbZQ_6server4core23transaction_coordinatorNtB2_22TransactionCoordinatorNtNtCsfOyy81DYK0U_4core7default7Default7default
FNDA:0,_RNCNCNvNtNtCsjRwMhjCpbZQ_6server4core23transaction_coordinator20run_coordinator_loop00B9_
FNDA:59,_RNCNvMs_NtNtCsjRwMhjCpbZQ_6server4core23transaction_coordinatorNtB6_22TransactionCoordinator3new0Ba_
FNDA:82,_RNCNvNtNtCsjRwMhjCpbZQ_6server4core23transaction_coordinator20run_coordinator_loop0B7_
FNDA:0,_RNCNvNtNtCsjRwMhjCpbZQ_6server4core23transaction_coordinator20run_coordinator_loops0_0B7_
FNDA:0,_RNCNvNtNtCsjRwMhjCpbZQ_6server4core23transaction_coordinator20run_coordinator_loops_0B7_
FNDA:0,_RNCNvNtNtCsjRwMhjCpbZQ_6server4core23transaction_coordinator21release_session_locks0B7_
FNDA:1178,_RNvMs_NtNtCsjRwMhjCpbZQ_6server4core23transaction_coordinatorNtB4_22TransactionCoordinator11route_query
FNDA:5,_RNvMs_NtNtCsjRwMhjCpbZQ_6server4core23transaction_coordinatorNtB4_22TransactionCoordinator14staged_queries
FNDA:6,_RNvMs_NtNtCsjRwMhjCpbZQ_6server4core23transaction_coordinatorNtB4_22TransactionCoordinator15finalize_commit
FNDA:13,_RNvMs_NtNtCsjRwMhjCpbZQ_6server4core23transaction_coordinatorNtB4_22TransactionCoordinator15take_for_commit
FNDA:0,_RNvMs_NtNtCsjRwMhjCpbZQ_6server4core23transaction_coordinatorNtB4_22TransactionCoordinator22begin_with_table_locks
FNDA:0,_RNvMs_NtNtCsjRwMhjCpbZQ_6server4core23transaction_coordinatorNtB4_22TransactionCoordinator24apply_remote_table_locks
FNDA:0,_RNvMs_NtNtCsjRwMhjCpbZQ_6server4core23transaction_coordinatorNtB4_22TransactionCoordinator26release_remote_table_locks
FNDA:59,_RNvMs_NtNtCsjRwMhjCpbZQ_6server4core23transaction_coordinatorNtB4_22TransactionCoordinator3new
FNDA:16,_RNvMs_NtNtCsjRwMhjCpbZQ_6server4core23transaction_coordinatorNtB4_22TransactionCoordinator5begin
FNDA:8,_RNvMs_NtNtCsjRwMhjCpbZQ_6server4core23transaction_coordinatorNtB4_22TransactionCoordinator8rollback
FNDA:1190,_RNvMs_NtNtCsjRwMhjCpbZQ_6server4core23transaction_coordinatorNtB4_22TransactionCoordinator9is_active
FNDA:59,_RNvNtNtCsjRwMhjCpbZQ_6server4core23transaction_coordinator20run_coordinator_loop
FNDA:14,_RNvNtNtCsjRwMhjCpbZQ_6server4core23transaction_coordinator21release_session_locks
FNDA:1178,_RNvNtNtCsjRwMhjCpbZQ_6server4core23transaction_coordinator23dml_table_ids_for_query
FNDA:1177,_RNvNtNtCsjRwMhjCpbZQ_6server4core23transaction_coordinator26normalize_unique_table_ids
FNF:24
FNH:14
DA:93,0
DA:94,0
DA:95,0
DA:100,59
DA:101,59
DA:102,59
DA:103,59
DA:104,59
DA:106,16
DA:107,16
DA:108,16
DA:109,16
DA:110,16
DA:111,16
DA:112,16
DA:113,16
DA:114,16
DA:115,16
DA:116,16
DA:117,16
DA:119,0
DA:120,0
DA:121,0
DA:122,0
DA:123,0
DA:124,0
DA:125,0
DA:126,0
DA:127,0
DA:128,0
DA:129,0
DA:130,0
DA:131,0
DA:132,0
DA:133,0
DA:134,0
DA:135,0
DA:137,1190
DA:138,1190
DA:139,1190
DA:140,1190
DA:141,1190
DA:142,1190
DA:143,1190
DA:144,1190
DA:145,1190
DA:146,1190
DA:147,1190
DA:148,1190
DA:150,1178
DA:151,1178
DA:152,1178
DA:153,1178
DA:154,1178
DA:155,1178
DA:156,1178
DA:157,1178
DA:158,1178
DA:159,1178
DA:160,1178
DA:161,1178
DA:162,1178
DA:163,1178
DA:164,1178
DA:165,1178
DA:166,1178
DA:167,1178
DA:168,1178
DA:170,0
DA:171,0
DA:172,0
DA:173,0
DA:174,0
DA:175,0
DA:176,0
DA:177,0
DA:178,0
DA:179,0
DA:180,0
DA:181,0
DA:182,0
DA:184,5
DA:185,5
DA:186,5
DA:187,5
DA:188,5
DA:189,5
DA:190,5
DA:191,5
DA:192,5
DA:193,5
DA:194,5
DA:195,5
DA:197,13
DA:198,13
DA:199,13
DA:200,13
DA:201,13
DA:202,13
DA:203,13
DA:204,13
DA:205,13
DA:206,13
DA:207,13
DA:208,13
DA:210,8
DA:211,8
DA:212,8
DA:213,8
DA:214,8
DA:215,8
DA:216,8
DA:217,8
DA:218,8
DA:219,8
DA:220,8
DA:221,8
DA:223,0
DA:224,0
DA:225,0
DA:226,0
DA:227,0
DA:228,0
DA:229,0
DA:230,0
DA:231,0
DA:232,0
DA:233,0
DA:234,0
DA:235,0
DA:236,0
DA:237,0
DA:238,0
DA:239,0
DA:241,6
DA:242,6
DA:243,6
DA:244,6
DA:245,6
DA:246,6
DA:247,6
DA:248,6
DA:249,6
DA:250,6
DA:251,6
DA:252,6
DA:254,0
DA:255,0
DA:257,0
DA:258,0
DA:259,0
DA:260,0
DA:261,0
DA:262,0
DA:263,0
DA:264,0
DA:265,0
DA:266,0
DA:267,0
DA:268,0
DA:270,0
DA:271,0
DA:273,0
DA:274,0
DA:275,0
DA:276,0
DA:277,0
DA:278,0
DA:279,0
DA:280,0
DA:281,0
DA:282,0
DA:283,0
DA:284,0
DA:288,1177
DA:289,1177
DA:290,1177
DA:292,1177
DA:293,82
DA:295,82
DA:296,0
DA:297,82
DA:299,82
DA:300,82
DA:301,82
DA:304,1177
DA:305,1177
DA:307,1178
DA:308,1178
DA:309,1
DA:312,1177
DA:314,1177
DA:315,1095
DA:316,1177
DA:319,1095
DA:320,82
DA:322,82
DA:323,0
DA:326,82
DA:329,1177
DA:330,1178
DA:332,14
DA:333,14
DA:334,14
DA:335,14
DA:336,14
DA:337,14
DA:338,14
DA:341,0
DA:342,0
DA:343,0
DA:344,0
DA:345,0
DA:346,0
DA:347,0
DA:349,14
DA:351,59
DA:353,59
DA:354,59
DA:355,59
DA:357,2475
DA:359,2416
DA:361,16
DA:362,16
DA:363,0
DA:364,0
DA:365,16
DA:367,16
DA:368,16
DA:372,0
DA:373,0
DA:374,0
DA:376,0
DA:377,0
DA:378,0
DA:379,0
DA:381,0
DA:383,0
DA:384,0
DA:385,0
DA:386,0
DA:388,0
DA:390,0
DA:391,0
DA:392,0
DA:394,0
DA:395,0
DA:396,0
DA:399,0
DA:400,0
DA:401,0
DA:402,0
DA:404,0
DA:405,0
DA:406,0
DA:408,0
DA:409,0
DA:410,0
DA:411,0
DA:413,0
DA:414,0
DA:417,1190
DA:418,1190
DA:419,1190
DA:422,1178
DA:423,1178
DA:424,1178
DA:425,1178
DA:427,1178
DA:429,1178
DA:430,82
DA:431,82
DA:432,82
DA:433,82
DA:435,1178
DA:436,0
DA:437,0
DA:438,0
DA:439,0
DA:440,1178
DA:442,1178
DA:443,17
DA:444,1
DA:445,1
DA:446,1
DA:447,1
DA:448,16
DA:450,16
DA:451,16
DA:452,1161
DA:453,1161
DA:454,1161
DA:458,0
DA:459,0
DA:460,0
DA:462,0
DA:463,0
DA:464,0
DA:467,0
DA:468,0
DA:471,5
DA:472,5
DA:473,0
DA:474,0
DA:477,5
DA:480,13
DA:481,13
DA:482,2
DA:483,2
DA:486,11
DA:490,0
DA:491,0
DA:492,0
DA:494,0
DA:495,0
DA:496,0
DA:497,0
DA:499,0
DA:500,0
DA:503,8
DA:504,8
DA:505,8
DA:506,8
DA:507,8
DA:508,8
DA:509,8
DA:510,8
DA:511,8
DA:512,8
DA:513,8
DA:515,6
DA:516,6
DA:517,6
DA:518,6
DA:519,6
DA:520,6
DA:521,6
DA:522,6
DA:523,6
DA:524,6
DA:525,6
DA:528,0
DA:529,0
DA:530,0
DA:532,0
DA:533,0
DA:534,0
DA:535,0
DA:537,0
DA:538,0
DA:539,0
DA:540,0
DA:542,0
DA:543,0
DA:545,0
DA:546,0
DA:549,0
DA:553,0
DA:554,0
DA:555,0
DA:557,0
DA:559,0
DA:560,0
DA:561,0
DA:562,0
DA:563,0
DA:565,0
DA:566,0
DA:567,0
DA:569,0
DA:570,0
DA:571,0
DA:572,0
DA:573,0
DA:574,0
DA:575,0
DA:576,0
DA:577,0
DA:580,0
DA:581,0
DA:582,0
DA:583,0
DA:585,0
DA:592,59
BRF:0
BRH:0
LF:390
LH:200
end_of_record
SF:/Users/samcolak/Source Code/rust/distdb/distdb/server/src/engine/wal_probe.rs
FN:10,_RNvNtNtCsjRwMhjCpbZQ_6server6engine9wal_probe13run_wal_probe
FN:78,_RNvNtNtNtCsjRwMhjCpbZQ_6server6engine9wal_probe5testss_40wal_replay_with_lower_bound_is_exclusive
FN:69,_RNvNtNtNtCsjRwMhjCpbZQ_6server6engine9wal_probe5testss_50wal_replay_without_lower_bound_returns_all_records
FN:88,_RNvNtNtNtCsjRwMhjCpbZQ_6server6engine9wal_probe5testss_54wal_accepts_out_of_order_append_and_keeps_sorted_order
FNDA:2,_RNvNtNtCsjRwMhjCpbZQ_6server6engine9wal_probe13run_wal_probe
FNDA:1,_RNvNtNtNtCsjRwMhjCpbZQ_6server6engine9wal_probe5testss_40wal_replay_with_lower_bound_is_exclusive
FNDA:1,_RNvNtNtNtCsjRwMhjCpbZQ_6server6engine9wal_probe5testss_50wal_replay_without_lower_bound_returns_all_records
FNDA:1,_RNvNtNtNtCsjRwMhjCpbZQ_6server6engine9wal_probe5testss_54wal_accepts_out_of_order_append_and_keeps_sorted_order
FNF:4
FNH:4
DA:10,2
DA:11,2
DA:12,2
DA:14,2
DA:16,2
DA:17,2
DA:18,2
DA:19,2
DA:20,2
DA:21,2
DA:23,2
DA:24,2
DA:25,2
DA:27,0
DA:29,2
DA:30,2
DA:31,2
DA:32,2
DA:33,2
DA:34,2
DA:36,2
DA:37,2
DA:38,2
DA:40,0
DA:42,2
DA:43,2
DA:44,2
DA:45,2
DA:46,2
DA:47,2
DA:49,2
DA:50,2
DA:51,2
DA:53,0
DA:55,2
DA:57,2
DA:58,2
DA:59,2
DA:60,2
DA:61,2
DA:69,1
DA:70,1
DA:71,1
DA:73,1
DA:74,1
DA:75,1
DA:78,1
DA:79,1
DA:80,1
DA:82,1
DA:83,1
DA:84,1
DA:85,1
DA:88,1
DA:89,1
DA:90,1
DA:92,1
DA:93,1
DA:94,1
DA:95,1
DA:96,1
DA:97,1
DA:99,1
DA:100,1
DA:103,1
DA:105,1
DA:106,1
DA:107,1
DA:108,1
DA:109,1
DA:110,1
DA:112,1
DA:113,1
DA:117,1
DA:119,1
DA:120,1
DA:121,1
DA:122,1
DA:123,1
BRF:0
BRH:0
LF:79
LH:76
end_of_record
SF:/Users/samcolak/Source Code/rust/distdb/distdb/server/src/helpers/error.rs
FN:10,_RNvXNtNtCsjRwMhjCpbZQ_6server7helpers5errorNtB2_14ServerAppErrorNtNtCsfOyy81DYK0U_4core3fmt7Display3fmt
FNDA:0,_RNvXNtNtCsjRwMhjCpbZQ_6server7helpers5errorNtB2_14ServerAppErrorNtNtCsfOyy81DYK0U_4core3fmt7Display3fmt
FNF:1
FNH:0
DA:10,0
DA:11,0
DA:12,0
DA:13,0
DA:15,0
BRF:0
BRH:0
LF:5
LH:0
end_of_record
SF:/Users/samcolak/Source Code/rust/distdb/distdb/server/src/main.rs
FN:251,_RNCNCNCNvCs7SIyNl4REWl_6server4main0s6_00B7_
FN:525,_RNCNCNCNvCs7SIyNl4REWl_6server4main0sc_00B7_
FN:231,_RNCNCNvCs7SIyNl4REWl_6server4main00B5_
FN:236,_RNCNCNvCs7SIyNl4REWl_6server4main0s0_0B5_
FN:237,_RNCNCNvCs7SIyNl4REWl_6server4main0s1_0B5_
FN:241,_RNCNCNvCs7SIyNl4REWl_6server4main0s2_0B5_
FN:242,_RNCNCNvCs7SIyNl4REWl_6server4main0s3_0B5_
FN:246,_RNCNCNvCs7SIyNl4REWl_6server4main0s4_0B5_
FN:247,_RNCNCNvCs7SIyNl4REWl_6server4main0s5_0B5_
FN:251,_RNCNCNvCs7SIyNl4REWl_6server4main0s6_0B5_
FN:259,_RNCNCNvCs7SIyNl4REWl_6server4main0s7_0B5_
FN:282,_RNCNCNvCs7SIyNl4REWl_6server4main0s8_0B5_
FN:293,_RNCNCNvCs7SIyNl4REWl_6server4main0s9_0B5_
FN:232,_RNCNCNvCs7SIyNl4REWl_6server4main0s_0B5_
FN:332,_RNCNCNvCs7SIyNl4REWl_6server4main0sa_0B5_
FN:395,_RNCNCNvCs7SIyNl4REWl_6server4main0sb_0B5_
FN:494,_RNCNCNvCs7SIyNl4REWl_6server4main0sc_0B5_
FN:598,_RNCNCNvCs7SIyNl4REWl_6server4main0sd_0B5_
FN:605,_RNCNCNvCs7SIyNl4REWl_6server4main0se_0B5_
FN:313,_RNCNCNvCs7SIyNl4REWl_6server4main0sf_0B5_
FN:314,_RNCNCNvCs7SIyNl4REWl_6server4main0sg_0B5_
FN:317,_RNCNCNvCs7SIyNl4REWl_6server4main0sh_0B5_
FN:318,_RNCNCNvCs7SIyNl4REWl_6server4main0si_0B5_
FN:321,_RNCNCNvCs7SIyNl4REWl_6server4main0sj_0B5_
FN:322,_RNCNCNvCs7SIyNl4REWl_6server4main0sk_0B5_
FN:84,_RNCNvCs7SIyNl4REWl_6server23parse_ca_root_from_args0B3_
FN:91,_RNCNvCs7SIyNl4REWl_6server23parse_ca_root_from_argss0_0B3_
FN:90,_RNCNvCs7SIyNl4REWl_6server23parse_ca_root_from_argss_0B3_
FN:155,_RNCNvCs7SIyNl4REWl_6server25try_enroll_tls_from_peers0B3_
FN:178,_RNCNvCs7SIyNl4REWl_6server25try_enroll_tls_from_peerss0_0B3_
FN:150,_RNCNvCs7SIyNl4REWl_6server25try_enroll_tls_from_peerss_0B3_
FN:105,_RNCNvCs7SIyNl4REWl_6server35parse_advertised_services_from_args0B3_
FN:108,_RNCNvCs7SIyNl4REWl_6server35parse_advertised_services_from_argss0_0B3_
FN:121,_RNCNvCs7SIyNl4REWl_6server35parse_advertised_services_from_argss1_0B3_
FN:106,_RNCNvCs7SIyNl4REWl_6server35parse_advertised_services_from_argss_0B3_
FN:73,_RNCNvCs7SIyNl4REWl_6server37parse_tls_subject_alt_names_from_args0B3_
FN:76,_RNCNvCs7SIyNl4REWl_6server37parse_tls_subject_alt_names_from_argss0_0B3_
FN:74,_RNCNvCs7SIyNl4REWl_6server37parse_tls_subject_alt_names_from_argss_0B3_
FN:214,_RNCNvCs7SIyNl4REWl_6server4main0B3_
FN:82,_RNvCs7SIyNl4REWl_6server23parse_ca_root_from_args
FN:131,_RNvCs7SIyNl4REWl_6server25try_enroll_tls_from_peers
FN:101,_RNvCs7SIyNl4REWl_6server35parse_advertised_services_from_args
FN:69,_RNvCs7SIyNl4REWl_6server37parse_tls_subject_alt_names_from_args
FN:214,_RNvCs7SIyNl4REWl_6server4main
FNDA:0,_RNCNCNCNvCs7SIyNl4REWl_6server4main0s6_00B7_
FNDA:0,_RNCNCNCNvCs7SIyNl4REWl_6server4main0sc_00B7_
FNDA:0,_RNCNCNvCs7SIyNl4REWl_6server4main00B5_
FNDA:0,_RNCNCNvCs7SIyNl4REWl_6server4main0s0_0B5_
FNDA:0,_RNCNCNvCs7SIyNl4REWl_6server4main0s1_0B5_
FNDA:0,_RNCNCNvCs7SIyNl4REWl_6server4main0s2_0B5_
FNDA:0,_RNCNCNvCs7SIyNl4REWl_6server4main0s3_0B5_
FNDA:0,_RNCNCNvCs7SIyNl4REWl_6server4main0s4_0B5_
FNDA:0,_RNCNCNvCs7SIyNl4REWl_6server4main0s5_0B5_
FNDA:0,_RNCNCNvCs7SIyNl4REWl_6server4main0s6_0B5_
FNDA:0,_RNCNCNvCs7SIyNl4REWl_6server4main0s7_0B5_
FNDA:0,_RNCNCNvCs7SIyNl4REWl_6server4main0s8_0B5_
FNDA:0,_RNCNCNvCs7SIyNl4REWl_6server4main0s9_0B5_
FNDA:0,_RNCNCNvCs7SIyNl4REWl_6server4main0s_0B5_
FNDA:0,_RNCNCNvCs7SIyNl4REWl_6server4main0sa_0B5_
FNDA:0,_RNCNCNvCs7SIyNl4REWl_6server4main0sb_0B5_
FNDA:0,_RNCNCNvCs7SIyNl4REWl_6server4main0sc_0B5_
FNDA:0,_RNCNCNvCs7SIyNl4REWl_6server4main0sd_0B5_
FNDA:0,_RNCNCNvCs7SIyNl4REWl_6server4main0se_0B5_
FNDA:0,_RNCNCNvCs7SIyNl4REWl_6server4main0sf_0B5_
FNDA:0,_RNCNCNvCs7SIyNl4REWl_6server4main0sg_0B5_
FNDA:0,_RNCNCNvCs7SIyNl4REWl_6server4main0sh_0B5_
FNDA:0,_RNCNCNvCs7SIyNl4REWl_6server4main0si_0B5_
FNDA:0,_RNCNCNvCs7SIyNl4REWl_6server4main0sj_0B5_
FNDA:0,_RNCNCNvCs7SIyNl4REWl_6server4main0sk_0B5_
FNDA:0,_RNCNvCs7SIyNl4REWl_6server23parse_ca_root_from_args0B3_
FNDA:0,_RNCNvCs7SIyNl4REWl_6server23parse_ca_root_from_argss0_0B3_
FNDA:0,_RNCNvCs7SIyNl4REWl_6server23parse_ca_root_from_argss_0B3_
FNDA:0,_RNCNvCs7SIyNl4REWl_6server25try_enroll_tls_from_peers0B3_
FNDA:0,_RNCNvCs7SIyNl4REWl_6server25try_enroll_tls_from_peerss0_0B3_
FNDA:0,_RNCNvCs7SIyNl4REWl_6server25try_enroll_tls_from_peerss_0B3_
FNDA:0,_RNCNvCs7SIyNl4REWl_6server35parse_advertised_services_from_args0B3_
FNDA:0,_RNCNvCs7SIyNl4REWl_6server35parse_advertised_services_from_argss0_0B3_
FNDA:0,_RNCNvCs7SIyNl4REWl_6server35parse_advertised_services_from_argss1_0B3_
FNDA:0,_RNCNvCs7SIyNl4REWl_6server35parse_advertised_services_from_argss_0B3_
FNDA:0,_RNCNvCs7SIyNl4REWl_6server37parse_tls_subject_alt_names_from_args0B3_
FNDA:0,_RNCNvCs7SIyNl4REWl_6server37parse_tls_subject_alt_names_from_argss0_0B3_
FNDA:0,_RNCNvCs7SIyNl4REWl_6server37parse_tls_subject_alt_names_from_argss_0B3_
FNDA:0,_RNCNvCs7SIyNl4REWl_6server4main0B3_
FNDA:0,_RNvCs7SIyNl4REWl_6server23parse_ca_root_from_args
FNDA:0,_RNvCs7SIyNl4REWl_6server25try_enroll_tls_from_peers
FNDA:0,_RNvCs7SIyNl4REWl_6server35parse_advertised_services_from_args
FNDA:0,_RNvCs7SIyNl4REWl_6server37parse_tls_subject_alt_names_from_args
FNDA:0,_RNvCs7SIyNl4REWl_6server4main
FNF:44
FNH:0
DA:69,0
DA:71,0
DA:72,0
DA:73,0
DA:74,0
DA:75,0
DA:76,0
DA:77,0
DA:78,0
DA:80,0
DA:82,0
DA:84,0
DA:85,0
DA:86,0
DA:88,0
DA:89,0
DA:90,0
DA:91,0
DA:92,0
DA:93,0
DA:94,0
DA:96,0
DA:97,0
DA:99,0
DA:101,0
DA:103,0
DA:104,0
DA:105,0
DA:106,0
DA:107,0
DA:108,0
DA:109,0
DA:110,0
DA:112,0
DA:113,0
DA:114,0
DA:115,0
DA:116,0
DA:117,0
DA:118,0
DA:119,0
DA:121,0
DA:122,0
DA:123,0
DA:125,0
DA:126,0
DA:127,0
DA:129,0
DA:131,0
DA:132,0
DA:133,0
DA:134,0
DA:135,0
DA:136,0
DA:137,0
DA:139,0
DA:140,0
DA:141,0
DA:142,0
DA:143,0
DA:145,0
DA:148,0
DA:149,0
DA:150,0
DA:151,0
DA:154,0
DA:155,0
DA:156,0
DA:157,0
DA:158,0
DA:159,0
DA:160,0
DA:162,0
DA:163,0
DA:165,0
DA:168,0
DA:169,0
DA:170,0
DA:172,0
DA:173,0
DA:176,0
DA:177,0
DA:178,0
DA:180,0
DA:181,0
DA:183,0
DA:184,0
DA:186,0
DA:187,0
DA:190,0
DA:191,0
DA:192,0
DA:193,0
DA:194,0
DA:195,0
DA:196,0
DA:198,0
DA:201,0
DA:202,0
DA:203,0
DA:206,0
DA:209,0
DA:211,0
DA:214,0
DA:216,0
DA:217,0
DA:219,0
DA:220,0
DA:221,0
DA:223,0
DA:225,0
DA:226,0
DA:227,0
DA:229,0
DA:230,0
DA:231,0
DA:232,0
DA:234,0
DA:235,0
DA:236,0
DA:237,0
DA:239,0
DA:240,0
DA:241,0
DA:242,0
DA:244,0
DA:245,0
DA:246,0
DA:247,0
DA:249,0
DA:250,0
DA:251,0
DA:252,0
DA:254,0
DA:255,0
DA:256,0
DA:257,0
DA:258,0
DA:259,0
DA:260,0
DA:261,0
DA:263,0
DA:265,0
DA:266,0
DA:268,0
DA:270,0
DA:271,0
DA:272,0
DA:273,0
DA:275,0
DA:276,0
DA:277,0
DA:278,0
DA:279,0
DA:280,0
DA:282,0
DA:283,0
DA:285,0
DA:286,0
DA:287,0
DA:288,0
DA:289,0
DA:290,0
DA:291,0
DA:293,0
DA:295,0
DA:297,0
DA:299,0
DA:300,0
DA:301,0
DA:302,0
DA:303,0
DA:304,0
DA:305,0
DA:306,0
DA:307,0
DA:309,0
DA:311,0
DA:312,0
DA:313,0
DA:314,0
DA:315,0
DA:316,0
DA:317,0
DA:318,0
DA:319,0
DA:320,0
DA:321,0
DA:322,0
DA:323,0
DA:324,0
DA:326,0
DA:329,0
DA:331,0
DA:332,0
DA:333,0
DA:334,0
DA:336,0
DA:339,0
DA:341,0
DA:343,0
DA:345,0
DA:346,0
DA:350,0
DA:352,0
DA:353,0
DA:359,0
DA:362,0
DA:364,0
DA:367,0
DA:370,0
DA:372,0
DA:375,0
DA:376,0
DA:381,0
DA:383,0
DA:384,0
DA:385,0
DA:386,0
DA:387,0
DA:388,0
DA:389,0
DA:391,0
DA:392,0
DA:393,0
DA:394,0
DA:395,0
DA:396,0
DA:398,0
DA:399,0
DA:401,0
DA:403,0
DA:405,0
DA:406,0
DA:407,0
DA:408,0
DA:409,0
DA:411,0
DA:412,0
DA:414,0
DA:415,0
DA:416,0
DA:417,0
DA:418,0
DA:419,0
DA:422,0
DA:423,0
DA:425,0
DA:426,0
DA:427,0
DA:428,0
DA:430,0
DA:431,0
DA:432,0
DA:433,0
DA:434,0
DA:435,0
DA:436,0
DA:441,0
DA:444,0
DA:446,0
DA:447,0
DA:448,0
DA:449,0
DA:450,0
DA:451,0
DA:453,0
DA:454,0
DA:456,0
DA:457,0
DA:458,0
DA:459,0
DA:460,0
DA:461,0
DA:462,0
DA:463,0
DA:465,0
DA:466,0
DA:468,0
DA:469,0
DA:470,0
DA:472,0
DA:473,0
DA:474,0
DA:475,0
DA:476,0
DA:477,0
DA:478,0
DA:479,0
DA:482,0
DA:483,0
DA:486,0
DA:487,0
DA:488,0
DA:489,0
DA:490,0
DA:491,0
DA:492,0
DA:494,0
DA:498,0
DA:500,0
DA:502,0
DA:503,0
DA:505,0
DA:511,0
DA:512,0
DA:513,0
DA:514,0
DA:515,0
DA:516,0
DA:517,0
DA:518,0
DA:519,0
DA:520,0
DA:521,0
DA:522,0
DA:523,0
DA:525,0
DA:527,0
DA:528,0
DA:529,0
DA:530,0
DA:531,0
DA:533,0
DA:535,0
DA:536,0
DA:537,0
DA:542,0
DA:543,0
DA:548,0
DA:552,0
DA:553,0
DA:554,0
DA:555,0
DA:556,0
DA:557,0
DA:558,0
DA:559,0
DA:560,0
DA:561,0
DA:562,0
DA:563,0
DA:564,0
DA:565,0
DA:567,0
DA:569,0
DA:574,0
DA:576,0
DA:578,0
DA:584,0
DA:587,0
DA:588,0
DA:597,0
DA:598,0
DA:599,0
DA:600,0
DA:601,0
DA:602,0
DA:603,0
DA:604,0
DA:605,0
DA:607,0
DA:609,0
DA:616,0
DA:617,0
DA:619,0
DA:621,0
DA:622,0
DA:623,0
DA:624,0
DA:625,0
DA:626,0
DA:627,0
DA:628,0
DA:631,0
DA:632,0
DA:633,0
DA:634,0
DA:635,0
DA:636,0
DA:637,0
DA:640,0
DA:642,0
DA:643,0
DA:644,0
DA:646,0
DA:647,0
DA:649,0
DA:650,0
DA:652,0
DA:654,0
BRF:0
BRH:0
LF:433
LH:0
end_of_record
SF:/opt/homebrew/Cellar/rust/1.96.0/lib/rustlib/src/rust/library/std/src/sys/thread_local/native/mod.rs
FN:63,_RNCNKNvNtNtNtNtCsjRwMhjCpbZQ_6server4core8mappings5query4core22LAST_INSERT_ID_CONTEXT00Bd_
FN:71,_RNCNKNvNtNtNtNtCsjRwMhjCpbZQ_6server4core8mappings5query4core22LAST_INSERT_ID_CONTEXT0s_0Bd_
FNDA:0,_RNCNKNvNtNtNtNtCsjRwMhjCpbZQ_6server4core8mappings5query4core22LAST_INSERT_ID_CONTEXT00Bd_
FNDA:1232,_RNCNKNvNtNtNtNtCsjRwMhjCpbZQ_6server4core8mappings5query4core22LAST_INSERT_ID_CONTEXT0s_0Bd_
FNF:2
FNH:1
DA:63,0
DA:68,0
DA:69,0
DA:71,1232
DA:75,1232
DA:76,1232
BRF:0
BRH:0
LF:6
LH:3
end_of_record