SF:/Users/samcolak/Source Code/rust/distdb/distdb/serverlib/src/core/cluster.rs
FN:19,_RNvMNtNtCsksqSOdb1Dlf_9serverlib4core7clusterNtB2_12ClusterState11upsert_node
FN:27,_RNvMNtNtCsksqSOdb1Dlf_9serverlib4core7clusterNtB2_12ClusterState3get
FN:23,_RNvMNtNtCsksqSOdb1Dlf_9serverlib4core7clusterNtB2_12ClusterState9all_nodes
FNDA:0,_RNvMNtNtCsksqSOdb1Dlf_9serverlib4core7clusterNtB2_12ClusterState11upsert_node
FNDA:0,_RNvMNtNtCsksqSOdb1Dlf_9serverlib4core7clusterNtB2_12ClusterState3get
FNDA:0,_RNvMNtNtCsksqSOdb1Dlf_9serverlib4core7clusterNtB2_12ClusterState9all_nodes
FNF:3
FNH:0
DA:19,0
DA:20,0
DA:21,0
DA:23,0
DA:24,0
DA:25,0
DA:27,0
DA:28,0
DA:29,0
BRF:0
BRH:0
LF:9
LH:0
end_of_record
SF:/Users/samcolak/Source Code/rust/distdb/distdb/serverlib/src/core/config.rs
FN:14,_RNvMNtNtCsksqSOdb1Dlf_9serverlib4core6configNtB2_10NodeConfig8validate
FNDA:0,_RNvMNtNtCsksqSOdb1Dlf_9serverlib4core6configNtB2_10NodeConfig8validate
FNF:1
FNH:0
DA:14,0
DA:16,0
DA:17,0
DA:18,0
DA:20,0
DA:21,0
DA:22,0
DA:24,0
DA:25,0
DA:26,0
DA:28,0
DA:29,0
BRF:0
BRH:0
LF:12
LH:0
end_of_record
SF:/Users/samcolak/Source Code/rust/distdb/distdb/serverlib/src/core/identity.rs
FN:24,_RNvMs_NtNtCsksqSOdb1Dlf_9serverlib4core8identityNtB4_11PasswordKey27from_database_user_password
FN:15,_RNvMNtNtCsksqSOdb1Dlf_9serverlib4core8identityNtB2_6UserId13from_username
FNDA:0,_RNvMs_NtNtCsksqSOdb1Dlf_9serverlib4core8identityNtB4_11PasswordKey27from_database_user_password
FNDA:28,_RNvMNtNtCsksqSOdb1Dlf_9serverlib4core8identityNtB2_6UserId13from_username
FNF:2
FNH:1
DA:15,28
DA:16,28
DA:17,28
DA:18,28
DA:24,0
DA:25,0
DA:26,0
DA:27,0
BRF:0
BRH:0
LF:8
LH:4
end_of_record
SF:/Users/samcolak/Source Code/rust/distdb/distdb/serverlib/src/engine/affinity/checkpoint.rs
FN:34,_RNvMNtNtNtCsksqSOdb1Dlf_9serverlib6engine8affinity10checkpointNtB2_18CheckpointMetadata17is_step_completed
FN:26,_RNvMNtNtNtCsksqSOdb1Dlf_9serverlib6engine8affinity10checkpointNtB2_18CheckpointMetadata19mark_step_completed
FN:42,_RNvMNtNtNtCsksqSOdb1Dlf_9serverlib6engine8affinity10checkpointNtB2_18CheckpointMetadata19progress_percentage
FN:38,_RNvMNtNtNtCsksqSOdb1Dlf_9serverlib6engine8affinity10checkpointNtB2_18CheckpointMetadata20next_incomplete_step
FN:16,_RNvMNtNtNtCsksqSOdb1Dlf_9serverlib6engine8affinity10checkpointNtB2_18CheckpointMetadata3new
FN:39,_RNCNvMNtNtNtCsksqSOdb1Dlf_9serverlib6engine8affinity10checkpointNtB4_18CheckpointMetadata20next_incomplete_step0Ba_
FNDA:14,_RNvMNtNtNtCsksqSOdb1Dlf_9serverlib6engine8affinity10checkpointNtB2_18CheckpointMetadata17is_step_completed
FNDA:12,_RNvMNtNtNtCsksqSOdb1Dlf_9serverlib6engine8affinity10checkpointNtB2_18CheckpointMetadata19mark_step_completed
FNDA:2,_RNvMNtNtNtCsksqSOdb1Dlf_9serverlib6engine8affinity10checkpointNtB2_18CheckpointMetadata19progress_percentage
FNDA:4,_RNvMNtNtNtCsksqSOdb1Dlf_9serverlib6engine8affinity10checkpointNtB2_18CheckpointMetadata20next_incomplete_step
FNDA:8,_RNvMNtNtNtCsksqSOdb1Dlf_9serverlib6engine8affinity10checkpointNtB2_18CheckpointMetadata3new
FNDA:6,_RNCNvMNtNtNtCsksqSOdb1Dlf_9serverlib6engine8affinity10checkpointNtB4_18CheckpointMetadata20next_incomplete_step0Ba_
FNF:6
FNH:6
DA:16,8
DA:17,8
DA:18,8
DA:19,8
DA:20,8
DA:21,8
DA:22,8
DA:23,8
DA:24,8
DA:26,12
DA:27,12
DA:28,12
DA:29,12
DA:30,12
DA:31,12
DA:32,12
DA:34,14
DA:35,14
DA:36,14
DA:38,4
DA:39,6
DA:40,4
DA:42,2
DA:43,2
DA:44,0
DA:45,2
DA:46,2
DA:47,2
BRF:0
BRH:0
LF:29
LH:28
end_of_record
SF:/Users/samcolak/Source Code/rust/distdb/distdb/serverlib/src/engine/affinity/document.rs
FN:50,_RNCNvMNtNtNtCsksqSOdb1Dlf_9serverlib6engine8affinity8documentNtB4_16AffinityDocument13upsert_member0Ba_
FN:65,_RNCNvMNtNtNtCsksqSOdb1Dlf_9serverlib6engine8affinity8documentNtB4_16AffinityDocument22upsert_database_schema0Ba_
FN:81,_RNCNvMNtNtNtCsksqSOdb1Dlf_9serverlib6engine8affinity8documentNtB4_16AffinityDocument26database_schema_identifier0Ba_
FN:45,_RNvMNtNtNtCsksqSOdb1Dlf_9serverlib6engine8affinity8documentNtB2_16AffinityDocument13upsert_member
FN:60,_RNvMNtNtNtCsksqSOdb1Dlf_9serverlib6engine8affinity8documentNtB2_16AffinityDocument22upsert_database_schema
FN:77,_RNvMNtNtNtCsksqSOdb1Dlf_9serverlib6engine8affinity8documentNtB2_16AffinityDocument26database_schema_identifier
FNDA:0,_RNCNvMNtNtNtCsksqSOdb1Dlf_9serverlib6engine8affinity8documentNtB4_16AffinityDocument13upsert_member0Ba_
FNDA:0,_RNCNvMNtNtNtCsksqSOdb1Dlf_9serverlib6engine8affinity8documentNtB4_16AffinityDocument22upsert_database_schema0Ba_
FNDA:0,_RNCNvMNtNtNtCsksqSOdb1Dlf_9serverlib6engine8affinity8documentNtB4_16AffinityDocument26database_schema_identifier0Ba_
FNDA:0,_RNvMNtNtNtCsksqSOdb1Dlf_9serverlib6engine8affinity8documentNtB2_16AffinityDocument13upsert_member
FNDA:0,_RNvMNtNtNtCsksqSOdb1Dlf_9serverlib6engine8affinity8documentNtB2_16AffinityDocument22upsert_database_schema
FNDA:0,_RNvMNtNtNtCsksqSOdb1Dlf_9serverlib6engine8affinity8documentNtB2_16AffinityDocument26database_schema_identifier
FNF:6
FNH:0
DA:45,0
DA:47,0
DA:48,0
DA:49,0
DA:50,0
DA:52,0
DA:53,0
DA:54,0
DA:56,0
DA:58,0
DA:60,0
DA:62,0
DA:63,0
DA:64,0
DA:65,0
DA:67,0
DA:68,0
DA:69,0
DA:70,0
DA:71,0
DA:73,0
DA:75,0
DA:77,0
DA:79,0
DA:80,0
DA:81,0
DA:82,0
DA:84,0
BRF:0
BRH:0
LF:31
LH:0
end_of_record
SF:/Users/samcolak/Source Code/rust/distdb/distdb/serverlib/src/engine/affinity/mod.rs
FN:28,_RNvNtNtNtCsksqSOdb1Dlf_9serverlib6engine8affinity5tests15sample_document
FN:80,_RNvNtNtNtCsksqSOdb1Dlf_9serverlib6engine8affinity5testss_43schema_change_requires_at_least_one_partner
FN:68,_RNvNtNtNtCsksqSOdb1Dlf_9serverlib6engine8affinity5testss_54processor_builds_sync_plan_sorted_by_schema_identifier
FNDA:1,_RNvNtNtNtCsksqSOdb1Dlf_9serverlib6engine8affinity5tests15sample_document
FNDA:1,_RNvNtNtNtCsksqSOdb1Dlf_9serverlib6engine8affinity5testss_43schema_change_requires_at_least_one_partner
FNDA:1,_RNvNtNtNtCsksqSOdb1Dlf_9serverlib6engine8affinity5testss_54processor_builds_sync_plan_sorted_by_schema_identifier
FNF:3
FNH:3
DA:28,1
DA:30,1
DA:31,1
DA:32,1
DA:33,1
DA:34,1
DA:35,1
DA:36,1
DA:37,1
DA:38,1
DA:39,1
DA:40,1
DA:41,1
DA:42,1
DA:43,1
DA:44,1
DA:45,1
DA:46,1
DA:47,1
DA:48,1
DA:49,1
DA:50,1
DA:51,1
DA:52,1
DA:53,1
DA:54,1
DA:55,1
DA:56,1
DA:57,1
DA:58,1
DA:59,1
DA:60,1
DA:61,1
DA:62,1
DA:63,1
DA:65,1
DA:68,1
DA:69,1
DA:70,1
DA:71,1
DA:73,1
DA:74,1
DA:75,1
DA:76,1
DA:77,1
DA:80,1
DA:81,1
DA:82,1
DA:83,1
DA:84,1
DA:87,1
DA:88,1
BRF:0
BRH:0
LF:52
LH:52
end_of_record
SF:/Users/samcolak/Source Code/rust/distdb/distdb/serverlib/src/engine/affinity/processor.rs
FN:96,_RINvMNtNtNtCsksqSOdb1Dlf_9serverlib6engine8affinity9processorNtB3_17AffinityProcessor12set_degradedpEB9_
FN:31,_RNvMNtNtNtCsksqSOdb1Dlf_9serverlib6engine8affinity9processorNtB2_17AffinityProcessor5state
FN:92,_RNvMNtNtNtCsksqSOdb1Dlf_9serverlib6engine8affinity9processorNtB2_17AffinityProcessor9set_ready
FN:39,_RNvMNtNtNtCsksqSOdb1Dlf_9serverlib6engine8affinity9processorNtB2_17AffinityProcessor10begin_join
FN:142,_RNvMNtNtNtCsksqSOdb1Dlf_9serverlib6engine8affinity9processorNtB2_17AffinityProcessor10checkpoint
FN:27,_RNvMNtNtNtCsksqSOdb1Dlf_9serverlib6engine8affinity9processorNtB2_17AffinityProcessor13local_node_id
FN:48,_RNvMNtNtNtCsksqSOdb1Dlf_9serverlib6engine8affinity9processorNtB2_17AffinityProcessor15build_sync_plan
FN:128,_RNvMNtNtNtCsksqSOdb1Dlf_9serverlib6engine8affinity9processorNtB2_17AffinityProcessor18restore_checkpoint
FN:113,_RNvMNtNtNtCsksqSOdb1Dlf_9serverlib6engine8affinity9processorNtB2_17AffinityProcessor21initialize_checkpoint
FN:43,_RNvMNtNtNtCsksqSOdb1Dlf_9serverlib6engine8affinity9processorNtB2_17AffinityProcessor23apply_affinity_document
FN:147,_RNvMNtNtNtCsksqSOdb1Dlf_9serverlib6engine8affinity9processorNtB2_17AffinityProcessor24mark_sync_step_completed
FN:162,_RNvMNtNtNtCsksqSOdb1Dlf_9serverlib6engine8affinity9processorNtB2_17AffinityProcessor25next_incomplete_sync_step
FN:100,_RNvMNtNtNtCsksqSOdb1Dlf_9serverlib6engine8affinity9processorNtB2_17AffinityProcessor36validate_schema_change_partner_count
FN:18,_RNvMNtNtNtCsksqSOdb1Dlf_9serverlib6engine8affinity9processorNtB2_17AffinityProcessor3new
FN:35,_RNvMNtNtNtCsksqSOdb1Dlf_9serverlib6engine8affinity9processorNtB2_17AffinityProcessor8document
FN:64,_RNCNvMNtNtNtCsksqSOdb1Dlf_9serverlib6engine8affinity9processorNtB4_17AffinityProcessor15build_sync_plan0Ba_
FN:166,_RNCNvMNtNtNtCsksqSOdb1Dlf_9serverlib6engine8affinity9processorNtB4_17AffinityProcessor25next_incomplete_sync_step0Ba_
FNDA:0,_RINvMNtNtNtCsksqSOdb1Dlf_9serverlib6engine8affinity9processorNtB3_17AffinityProcessor12set_degradedpEB9_
FNDA:0,_RNvMNtNtNtCsksqSOdb1Dlf_9serverlib6engine8affinity9processorNtB2_17AffinityProcessor5state
FNDA:0,_RNvMNtNtNtCsksqSOdb1Dlf_9serverlib6engine8affinity9processorNtB2_17AffinityProcessor9set_ready
FNDA:1,_RNvMNtNtNtCsksqSOdb1Dlf_9serverlib6engine8affinity9processorNtB2_17AffinityProcessor10begin_join
FNDA:4,_RNvMNtNtNtCsksqSOdb1Dlf_9serverlib6engine8affinity9processorNtB2_17AffinityProcessor10checkpoint
FNDA:0,_RNvMNtNtNtCsksqSOdb1Dlf_9serverlib6engine8affinity9processorNtB2_17AffinityProcessor13local_node_id
FNDA:1,_RNvMNtNtNtCsksqSOdb1Dlf_9serverlib6engine8affinity9processorNtB2_17AffinityProcessor15build_sync_plan
FNDA:1,_RNvMNtNtNtCsksqSOdb1Dlf_9serverlib6engine8affinity9processorNtB2_17AffinityProcessor18restore_checkpoint
FNDA:5,_RNvMNtNtNtCsksqSOdb1Dlf_9serverlib6engine8affinity9processorNtB2_17AffinityProcessor21initialize_checkpoint
FNDA:6,_RNvMNtNtNtCsksqSOdb1Dlf_9serverlib6engine8affinity9processorNtB2_17AffinityProcessor23apply_affinity_document
FNDA:5,_RNvMNtNtNtCsksqSOdb1Dlf_9serverlib6engine8affinity9processorNtB2_17AffinityProcessor24mark_sync_step_completed
FNDA:2,_RNvMNtNtNtCsksqSOdb1Dlf_9serverlib6engine8affinity9processorNtB2_17AffinityProcessor25next_incomplete_sync_step
FNDA:2,_RNvMNtNtNtCsksqSOdb1Dlf_9serverlib6engine8affinity9processorNtB2_17AffinityProcessor36validate_schema_change_partner_count
FNDA:8,_RNvMNtNtNtCsksqSOdb1Dlf_9serverlib6engine8affinity9processorNtB2_17AffinityProcessor3new
FNDA:3,_RNvMNtNtNtCsksqSOdb1Dlf_9serverlib6engine8affinity9processorNtB2_17AffinityProcessor8document
FNDA:2,_RNCNvMNtNtNtCsksqSOdb1Dlf_9serverlib6engine8affinity9processorNtB4_17AffinityProcessor15build_sync_plan0Ba_
FNDA:2,_RNCNvMNtNtNtCsksqSOdb1Dlf_9serverlib6engine8affinity9processorNtB4_17AffinityProcessor25next_incomplete_sync_step0Ba_
FNF:17
FNH:13
DA:18,8
DA:19,8
DA:20,8
DA:21,8
DA:22,8
DA:23,8
DA:24,8
DA:25,8
DA:27,0
DA:28,0
DA:29,0
DA:31,0
DA:32,0
DA:33,0
DA:35,3
DA:36,3
DA:37,3
DA:39,1
DA:40,1
DA:41,1
DA:43,6
DA:44,6
DA:45,6
DA:46,6
DA:48,1
DA:50,1
DA:51,1
DA:52,1
DA:53,1
DA:55,1
DA:57,1
DA:58,1
DA:59,1
DA:60,1
DA:61,1
DA:63,1
DA:64,2
DA:66,2
DA:67,2
DA:68,2
DA:69,2
DA:70,2
DA:71,2
DA:72,2
DA:73,2
DA:74,2
DA:75,2
DA:76,2
DA:77,2
DA:78,2
DA:79,2
DA:80,2
DA:81,2
DA:82,2
DA:83,2
DA:84,2
DA:85,2
DA:86,2
DA:88,1
DA:90,1
DA:92,0
DA:93,0
DA:94,0
DA:96,0
DA:97,0
DA:98,0
DA:100,2
DA:101,2
DA:102,2
DA:103,2
DA:105,2
DA:106,1
DA:107,1
DA:108,1
DA:110,2
DA:113,5
DA:115,5
DA:116,5
DA:117,5
DA:118,5
DA:123,0
DA:125,5
DA:128,1
DA:130,1
DA:134,0
DA:137,1
DA:139,1
DA:142,4
DA:143,4
DA:144,4
DA:147,5
DA:149,5
DA:150,5
DA:151,5
DA:155,0
DA:157,0
DA:159,5
DA:162,2
DA:164,2
DA:165,2
DA:166,2
DA:168,2
BRF:0
BRH:0
LF:104
LH:88
end_of_record
SF:/Users/samcolak/Source Code/rust/distdb/distdb/serverlib/src/engine/affinity/state.rs
FN:20,_RNvXNtNtNtCsksqSOdb1Dlf_9serverlib6engine8affinity5stateNtB2_22AffinityProcessorErrorNtNtCsfOyy81DYK0U_4core3fmt7Display3fmt
FNDA:0,_RNvXNtNtNtCsksqSOdb1Dlf_9serverlib6engine8affinity5stateNtB2_22AffinityProcessorErrorNtNtCsfOyy81DYK0U_4core3fmt7Display3fmt
FNF:1
FNH:0
DA:20,0
DA:22,0
DA:24,0
DA:26,0
DA:27,0
DA:32,0
BRF:0
BRH:0
LF:6
LH:0
end_of_record
SF:/Users/samcolak/Source Code/rust/distdb/distdb/serverlib/src/engine/affinity/storage.rs
FN:201,_RNCNvMNtNtNtCsksqSOdb1Dlf_9serverlib6engine8affinity7storageNtB4_15AffinityStorage17delete_checkpoint0Ba_
FN:40,_RNCNvMNtNtNtCsksqSOdb1Dlf_9serverlib6engine8affinity7storageNtB4_15AffinityStorage4load0Ba_
FN:48,_RNCNvMNtNtNtCsksqSOdb1Dlf_9serverlib6engine8affinity7storageNtB4_15AffinityStorage4loads_0Ba_
FN:70,_RNCNvMNtNtNtCsksqSOdb1Dlf_9serverlib6engine8affinity7storageNtB4_15AffinityStorage4save0Ba_
FN:77,_RNCNvMNtNtNtCsksqSOdb1Dlf_9serverlib6engine8affinity7storageNtB4_15AffinityStorage4saves_0Ba_
FN:105,_RNCNvMNtNtNtCsksqSOdb1Dlf_9serverlib6engine8affinity7storageNtB4_15AffinityStorage6delete0Ba_
FN:193,_RNvMNtNtNtCsksqSOdb1Dlf_9serverlib6engine8affinity7storageNtB2_15AffinityStorage17delete_checkpoint
FN:28,_RNvMNtNtNtCsksqSOdb1Dlf_9serverlib6engine8affinity7storageNtB2_15AffinityStorage4load
FN:66,_RNvMNtNtNtCsksqSOdb1Dlf_9serverlib6engine8affinity7storageNtB2_15AffinityStorage4save
FN:97,_RNvMNtNtNtCsksqSOdb1Dlf_9serverlib6engine8affinity7storageNtB2_15AffinityStorage6delete
FN:23,_RNvMNtNtNtCsksqSOdb1Dlf_9serverlib6engine8affinity7storageNtB2_15AffinityStorage15checkpoint_path
FN:123,_RNvMNtNtNtCsksqSOdb1Dlf_9serverlib6engine8affinity7storageNtB2_15AffinityStorage15load_checkpoint
FN:162,_RNvMNtNtNtCsksqSOdb1Dlf_9serverlib6engine8affinity7storageNtB2_15AffinityStorage15save_checkpoint
FN:19,_RNvMNtNtNtCsksqSOdb1Dlf_9serverlib6engine8affinity7storageNtB2_15AffinityStorage22affinity_document_path
FN:13,_RINvMNtNtNtCsksqSOdb1Dlf_9serverlib6engine8affinity7storageNtB3_15AffinityStorage3newRNtNtCsgL88BVMLsDE_3std4path7PathBufEB9_
FN:13,_RINvMNtNtNtCsksqSOdb1Dlf_9serverlib6engine8affinity7storageNtB3_15AffinityStorage3newReEB9_
FN:135,_RNCNvMNtNtNtCsksqSOdb1Dlf_9serverlib6engine8affinity7storageNtB4_15AffinityStorage15load_checkpoint0Ba_
FN:143,_RNCNvMNtNtNtCsksqSOdb1Dlf_9serverlib6engine8affinity7storageNtB4_15AffinityStorage15load_checkpoints_0Ba_
FN:166,_RNCNvMNtNtNtCsksqSOdb1Dlf_9serverlib6engine8affinity7storageNtB4_15AffinityStorage15save_checkpoint0Ba_
FN:173,_RNCNvMNtNtNtCsksqSOdb1Dlf_9serverlib6engine8affinity7storageNtB4_15AffinityStorage15save_checkpoints_0Ba_
FN:228,_RNvNtNtNtNtCsksqSOdb1Dlf_9serverlib6engine8affinity7storage5tests20create_test_document
FN:253,_RNvNtNtNtNtCsksqSOdb1Dlf_9serverlib6engine8affinity7storage5testss_23storage_path_generation
FN:271,_RNvNtNtNtNtCsksqSOdb1Dlf_9serverlib6engine8affinity7storage5testss_24checkpoint_serialization
FN:290,_RNvNtNtNtNtCsksqSOdb1Dlf_9serverlib6engine8affinity7storage5testss_24checkpoint_step_tracking
FN:260,_RNvNtNtNtNtCsksqSOdb1Dlf_9serverlib6engine8affinity7storage5testss_32document_serialization_roundtrip
FN:356,_RNvNtNtNtNtCsksqSOdb1Dlf_9serverlib6engine8affinity7storage5testss_32processor_checkpoint_integration
FN:312,_RNvNtNtNtNtCsksqSOdb1Dlf_9serverlib6engine8affinity7storage5testss_34checkpoint_save_and_load_roundtrip
FNDA:0,_RNCNvMNtNtNtCsksqSOdb1Dlf_9serverlib6engine8affinity7storageNtB4_15AffinityStorage17delete_checkpoint0Ba_
FNDA:0,_RNCNvMNtNtNtCsksqSOdb1Dlf_9serverlib6engine8affinity7storageNtB4_15AffinityStorage4load0Ba_
FNDA:0,_RNCNvMNtNtNtCsksqSOdb1Dlf_9serverlib6engine8affinity7storageNtB4_15AffinityStorage4loads_0Ba_
FNDA:0,_RNCNvMNtNtNtCsksqSOdb1Dlf_9serverlib6engine8affinity7storageNtB4_15AffinityStorage4save0Ba_
FNDA:0,_RNCNvMNtNtNtCsksqSOdb1Dlf_9serverlib6engine8affinity7storageNtB4_15AffinityStorage4saves_0Ba_
FNDA:0,_RNCNvMNtNtNtCsksqSOdb1Dlf_9serverlib6engine8affinity7storageNtB4_15AffinityStorage6delete0Ba_
FNDA:0,_RNvMNtNtNtCsksqSOdb1Dlf_9serverlib6engine8affinity7storageNtB2_15AffinityStorage17delete_checkpoint
FNDA:0,_RNvMNtNtNtCsksqSOdb1Dlf_9serverlib6engine8affinity7storageNtB2_15AffinityStorage4load
FNDA:0,_RNvMNtNtNtCsksqSOdb1Dlf_9serverlib6engine8affinity7storageNtB2_15AffinityStorage4save
FNDA:0,_RNvMNtNtNtCsksqSOdb1Dlf_9serverlib6engine8affinity7storageNtB2_15AffinityStorage6delete
FNDA:2,_RNvMNtNtNtCsksqSOdb1Dlf_9serverlib6engine8affinity7storageNtB2_15AffinityStorage15checkpoint_path
FNDA:1,_RNvMNtNtNtCsksqSOdb1Dlf_9serverlib6engine8affinity7storageNtB2_15AffinityStorage15load_checkpoint
FNDA:1,_RNvMNtNtNtCsksqSOdb1Dlf_9serverlib6engine8affinity7storageNtB2_15AffinityStorage15save_checkpoint
FNDA:1,_RNvMNtNtNtCsksqSOdb1Dlf_9serverlib6engine8affinity7storageNtB2_15AffinityStorage22affinity_document_path
FNDA:1,_RINvMNtNtNtCsksqSOdb1Dlf_9serverlib6engine8affinity7storageNtB3_15AffinityStorage3newRNtNtCsgL88BVMLsDE_3std4path7PathBufEB9_
FNDA:1,_RINvMNtNtNtCsksqSOdb1Dlf_9serverlib6engine8affinity7storageNtB3_15AffinityStorage3newReEB9_
FNDA:0,_RNCNvMNtNtNtCsksqSOdb1Dlf_9serverlib6engine8affinity7storageNtB4_15AffinityStorage15load_checkpoint0Ba_
FNDA:0,_RNCNvMNtNtNtCsksqSOdb1Dlf_9serverlib6engine8affinity7storageNtB4_15AffinityStorage15load_checkpoints_0Ba_
FNDA:0,_RNCNvMNtNtNtCsksqSOdb1Dlf_9serverlib6engine8affinity7storageNtB4_15AffinityStorage15save_checkpoint0Ba_
FNDA:0,_RNCNvMNtNtNtCsksqSOdb1Dlf_9serverlib6engine8affinity7storageNtB4_15AffinityStorage15save_checkpoints_0Ba_
FNDA:2,_RNvNtNtNtNtCsksqSOdb1Dlf_9serverlib6engine8affinity7storage5tests20create_test_document
FNDA:1,_RNvNtNtNtNtCsksqSOdb1Dlf_9serverlib6engine8affinity7storage5testss_23storage_path_generation
FNDA:1,_RNvNtNtNtNtCsksqSOdb1Dlf_9serverlib6engine8affinity7storage5testss_24checkpoint_serialization
FNDA:1,_RNvNtNtNtNtCsksqSOdb1Dlf_9serverlib6engine8affinity7storage5testss_24checkpoint_step_tracking
FNDA:1,_RNvNtNtNtNtCsksqSOdb1Dlf_9serverlib6engine8affinity7storage5testss_32document_serialization_roundtrip
FNDA:1,_RNvNtNtNtNtCsksqSOdb1Dlf_9serverlib6engine8affinity7storage5testss_32processor_checkpoint_integration
FNDA:1,_RNvNtNtNtNtCsksqSOdb1Dlf_9serverlib6engine8affinity7storage5testss_34checkpoint_save_and_load_roundtrip
FNF:26
FNH:12
DA:13,2
DA:14,2
DA:15,2
DA:16,2
DA:17,2
DA:19,1
DA:20,1
DA:21,1
DA:23,2
DA:24,2
DA:25,2
DA:28,0
DA:30,0
DA:32,0
DA:33,0
DA:37,0
DA:38,0
DA:40,0
DA:41,0
DA:42,0
DA:43,0
DA:44,0
DA:45,0
DA:46,0
DA:48,0
DA:49,0
DA:50,0
DA:51,0
DA:52,0
DA:53,0
DA:55,0
DA:61,0
DA:63,0
DA:66,0
DA:68,0
DA:70,0
DA:71,0
DA:72,0
DA:73,0
DA:74,0
DA:75,0
DA:77,0
DA:78,0
DA:79,0
DA:80,0
DA:81,0
DA:82,0
DA:83,0
DA:85,0
DA:89,0
DA:92,0
DA:94,0
DA:97,0
DA:99,0
DA:101,0
DA:102,0
DA:103,0
DA:105,0
DA:106,0
DA:107,0
DA:108,0
DA:109,0
DA:110,0
DA:111,0
DA:113,0
DA:118,0
DA:120,0
DA:123,1
DA:125,1
DA:127,1
DA:128,0
DA:132,0
DA:133,1
DA:135,1
DA:136,0
DA:137,0
DA:138,0
DA:139,0
DA:140,0
DA:141,0
DA:143,1
DA:144,0
DA:145,0
DA:146,0
DA:147,0
DA:148,0
DA:150,1
DA:154,0
DA:157,1
DA:159,1
DA:162,1
DA:164,1
DA:166,1
DA:167,0
DA:168,0
DA:169,0
DA:170,0
DA:171,0
DA:173,1
DA:174,0
DA:175,0
DA:176,0
DA:177,0
DA:178,0
DA:179,0
DA:181,1
DA:185,0
DA:188,1
DA:190,1
DA:193,0
DA:195,0
DA:197,0
DA:198,0
DA:199,0
DA:201,0
DA:202,0
DA:203,0
DA:204,0
DA:205,0
DA:206,0
DA:207,0
DA:209,0
DA:214,0
DA:216,0
DA:228,2
DA:229,2
DA:230,2
DA:231,2
DA:232,2
DA:233,2
DA:234,2
DA:235,2
DA:236,2
DA:237,2
DA:238,2
DA:239,2
DA:240,2
DA:241,2
DA:242,2
DA:243,2
DA:244,2
DA:245,2
DA:246,2
DA:247,2
DA:248,2
DA:249,2
DA:250,2
DA:253,1
DA:254,1
DA:255,1
DA:256,1
DA:257,1
DA:260,1
DA:261,1
DA:262,1
DA:263,1
DA:265,1
DA:266,1
DA:267,1
DA:268,1
DA:271,1
DA:274,1
DA:275,1
DA:276,1
DA:278,1
DA:279,1
DA:281,1
DA:282,1
DA:284,1
DA:285,1
DA:286,1
DA:287,1
DA:290,1
DA:293,1
DA:294,1
DA:295,1
DA:298,1
DA:299,1
DA:301,1
DA:302,1
DA:304,1
DA:305,1
DA:306,1
DA:307,1
DA:308,1
DA:309,1
DA:312,1
DA:318,1
DA:319,1
DA:321,1
DA:323,1
DA:325,1
DA:328,1
DA:329,1
DA:330,1
DA:332,1
DA:333,1
DA:334,1
DA:336,1
DA:337,1
DA:338,1
DA:341,1
DA:342,1
DA:343,1
DA:344,1
DA:346,1
DA:347,1
DA:348,1
DA:349,1
DA:352,1
DA:353,1
DA:356,1
DA:360,1
DA:363,1
DA:364,1
DA:367,1
DA:368,1
DA:369,1
DA:372,1
DA:373,1
DA:376,1
DA:377,1
DA:378,1
DA:379,1
DA:380,1
DA:383,1
DA:384,1
DA:385,1
DA:387,1
DA:388,1
DA:389,1
DA:391,1
BRF:0
BRH:0
LF:252
LH:135
end_of_record
SF:/Users/samcolak/Source Code/rust/distdb/distdb/serverlib/src/engine/database/catalog.rs
FN:162,_RINvMNtNtNtCsksqSOdb1Dlf_9serverlib6engine8database7catalogNtB3_15DatabaseCatalog19create_new_databasepEB9_
FN:481,_RINvMNtNtNtCsksqSOdb1Dlf_9serverlib6engine8database7catalogNtB3_15DatabaseCatalog24execute_schema_migrationpEB9_
FN:1389,_RNCNvMNtNtNtCsksqSOdb1Dlf_9serverlib6engine8database7catalogNtB4_15DatabaseCatalog11is_writable0Ba_
FN:1390,_RNCNvMNtNtNtCsksqSOdb1Dlf_9serverlib6engine8database7catalogNtB4_15DatabaseCatalog11is_writables_0Ba_
FN:1173,_RNCNvMNtNtNtCsksqSOdb1Dlf_9serverlib6engine8database7catalogNtB4_15DatabaseCatalog13entities_iter0Ba_
FN:461,_RNCNvMNtNtNtCsksqSOdb1Dlf_9serverlib6engine8database7catalogNtB4_15DatabaseCatalog13relationships0Ba_
FN:1371,_RNCNvMNtNtNtCsksqSOdb1Dlf_9serverlib6engine8database7catalogNtB4_15DatabaseCatalog8view_ids0Ba_
FN:427,_RNvMNtNtNtCsksqSOdb1Dlf_9serverlib6engine8database7catalogNtB2_15DatabaseCatalog11entity_kind
FN:439,_RNvMNtNtNtCsksqSOdb1Dlf_9serverlib6engine8database7catalogNtB2_15DatabaseCatalog11entity_name
FN:1386,_RNvMNtNtNtCsksqSOdb1Dlf_9serverlib6engine8database7catalogNtB2_15DatabaseCatalog11is_writable
FN:1379,_RNvMNtNtNtCsksqSOdb1Dlf_9serverlib6engine8database7catalogNtB2_15DatabaseCatalog11view_schema
FN:1220,_RNvMNtNtNtCsksqSOdb1Dlf_9serverlib6engine8database7catalogNtB2_15DatabaseCatalog12relationship
FN:1169,_RNvMNtNtNtCsksqSOdb1Dlf_9serverlib6engine8database7catalogNtB2_15DatabaseCatalog13entities_iter
FN:457,_RNvMNtNtNtCsksqSOdb1Dlf_9serverlib6engine8database7catalogNtB2_15DatabaseCatalog13relationships
FN:515,_RNvMNtNtNtCsksqSOdb1Dlf_9serverlib6engine8database7catalogNtB2_15DatabaseCatalog14begin_indexing
FN:1152,_RNvMNtNtNtCsksqSOdb1Dlf_9serverlib6engine8database7catalogNtB2_15DatabaseCatalog14from_file_stem
FN:435,_RNvMNtNtNtCsksqSOdb1Dlf_9serverlib6engine8database7catalogNtB2_15DatabaseCatalog15entity_metadata
FN:631,_RNvMNtNtNtCsksqSOdb1Dlf_9serverlib6engine8database7catalogNtB2_15DatabaseCatalog17abort_table_write
FN:604,_RNvMNtNtNtCsksqSOdb1Dlf_9serverlib6engine8database7catalogNtB2_15DatabaseCatalog17begin_table_write
FN:543,_RNvMNtNtNtCsksqSOdb1Dlf_9serverlib6engine8database7catalogNtB2_15DatabaseCatalog17complete_indexing
FN:1528,_RNvMNtNtNtCsksqSOdb1Dlf_9serverlib6engine8database7catalogNtB2_15DatabaseCatalog17set_database_name
FN:448,_RNvMNtNtNtCsksqSOdb1Dlf_9serverlib6engine8database7catalogNtB2_15DatabaseCatalog18entity_identity_id
FN:611,_RNvMNtNtNtCsksqSOdb1Dlf_9serverlib6engine8database7catalogNtB2_15DatabaseCatalog20finalize_table_write
FN:1547,_RNvMNtNtNtCsksqSOdb1Dlf_9serverlib6engine8database7catalogNtB2_15DatabaseCatalog31database_sync_acknowledged_stub
FN:1562,_RNvMNtNtNtCsksqSOdb1Dlf_9serverlib6engine8database7catalogNtB2_15DatabaseCatalog35received_database_replica_acks_stub
FN:1558,_RNvMNtNtNtCsksqSOdb1Dlf_9serverlib6engine8database7catalogNtB2_15DatabaseCatalog35required_database_replica_acks_stub
FN:1366,_RNvMNtNtNtCsksqSOdb1Dlf_9serverlib6engine8database7catalogNtB2_15DatabaseCatalog8view_ids
FN:296,_RNvMNtNtNtCsksqSOdb1Dlf_9serverlib6engine8database7catalogNtB2_15DatabaseCatalog10drop_table
FN:216,_RNvMNtNtNtCsksqSOdb1Dlf_9serverlib6engine8database7catalogNtB2_15DatabaseCatalog11drop_object
FN:1271,_RNvMNtNtNtCsksqSOdb1Dlf_9serverlib6engine8database7catalogNtB2_15DatabaseCatalog11trigger_ids
FN:1422,_RNvMNtNtNtCsksqSOdb1Dlf_9serverlib6engine8database7catalogNtB2_15DatabaseCatalog11trigger_mut
FN:1267,_RNvMNtNtNtCsksqSOdb1Dlf_9serverlib6engine8database7catalogNtB2_15DatabaseCatalog12drop_trigger
FN:397,_RNvMNtNtNtCsksqSOdb1Dlf_9serverlib6engine8database7catalogNtB2_15DatabaseCatalog12object_by_id
FN:473,_RNvMNtNtNtCsksqSOdb1Dlf_9serverlib6engine8database7catalogNtB2_15DatabaseCatalog12schema_epoch
FN:568,_RNvMNtNtNtCsksqSOdb1Dlf_9serverlib6engine8database7catalogNtB2_15DatabaseCatalog12table_schema
FN:1144,_RNvMNtNtNtCsksqSOdb1Dlf_9serverlib6engine8database7catalogNtB2_15DatabaseCatalog12table_status
FN:1485,_RNvMNtNtNtCsksqSOdb1Dlf_9serverlib6engine8database7catalogNtB2_15DatabaseCatalog13database_name
FN:431,_RNvMNtNtNtCsksqSOdb1Dlf_9serverlib6engine8database7catalogNtB2_15DatabaseCatalog13entity_status
FN:341,_RNvMNtNtNtCsksqSOdb1Dlf_9serverlib6engine8database7catalogNtB2_15DatabaseCatalog14index_in_table
FN:1335,_RNvMNtNtNtCsksqSOdb1Dlf_9serverlib6engine8database7catalogNtB2_15DatabaseCatalog16stored_procedure
FN:1620,_RNvMNtNtNtCsksqSOdb1Dlf_9serverlib6engine8database7catalogNtB2_15DatabaseCatalog17bump_schema_epoch
FN:489,_RNvMNtNtNtCsksqSOdb1Dlf_9serverlib6engine8database7catalogNtB2_15DatabaseCatalog17transition_status
FN:1574,_RNvMNtNtNtCsksqSOdb1Dlf_9serverlib6engine8database7catalogNtB2_15DatabaseCatalog18indexes_for_schema
FN:114,_RNvMNtNtNtCsksqSOdb1Dlf_9serverlib6engine8database7catalogNtB2_15DatabaseCatalog18resolve_entity_key
FN:1284,_RNvMNtNtNtCsksqSOdb1Dlf_9serverlib6engine8database7catalogNtB2_15DatabaseCatalog18triggers_for_event
FN:1628,_RNvMNtNtNtCsksqSOdb1Dlf_9serverlib6engine8database7catalogNtB2_15DatabaseCatalog19accept_schema_epoch
FN:741,_RNvMNtNtNtCsksqSOdb1Dlf_9serverlib6engine8database7catalogNtB2_15DatabaseCatalog19apply_schema_change
FN:579,_RNvMNtNtNtCsksqSOdb1Dlf_9serverlib6engine8database7catalogNtB2_15DatabaseCatalog19begin_schema_change
FN:726,_RNvMNtNtNtCsksqSOdb1Dlf_9serverlib6engine8database7catalogNtB2_15DatabaseCatalog19release_schema_lock
FN:477,_RNvMNtNtNtCsksqSOdb1Dlf_9serverlib6engine8database7catalogNtB2_15DatabaseCatalog20active_schema_change
FN:847,_RNvMNtNtNtCsksqSOdb1Dlf_9serverlib6engine8database7catalogNtB2_15DatabaseCatalog20apply_sql_definition
FN:443,_RNvMNtNtNtCsksqSOdb1Dlf_9serverlib6engine8database7catalogNtB2_15DatabaseCatalog20entity_wal_stream_id
FN:1351,_RNvMNtNtNtCsksqSOdb1Dlf_9serverlib6engine8database7catalogNtB2_15DatabaseCatalog20stored_procedure_ids
FN:1436,_RNvMNtNtNtCsksqSOdb1Dlf_9serverlib6engine8database7catalogNtB2_15DatabaseCatalog20stored_procedure_mut
FN:801,_RNvMNtNtNtCsksqSOdb1Dlf_9serverlib6engine8database7catalogNtB2_15DatabaseCatalog21apply_entity_metadata
FN:770,_RNvMNtNtNtCsksqSOdb1Dlf_9serverlib6engine8database7catalogNtB2_15DatabaseCatalog21apply_table_lifecycle
FN:1347,_RNvMNtNtNtCsksqSOdb1Dlf_9serverlib6engine8database7catalogNtB2_15DatabaseCatalog21drop_stored_procedure
FN:300,_RNvMNtNtNtCsksqSOdb1Dlf_9serverlib6engine8database7catalogNtB2_15DatabaseCatalog21register_relationship
FN:572,_RNvMNtNtNtCsksqSOdb1Dlf_9serverlib6engine8database7catalogNtB2_15DatabaseCatalog21table_schema_revision
FN:155,_RNvMNtNtNtCsksqSOdb1Dlf_9serverlib6engine8database7catalogNtB2_15DatabaseCatalog22create_empty_from_name
FN:1128,_RNvMNtNtNtCsksqSOdb1Dlf_9serverlib6engine8database7catalogNtB2_15DatabaseCatalog22ensure_ready_for_write
FN:452,_RNvMNtNtNtCsksqSOdb1Dlf_9serverlib6engine8database7catalogNtB2_15DatabaseCatalog22entity_schema_revision
FN:697,_RNvMNtNtNtCsksqSOdb1Dlf_9serverlib6engine8database7catalogNtB2_15DatabaseCatalog22finalize_schema_change
FN:1632,_RNvMNtNtNtCsksqSOdb1Dlf_9serverlib6engine8database7catalogNtB2_15DatabaseCatalog25normalize_loaded_entities
FN:1624,_RNvMNtNtNtCsksqSOdb1Dlf_9serverlib6engine8database7catalogNtB2_15DatabaseCatalog25should_apply_schema_epoch
FN:1489,_RNvMNtNtNtCsksqSOdb1Dlf_9serverlib6engine8database7catalogNtB2_15DatabaseCatalog26at_rest_encryption_enabled
FN:1493,_RNvMNtNtNtCsksqSOdb1Dlf_9serverlib6engine8database7catalogNtB2_15DatabaseCatalog26at_rest_encryption_key_ref
FN:1553,_RNvMNtNtNtCsksqSOdb1Dlf_9serverlib6engine8database7catalogNtB2_15DatabaseCatalog28table_sync_acknowledged_stub
FN:56,_RNvMNtNtNtCsksqSOdb1Dlf_9serverlib6engine8database7catalogNtB2_15DatabaseCatalog29register_table_with_entity_id
FN:1497,_RNvMNtNtNtCsksqSOdb1Dlf_9serverlib6engine8database7catalogNtB2_15DatabaseCatalog30at_rest_encryption_key_version
FN:644,_RNvMNtNtNtCsksqSOdb1Dlf_9serverlib6engine8database7catalogNtB2_15DatabaseCatalog30transition_schema_change_phase
FN:1570,_RNvMNtNtNtCsksqSOdb1Dlf_9serverlib6engine8database7catalogNtB2_15DatabaseCatalog32received_table_replica_acks_stub
FN:1566,_RNvMNtNtNtCsksqSOdb1Dlf_9serverlib6engine8database7catalogNtB2_15DatabaseCatalog32required_table_replica_acks_stub
FN:670,_RNvMNtNtNtCsksqSOdb1Dlf_9serverlib6engine8database7catalogNtB2_15DatabaseCatalog33checkpoint_schema_change_progress
FN:142,_RNvMNtNtNtCsksqSOdb1Dlf_9serverlib6engine8database7catalogNtB2_15DatabaseCatalog3new
FN:1204,_RNvMNtNtNtCsksqSOdb1Dlf_9serverlib6engine8database7catalogNtB2_15DatabaseCatalog4view
FN:329,_RNvMNtNtNtCsksqSOdb1Dlf_9serverlib6engine8database7catalogNtB2_15DatabaseCatalog5index
FN:317,_RNvMNtNtNtCsksqSOdb1Dlf_9serverlib6engine8database7catalogNtB2_15DatabaseCatalog5table
FN:422,_RNvMNtNtNtCsksqSOdb1Dlf_9serverlib6engine8database7catalogNtB2_15DatabaseCatalog6entity
FN:348,_RNvMNtNtNtCsksqSOdb1Dlf_9serverlib6engine8database7catalogNtB2_15DatabaseCatalog6object
FN:469,_RNvMNtNtNtCsksqSOdb1Dlf_9serverlib6engine8database7catalogNtB2_15DatabaseCatalog6status
FN:1255,_RNvMNtNtNtCsksqSOdb1Dlf_9serverlib6engine8database7catalogNtB2_15DatabaseCatalog7trigger
FN:1408,_RNvMNtNtNtCsksqSOdb1Dlf_9serverlib6engine8database7catalogNtB2_15DatabaseCatalog8view_mut
FN:1216,_RNvMNtNtNtCsksqSOdb1Dlf_9serverlib6engine8database7catalogNtB2_15DatabaseCatalog9drop_view
FN:1148,_RNvMNtNtNtCsksqSOdb1Dlf_9serverlib6engine8database7catalogNtB2_15DatabaseCatalog9file_name
FN:1156,_RNvMNtNtNtCsksqSOdb1Dlf_9serverlib6engine8database7catalogNtB2_15DatabaseCatalog9table_ids
FN:1394,_RNvMNtNtNtCsksqSOdb1Dlf_9serverlib6engine8database7catalogNtB2_15DatabaseCatalog9table_mut
FN:190,_RINvMNtNtNtCsksqSOdb1Dlf_9serverlib6engine8database7catalogNtB3_15DatabaseCatalog12create_tableReEB9_
FN:1532,_RINvMNtNtNtCsksqSOdb1Dlf_9serverlib6engine8database7catalogNtB3_15DatabaseCatalog12save_to_pathNtNtCsgL88BVMLsDE_3std4path7PathBufEB9_
FN:1181,_RINvMNtNtNtCsksqSOdb1Dlf_9serverlib6engine8database7catalogNtB3_15DatabaseCatalog13register_viewNtNtCslDfkGcRelIg_5alloc6string6StringB1w_EB9_
FN:1181,_RINvMNtNtNtCsksqSOdb1Dlf_9serverlib6engine8database7catalogNtB3_15DatabaseCatalog13register_viewReB1w_EB9_
FN:1450,_RINvMNtNtNtCsksqSOdb1Dlf_9serverlib6engine8database7catalogNtB3_15DatabaseCatalog14load_from_pathNtNtCsgL88BVMLsDE_3std4path7PathBufEB9_
FN:179,_RINvMNtNtNtCsksqSOdb1Dlf_9serverlib6engine8database7catalogNtB3_15DatabaseCatalog14register_tableReEB9_
FN:1232,_RINvMNtNtNtCsksqSOdb1Dlf_9serverlib6engine8database7catalogNtB3_15DatabaseCatalog16register_triggerNtNtCslDfkGcRelIg_5alloc6string6StringB1z_EB9_
FN:1232,_RINvMNtNtNtCsksqSOdb1Dlf_9serverlib6engine8database7catalogNtB3_15DatabaseCatalog16register_triggerReB1z_EB9_
FN:1480,_RINvMNtNtNtCsksqSOdb1Dlf_9serverlib6engine8database7catalogNtB3_15DatabaseCatalog17save_in_directoryRNtNtCsgL88BVMLsDE_3std4path7PathBufEB9_
FN:981,_RINvMNtNtNtCsksqSOdb1Dlf_9serverlib6engine8database7catalogNtB3_15DatabaseCatalog18set_sql_definitionReB1B_EB9_
FN:832,_RINvMNtNtNtCsksqSOdb1Dlf_9serverlib6engine8database7catalogNtB3_15DatabaseCatalog19set_entity_metadataReEB9_
FN:200,_RINvMNtNtNtCsksqSOdb1Dlf_9serverlib6engine8database7catalogNtB3_15DatabaseCatalog22create_temporary_tableNtNtCslDfkGcRelIg_5alloc6string6StringEB9_
FN:200,_RINvMNtNtNtCsksqSOdb1Dlf_9serverlib6engine8database7catalogNtB3_15DatabaseCatalog22create_temporary_tableReEB9_
FN:1002,_RINvMNtNtNtCsksqSOdb1Dlf_9serverlib6engine8database7catalogNtB3_15DatabaseCatalog22replay_schema_from_logNtNtB7_3wal20ConcurrentWalManagerEB9_
FN:1311,_RINvMNtNtNtCsksqSOdb1Dlf_9serverlib6engine8database7catalogNtB3_15DatabaseCatalog25register_stored_procedureNtNtCslDfkGcRelIg_5alloc6string6StringB1I_EB9_
FN:1311,_RINvMNtNtNtCsksqSOdb1Dlf_9serverlib6engine8database7catalogNtB3_15DatabaseCatalog25register_stored_procedureReB1I_EB9_
FN:89,_RINvMNtNtNtCsksqSOdb1Dlf_9serverlib6engine8database7catalogNtB3_15DatabaseCatalog27create_table_with_entity_idNtNtCslDfkGcRelIg_5alloc6string6StringEB9_
FN:89,_RINvMNtNtNtCsksqSOdb1Dlf_9serverlib6engine8database7catalogNtB3_15DatabaseCatalog27create_table_with_entity_idReEB9_
FN:1028,_RINvMNtNtNtCsksqSOdb1Dlf_9serverlib6engine8database7catalogNtB3_15DatabaseCatalog35replay_entity_construction_from_logNtNtB7_3wal20ConcurrentWalManagerEB9_
FN:1501,_RINvMNtNtNtCsksqSOdb1Dlf_9serverlib6engine8database7catalogNtB3_15DatabaseCatalog36configure_at_rest_encryption_key_refReEB9_
FN:1534,_RNCINvMNtNtNtCsksqSOdb1Dlf_9serverlib6engine8database7catalogNtB5_15DatabaseCatalog12save_to_pathNtNtCsgL88BVMLsDE_3std4path7PathBufE0Bb_
FN:1059,_RNCINvMNtNtNtCsksqSOdb1Dlf_9serverlib6engine8database7catalogNtB5_15DatabaseCatalog35replay_entity_construction_from_logNtNtB9_3wal20ConcurrentWalManagerE0Bb_
FN:1078,_RNCINvMNtNtNtCsksqSOdb1Dlf_9serverlib6engine8database7catalogNtB5_15DatabaseCatalog35replay_entity_construction_from_logNtNtB9_3wal20ConcurrentWalManagerEs_0Bb_
FN:1301,_RNCNCNvMNtNtNtCsksqSOdb1Dlf_9serverlib6engine8database7catalogNtB6_15DatabaseCatalog18triggers_for_events_00Bc_
FN:1276,_RNCNvMNtNtNtCsksqSOdb1Dlf_9serverlib6engine8database7catalogNtB4_15DatabaseCatalog11trigger_ids0Ba_
FN:401,_RNCNvMNtNtNtCsksqSOdb1Dlf_9serverlib6engine8database7catalogNtB4_15DatabaseCatalog12object_by_id0Ba_
FN:415,_RNCNvMNtNtNtCsksqSOdb1Dlf_9serverlib6engine8database7catalogNtB4_15DatabaseCatalog12object_by_ids_0Ba_
FN:344,_RNCNvMNtNtNtCsksqSOdb1Dlf_9serverlib6engine8database7catalogNtB4_15DatabaseCatalog14index_in_table0Ba_
FN:1581,_RNCNvMNtNtNtCsksqSOdb1Dlf_9serverlib6engine8database7catalogNtB4_15DatabaseCatalog18indexes_for_schema0Ba_
FN:1582,_RNCNvMNtNtNtCsksqSOdb1Dlf_9serverlib6engine8database7catalogNtB4_15DatabaseCatalog18indexes_for_schemas_0Ba_
FN:120,_RNCNvMNtNtNtCsksqSOdb1Dlf_9serverlib6engine8database7catalogNtB4_15DatabaseCatalog18resolve_entity_key0Ba_
FN:138,_RNCNvMNtNtNtCsksqSOdb1Dlf_9serverlib6engine8database7catalogNtB4_15DatabaseCatalog18resolve_entity_keys0_0Ba_
FN:137,_RNCNvMNtNtNtCsksqSOdb1Dlf_9serverlib6engine8database7catalogNtB4_15DatabaseCatalog18resolve_entity_keys_0Ba_
FN:1296,_RNCNvMNtNtNtCsksqSOdb1Dlf_9serverlib6engine8database7catalogNtB4_15DatabaseCatalog18triggers_for_event0Ba_
FN:1300,_RNCNvMNtNtNtCsksqSOdb1Dlf_9serverlib6engine8database7catalogNtB4_15DatabaseCatalog18triggers_for_events_0Ba_
FN:868,_RNCNvMNtNtNtCsksqSOdb1Dlf_9serverlib6engine8database7catalogNtB4_15DatabaseCatalog20apply_sql_definition0Ba_
FN:445,_RNCNvMNtNtNtCsksqSOdb1Dlf_9serverlib6engine8database7catalogNtB4_15DatabaseCatalog20entity_wal_stream_id0Ba_
FN:1356,_RNCNvMNtNtNtCsksqSOdb1Dlf_9serverlib6engine8database7catalogNtB4_15DatabaseCatalog20stored_procedure_ids0Ba_
FN:781,_RNCNvMNtNtNtCsksqSOdb1Dlf_9serverlib6engine8database7catalogNtB4_15DatabaseCatalog21apply_table_lifecycle0Ba_
FN:424,_RNCNvMNtNtNtCsksqSOdb1Dlf_9serverlib6engine8database7catalogNtB4_15DatabaseCatalog6entity0Ba_
FN:354,_RNCNvMNtNtNtCsksqSOdb1Dlf_9serverlib6engine8database7catalogNtB4_15DatabaseCatalog6object0Ba_
FN:364,_RNCNvMNtNtNtCsksqSOdb1Dlf_9serverlib6engine8database7catalogNtB4_15DatabaseCatalog6objects0_0Ba_
FN:364,_RNCNvMNtNtNtCsksqSOdb1Dlf_9serverlib6engine8database7catalogNtB4_15DatabaseCatalog6objects1_0Ba_
FN:369,_RNCNvMNtNtNtCsksqSOdb1Dlf_9serverlib6engine8database7catalogNtB4_15DatabaseCatalog6objects2_0Ba_
FN:374,_RNCNvMNtNtNtCsksqSOdb1Dlf_9serverlib6engine8database7catalogNtB4_15DatabaseCatalog6objects3_0Ba_
FN:382,_RNCNvMNtNtNtCsksqSOdb1Dlf_9serverlib6engine8database7catalogNtB4_15DatabaseCatalog6objects4_0Ba_
FN:359,_RNCNvMNtNtNtCsksqSOdb1Dlf_9serverlib6engine8database7catalogNtB4_15DatabaseCatalog6objects_0Ba_
FN:1161,_RNCNvMNtNtNtCsksqSOdb1Dlf_9serverlib6engine8database7catalogNtB4_15DatabaseCatalog9table_ids0Ba_
FNDA:0,_RINvMNtNtNtCsksqSOdb1Dlf_9serverlib6engine8database7catalogNtB3_15DatabaseCatalog19create_new_databasepEB9_
FNDA:0,_RINvMNtNtNtCsksqSOdb1Dlf_9serverlib6engine8database7catalogNtB3_15DatabaseCatalog24execute_schema_migrationpEB9_
FNDA:0,_RNCNvMNtNtNtCsksqSOdb1Dlf_9serverlib6engine8database7catalogNtB4_15DatabaseCatalog11is_writable0Ba_
FNDA:0,_RNCNvMNtNtNtCsksqSOdb1Dlf_9serverlib6engine8database7catalogNtB4_15DatabaseCatalog11is_writables_0Ba_
FNDA:0,_RNCNvMNtNtNtCsksqSOdb1Dlf_9serverlib6engine8database7catalogNtB4_15DatabaseCatalog13entities_iter0Ba_
FNDA:0,_RNCNvMNtNtNtCsksqSOdb1Dlf_9serverlib6engine8database7catalogNtB4_15DatabaseCatalog13relationships0Ba_
FNDA:0,_RNCNvMNtNtNtCsksqSOdb1Dlf_9serverlib6engine8database7catalogNtB4_15DatabaseCatalog8view_ids0Ba_
FNDA:0,_RNvMNtNtNtCsksqSOdb1Dlf_9serverlib6engine8database7catalogNtB2_15DatabaseCatalog11entity_kind
FNDA:0,_RNvMNtNtNtCsksqSOdb1Dlf_9serverlib6engine8database7catalogNtB2_15DatabaseCatalog11entity_name
FNDA:0,_RNvMNtNtNtCsksqSOdb1Dlf_9serverlib6engine8database7catalogNtB2_15DatabaseCatalog11is_writable
FNDA:0,_RNvMNtNtNtCsksqSOdb1Dlf_9serverlib6engine8database7catalogNtB2_15DatabaseCatalog11view_schema
FNDA:0,_RNvMNtNtNtCsksqSOdb1Dlf_9serverlib6engine8database7catalogNtB2_15DatabaseCatalog12relationship
FNDA:0,_RNvMNtNtNtCsksqSOdb1Dlf_9serverlib6engine8database7catalogNtB2_15DatabaseCatalog13entities_iter
FNDA:0,_RNvMNtNtNtCsksqSOdb1Dlf_9serverlib6engine8database7catalogNtB2_15DatabaseCatalog13relationships
FNDA:0,_RNvMNtNtNtCsksqSOdb1Dlf_9serverlib6engine8database7catalogNtB2_15DatabaseCatalog14begin_indexing
FNDA:0,_RNvMNtNtNtCsksqSOdb1Dlf_9serverlib6engine8database7catalogNtB2_15DatabaseCatalog14from_file_stem
FNDA:0,_RNvMNtNtNtCsksqSOdb1Dlf_9serverlib6engine8database7catalogNtB2_15DatabaseCatalog15entity_metadata
FNDA:0,_RNvMNtNtNtCsksqSOdb1Dlf_9serverlib6engine8database7catalogNtB2_15DatabaseCatalog17abort_table_write
FNDA:0,_RNvMNtNtNtCsksqSOdb1Dlf_9serverlib6engine8database7catalogNtB2_15DatabaseCatalog17begin_table_write
FNDA:0,_RNvMNtNtNtCsksqSOdb1Dlf_9serverlib6engine8database7catalogNtB2_15DatabaseCatalog17complete_indexing
FNDA:0,_RNvMNtNtNtCsksqSOdb1Dlf_9serverlib6engine8database7catalogNtB2_15DatabaseCatalog17set_database_name
FNDA:0,_RNvMNtNtNtCsksqSOdb1Dlf_9serverlib6engine8database7catalogNtB2_15DatabaseCatalog18entity_identity_id
FNDA:0,_RNvMNtNtNtCsksqSOdb1Dlf_9serverlib6engine8database7catalogNtB2_15DatabaseCatalog20finalize_table_write
FNDA:0,_RNvMNtNtNtCsksqSOdb1Dlf_9serverlib6engine8database7catalogNtB2_15DatabaseCatalog31database_sync_acknowledged_stub
FNDA:0,_RNvMNtNtNtCsksqSOdb1Dlf_9serverlib6engine8database7catalogNtB2_15DatabaseCatalog35received_database_replica_acks_stub
FNDA:0,_RNvMNtNtNtCsksqSOdb1Dlf_9serverlib6engine8database7catalogNtB2_15DatabaseCatalog35required_database_replica_acks_stub
FNDA:0,_RNvMNtNtNtCsksqSOdb1Dlf_9serverlib6engine8database7catalogNtB2_15DatabaseCatalog8view_ids
FNDA:10,_RNvMNtNtNtCsksqSOdb1Dlf_9serverlib6engine8database7catalogNtB2_15DatabaseCatalog10drop_table
FNDA:18,_RNvMNtNtNtCsksqSOdb1Dlf_9serverlib6engine8database7catalogNtB2_15DatabaseCatalog11drop_object
FNDA:1,_RNvMNtNtNtCsksqSOdb1Dlf_9serverlib6engine8database7catalogNtB2_15DatabaseCatalog11trigger_ids
FNDA:2,_RNvMNtNtNtCsksqSOdb1Dlf_9serverlib6engine8database7catalogNtB2_15DatabaseCatalog11trigger_mut
FNDA:1,_RNvMNtNtNtCsksqSOdb1Dlf_9serverlib6engine8database7catalogNtB2_15DatabaseCatalog12drop_trigger
FNDA:7,_RNvMNtNtNtCsksqSOdb1Dlf_9serverlib6engine8database7catalogNtB2_15DatabaseCatalog12object_by_id
FNDA:11,_RNvMNtNtNtCsksqSOdb1Dlf_9serverlib6engine8database7catalogNtB2_15DatabaseCatalog12schema_epoch
FNDA:105,_RNvMNtNtNtCsksqSOdb1Dlf_9serverlib6engine8database7catalogNtB2_15DatabaseCatalog12table_schema
FNDA:6,_RNvMNtNtNtCsksqSOdb1Dlf_9serverlib6engine8database7catalogNtB2_15DatabaseCatalog12table_status
FNDA:1,_RNvMNtNtNtCsksqSOdb1Dlf_9serverlib6engine8database7catalogNtB2_15DatabaseCatalog13database_name
FNDA:1,_RNvMNtNtNtCsksqSOdb1Dlf_9serverlib6engine8database7catalogNtB2_15DatabaseCatalog13entity_status
FNDA:2,_RNvMNtNtNtCsksqSOdb1Dlf_9serverlib6engine8database7catalogNtB2_15DatabaseCatalog14index_in_table
FNDA:17,_RNvMNtNtNtCsksqSOdb1Dlf_9serverlib6engine8database7catalogNtB2_15DatabaseCatalog16stored_procedure
FNDA:84,_RNvMNtNtNtCsksqSOdb1Dlf_9serverlib6engine8database7catalogNtB2_15DatabaseCatalog17bump_schema_epoch
FNDA:37,_RNvMNtNtNtCsksqSOdb1Dlf_9serverlib6engine8database7catalogNtB2_15DatabaseCatalog17transition_status
FNDA:140,_RNvMNtNtNtCsksqSOdb1Dlf_9serverlib6engine8database7catalogNtB2_15DatabaseCatalog18indexes_for_schema
FNDA:636,_RNvMNtNtNtCsksqSOdb1Dlf_9serverlib6engine8database7catalogNtB2_15DatabaseCatalog18resolve_entity_key
FNDA:1,_RNvMNtNtNtCsksqSOdb1Dlf_9serverlib6engine8database7catalogNtB2_15DatabaseCatalog18triggers_for_event
FNDA:13,_RNvMNtNtNtCsksqSOdb1Dlf_9serverlib6engine8database7catalogNtB2_15DatabaseCatalog19accept_schema_epoch
FNDA:6,_RNvMNtNtNtCsksqSOdb1Dlf_9serverlib6engine8database7catalogNtB2_15DatabaseCatalog19apply_schema_change
FNDA:18,_RNvMNtNtNtCsksqSOdb1Dlf_9serverlib6engine8database7catalogNtB2_15DatabaseCatalog19begin_schema_change
FNDA:3,_RNvMNtNtNtCsksqSOdb1Dlf_9serverlib6engine8database7catalogNtB2_15DatabaseCatalog19release_schema_lock
FNDA:6,_RNvMNtNtNtCsksqSOdb1Dlf_9serverlib6engine8database7catalogNtB2_15DatabaseCatalog20active_schema_change
FNDA:5,_RNvMNtNtNtCsksqSOdb1Dlf_9serverlib6engine8database7catalogNtB2_15DatabaseCatalog20apply_sql_definition
FNDA:57,_RNvMNtNtNtCsksqSOdb1Dlf_9serverlib6engine8database7catalogNtB2_15DatabaseCatalog20entity_wal_stream_id
FNDA:1,_RNvMNtNtNtCsksqSOdb1Dlf_9serverlib6engine8database7catalogNtB2_15DatabaseCatalog20stored_procedure_ids
FNDA:2,_RNvMNtNtNtCsksqSOdb1Dlf_9serverlib6engine8database7catalogNtB2_15DatabaseCatalog20stored_procedure_mut
FNDA:2,_RNvMNtNtNtCsksqSOdb1Dlf_9serverlib6engine8database7catalogNtB2_15DatabaseCatalog21apply_entity_metadata
FNDA:2,_RNvMNtNtNtCsksqSOdb1Dlf_9serverlib6engine8database7catalogNtB2_15DatabaseCatalog21apply_table_lifecycle
FNDA:1,_RNvMNtNtNtCsksqSOdb1Dlf_9serverlib6engine8database7catalogNtB2_15DatabaseCatalog21drop_stored_procedure
FNDA:3,_RNvMNtNtNtCsksqSOdb1Dlf_9serverlib6engine8database7catalogNtB2_15DatabaseCatalog21register_relationship
FNDA:4,_RNvMNtNtNtCsksqSOdb1Dlf_9serverlib6engine8database7catalogNtB2_15DatabaseCatalog21table_schema_revision
FNDA:114,_RNvMNtNtNtCsksqSOdb1Dlf_9serverlib6engine8database7catalogNtB2_15DatabaseCatalog22create_empty_from_name
FNDA:2,_RNvMNtNtNtCsksqSOdb1Dlf_9serverlib6engine8database7catalogNtB2_15DatabaseCatalog22ensure_ready_for_write
FNDA:2,_RNvMNtNtNtCsksqSOdb1Dlf_9serverlib6engine8database7catalogNtB2_15DatabaseCatalog22entity_schema_revision
FNDA:2,_RNvMNtNtNtCsksqSOdb1Dlf_9serverlib6engine8database7catalogNtB2_15DatabaseCatalog22finalize_schema_change
FNDA:3,_RNvMNtNtNtCsksqSOdb1Dlf_9serverlib6engine8database7catalogNtB2_15DatabaseCatalog25normalize_loaded_entities
FNDA:13,_RNvMNtNtNtCsksqSOdb1Dlf_9serverlib6engine8database7catalogNtB2_15DatabaseCatalog25should_apply_schema_epoch
FNDA:2,_RNvMNtNtNtCsksqSOdb1Dlf_9serverlib6engine8database7catalogNtB2_15DatabaseCatalog26at_rest_encryption_enabled
FNDA:11,_RNvMNtNtNtCsksqSOdb1Dlf_9serverlib6engine8database7catalogNtB2_15DatabaseCatalog26at_rest_encryption_key_ref
FNDA:35,_RNvMNtNtNtCsksqSOdb1Dlf_9serverlib6engine8database7catalogNtB2_15DatabaseCatalog28table_sync_acknowledged_stub
FNDA:134,_RNvMNtNtNtCsksqSOdb1Dlf_9serverlib6engine8database7catalogNtB2_15DatabaseCatalog29register_table_with_entity_id
FNDA:4,_RNvMNtNtNtCsksqSOdb1Dlf_9serverlib6engine8database7catalogNtB2_15DatabaseCatalog30at_rest_encryption_key_version
FNDA:31,_RNvMNtNtNtCsksqSOdb1Dlf_9serverlib6engine8database7catalogNtB2_15DatabaseCatalog30transition_schema_change_phase
FNDA:35,_RNvMNtNtNtCsksqSOdb1Dlf_9serverlib6engine8database7catalogNtB2_15DatabaseCatalog32received_table_replica_acks_stub
FNDA:35,_RNvMNtNtNtCsksqSOdb1Dlf_9serverlib6engine8database7catalogNtB2_15DatabaseCatalog32required_table_replica_acks_stub
FNDA:9,_RNvMNtNtNtCsksqSOdb1Dlf_9serverlib6engine8database7catalogNtB2_15DatabaseCatalog33checkpoint_schema_change_progress
FNDA:113,_RNvMNtNtNtCsksqSOdb1Dlf_9serverlib6engine8database7catalogNtB2_15DatabaseCatalog3new
FNDA:5,_RNvMNtNtNtCsksqSOdb1Dlf_9serverlib6engine8database7catalogNtB2_15DatabaseCatalog4view
FNDA:2,_RNvMNtNtNtCsksqSOdb1Dlf_9serverlib6engine8database7catalogNtB2_15DatabaseCatalog5index
FNDA:231,_RNvMNtNtNtCsksqSOdb1Dlf_9serverlib6engine8database7catalogNtB2_15DatabaseCatalog5table
FNDA:64,_RNvMNtNtNtCsksqSOdb1Dlf_9serverlib6engine8database7catalogNtB2_15DatabaseCatalog6entity
FNDA:268,_RNvMNtNtNtCsksqSOdb1Dlf_9serverlib6engine8database7catalogNtB2_15DatabaseCatalog6object
FNDA:3,_RNvMNtNtNtCsksqSOdb1Dlf_9serverlib6engine8database7catalogNtB2_15DatabaseCatalog6status
FNDA:7,_RNvMNtNtNtCsksqSOdb1Dlf_9serverlib6engine8database7catalogNtB2_15DatabaseCatalog7trigger
FNDA:1,_RNvMNtNtNtCsksqSOdb1Dlf_9serverlib6engine8database7catalogNtB2_15DatabaseCatalog8view_mut
FNDA:1,_RNvMNtNtNtCsksqSOdb1Dlf_9serverlib6engine8database7catalogNtB2_15DatabaseCatalog9drop_view
FNDA:4,_RNvMNtNtNtCsksqSOdb1Dlf_9serverlib6engine8database7catalogNtB2_15DatabaseCatalog9file_name
FNDA:7,_RNvMNtNtNtCsksqSOdb1Dlf_9serverlib6engine8database7catalogNtB2_15DatabaseCatalog9table_ids
FNDA:108,_RNvMNtNtNtCsksqSOdb1Dlf_9serverlib6engine8database7catalogNtB2_15DatabaseCatalog9table_mut
FNDA:21,_RINvMNtNtNtCsksqSOdb1Dlf_9serverlib6engine8database7catalogNtB3_15DatabaseCatalog12create_tableReEB9_
FNDA:2,_RINvMNtNtNtCsksqSOdb1Dlf_9serverlib6engine8database7catalogNtB3_15DatabaseCatalog12save_to_pathNtNtCsgL88BVMLsDE_3std4path7PathBufEB9_
FNDA:0,_RINvMNtNtNtCsksqSOdb1Dlf_9serverlib6engine8database7catalogNtB3_15DatabaseCatalog13register_viewNtNtCslDfkGcRelIg_5alloc6string6StringB1w_EB9_
FNDA:8,_RINvMNtNtNtCsksqSOdb1Dlf_9serverlib6engine8database7catalogNtB3_15DatabaseCatalog13register_viewReB1w_EB9_
FNDA:2,_RINvMNtNtNtCsksqSOdb1Dlf_9serverlib6engine8database7catalogNtB3_15DatabaseCatalog14load_from_pathNtNtCsgL88BVMLsDE_3std4path7PathBufEB9_
FNDA:100,_RINvMNtNtNtCsksqSOdb1Dlf_9serverlib6engine8database7catalogNtB3_15DatabaseCatalog14register_tableReEB9_
FNDA:0,_RINvMNtNtNtCsksqSOdb1Dlf_9serverlib6engine8database7catalogNtB3_15DatabaseCatalog16register_triggerNtNtCslDfkGcRelIg_5alloc6string6StringB1z_EB9_
FNDA:8,_RINvMNtNtNtCsksqSOdb1Dlf_9serverlib6engine8database7catalogNtB3_15DatabaseCatalog16register_triggerReB1z_EB9_
FNDA:2,_RINvMNtNtNtCsksqSOdb1Dlf_9serverlib6engine8database7catalogNtB3_15DatabaseCatalog17save_in_directoryRNtNtCsgL88BVMLsDE_3std4path7PathBufEB9_
FNDA:4,_RINvMNtNtNtCsksqSOdb1Dlf_9serverlib6engine8database7catalogNtB3_15DatabaseCatalog18set_sql_definitionReB1B_EB9_
FNDA:1,_RINvMNtNtNtCsksqSOdb1Dlf_9serverlib6engine8database7catalogNtB3_15DatabaseCatalog19set_entity_metadataReEB9_
FNDA:8,_RINvMNtNtNtCsksqSOdb1Dlf_9serverlib6engine8database7catalogNtB3_15DatabaseCatalog22create_temporary_tableNtNtCslDfkGcRelIg_5alloc6string6StringEB9_
FNDA:4,_RINvMNtNtNtCsksqSOdb1Dlf_9serverlib6engine8database7catalogNtB3_15DatabaseCatalog22create_temporary_tableReEB9_
FNDA:1,_RINvMNtNtNtCsksqSOdb1Dlf_9serverlib6engine8database7catalogNtB3_15DatabaseCatalog22replay_schema_from_logNtNtB7_3wal20ConcurrentWalManagerEB9_
FNDA:0,_RINvMNtNtNtCsksqSOdb1Dlf_9serverlib6engine8database7catalogNtB3_15DatabaseCatalog25register_stored_procedureNtNtCslDfkGcRelIg_5alloc6string6StringB1I_EB9_
FNDA:14,_RINvMNtNtNtCsksqSOdb1Dlf_9serverlib6engine8database7catalogNtB3_15DatabaseCatalog25register_stored_procedureReB1I_EB9_
FNDA:12,_RINvMNtNtNtCsksqSOdb1Dlf_9serverlib6engine8database7catalogNtB3_15DatabaseCatalog27create_table_with_entity_idNtNtCslDfkGcRelIg_5alloc6string6StringEB9_
FNDA:21,_RINvMNtNtNtCsksqSOdb1Dlf_9serverlib6engine8database7catalogNtB3_15DatabaseCatalog27create_table_with_entity_idReEB9_
FNDA:2,_RINvMNtNtNtCsksqSOdb1Dlf_9serverlib6engine8database7catalogNtB3_15DatabaseCatalog35replay_entity_construction_from_logNtNtB7_3wal20ConcurrentWalManagerEB9_
FNDA:5,_RINvMNtNtNtCsksqSOdb1Dlf_9serverlib6engine8database7catalogNtB3_15DatabaseCatalog36configure_at_rest_encryption_key_refReEB9_
FNDA:2,_RNCINvMNtNtNtCsksqSOdb1Dlf_9serverlib6engine8database7catalogNtB5_15DatabaseCatalog12save_to_pathNtNtCsgL88BVMLsDE_3std4path7PathBufE0Bb_
FNDA:0,_RNCINvMNtNtNtCsksqSOdb1Dlf_9serverlib6engine8database7catalogNtB5_15DatabaseCatalog35replay_entity_construction_from_logNtNtB9_3wal20ConcurrentWalManagerE0Bb_
FNDA:0,_RNCINvMNtNtNtCsksqSOdb1Dlf_9serverlib6engine8database7catalogNtB5_15DatabaseCatalog35replay_entity_construction_from_logNtNtB9_3wal20ConcurrentWalManagerEs_0Bb_
FNDA:2,_RNCNCNvMNtNtNtCsksqSOdb1Dlf_9serverlib6engine8database7catalogNtB6_15DatabaseCatalog18triggers_for_events_00Bc_
FNDA:2,_RNCNvMNtNtNtCsksqSOdb1Dlf_9serverlib6engine8database7catalogNtB4_15DatabaseCatalog11trigger_ids0Ba_
FNDA:5,_RNCNvMNtNtNtCsksqSOdb1Dlf_9serverlib6engine8database7catalogNtB4_15DatabaseCatalog12object_by_id0Ba_
FNDA:9,_RNCNvMNtNtNtCsksqSOdb1Dlf_9serverlib6engine8database7catalogNtB4_15DatabaseCatalog12object_by_ids_0Ba_
FNDA:2,_RNCNvMNtNtNtCsksqSOdb1Dlf_9serverlib6engine8database7catalogNtB4_15DatabaseCatalog14index_in_table0Ba_
FNDA:238,_RNCNvMNtNtNtCsksqSOdb1Dlf_9serverlib6engine8database7catalogNtB4_15DatabaseCatalog18indexes_for_schema0Ba_
FNDA:91,_RNCNvMNtNtNtCsksqSOdb1Dlf_9serverlib6engine8database7catalogNtB4_15DatabaseCatalog18indexes_for_schemas_0Ba_
FNDA:870,_RNCNvMNtNtNtCsksqSOdb1Dlf_9serverlib6engine8database7catalogNtB4_15DatabaseCatalog18resolve_entity_key0Ba_
FNDA:447,_RNCNvMNtNtNtCsksqSOdb1Dlf_9serverlib6engine8database7catalogNtB4_15DatabaseCatalog18resolve_entity_keys0_0Ba_
FNDA:709,_RNCNvMNtNtNtCsksqSOdb1Dlf_9serverlib6engine8database7catalogNtB4_15DatabaseCatalog18resolve_entity_keys_0Ba_
FNDA:2,_RNCNvMNtNtNtCsksqSOdb1Dlf_9serverlib6engine8database7catalogNtB4_15DatabaseCatalog18triggers_for_event0Ba_
FNDA:2,_RNCNvMNtNtNtCsksqSOdb1Dlf_9serverlib6engine8database7catalogNtB4_15DatabaseCatalog18triggers_for_events_0Ba_
FNDA:8,_RNCNvMNtNtNtCsksqSOdb1Dlf_9serverlib6engine8database7catalogNtB4_15DatabaseCatalog20apply_sql_definition0Ba_
FNDA:57,_RNCNvMNtNtNtCsksqSOdb1Dlf_9serverlib6engine8database7catalogNtB4_15DatabaseCatalog20entity_wal_stream_id0Ba_
FNDA:2,_RNCNvMNtNtNtCsksqSOdb1Dlf_9serverlib6engine8database7catalogNtB4_15DatabaseCatalog20stored_procedure_ids0Ba_
FNDA:0,_RNCNvMNtNtNtCsksqSOdb1Dlf_9serverlib6engine8database7catalogNtB4_15DatabaseCatalog21apply_table_lifecycle0Ba_
FNDA:64,_RNCNvMNtNtNtCsksqSOdb1Dlf_9serverlib6engine8database7catalogNtB4_15DatabaseCatalog6entity0Ba_
FNDA:220,_RNCNvMNtNtNtCsksqSOdb1Dlf_9serverlib6engine8database7catalogNtB4_15DatabaseCatalog6object0Ba_
FNDA:1,_RNCNvMNtNtNtCsksqSOdb1Dlf_9serverlib6engine8database7catalogNtB4_15DatabaseCatalog6objects0_0Ba_
FNDA:1,_RNCNvMNtNtNtCsksqSOdb1Dlf_9serverlib6engine8database7catalogNtB4_15DatabaseCatalog6objects1_0Ba_
FNDA:6,_RNCNvMNtNtNtCsksqSOdb1Dlf_9serverlib6engine8database7catalogNtB4_15DatabaseCatalog6objects2_0Ba_
FNDA:16,_RNCNvMNtNtNtCsksqSOdb1Dlf_9serverlib6engine8database7catalogNtB4_15DatabaseCatalog6objects3_0Ba_
FNDA:6,_RNCNvMNtNtNtCsksqSOdb1Dlf_9serverlib6engine8database7catalogNtB4_15DatabaseCatalog6objects4_0Ba_
FNDA:4,_RNCNvMNtNtNtCsksqSOdb1Dlf_9serverlib6engine8database7catalogNtB4_15DatabaseCatalog6objects_0Ba_
FNDA:8,_RNCNvMNtNtNtCsksqSOdb1Dlf_9serverlib6engine8database7catalogNtB4_15DatabaseCatalog9table_ids0Ba_
FNF:130
FNH:100
DA:56,134
DA:57,134
DA:58,134
DA:59,134
DA:60,134
DA:61,134
DA:63,134
DA:64,134
DA:65,134
DA:67,134
DA:68,2
DA:69,132
DA:71,132
DA:72,132
DA:74,132
DA:75,0
DA:77,0
DA:78,0
DA:79,0
DA:80,132
DA:82,132
DA:83,132
DA:85,132
DA:87,134
DA:89,33
DA:90,33
DA:91,33
DA:92,33
DA:93,33
DA:94,33
DA:96,33
DA:97,33
DA:99,33
DA:100,33
DA:102,33
DA:103,0
DA:104,33
DA:106,33
DA:107,33
DA:108,33
DA:110,33
DA:112,33
DA:114,636
DA:116,636
DA:117,0
DA:118,636
DA:120,870
DA:122,26
DA:123,26
DA:124,26
DA:125,26
DA:126,26
DA:129,844
DA:131,870
DA:132,4
DA:133,632
DA:135,632
DA:136,632
DA:137,709
DA:138,632
DA:140,636
DA:142,113
DA:143,113
DA:144,113
DA:145,113
DA:146,113
DA:147,113
DA:148,113
DA:149,113
DA:150,113
DA:151,113
DA:152,113
DA:153,113
DA:155,114
DA:156,114
DA:157,113
DA:158,113
DA:159,113
DA:160,114
DA:162,0
DA:164,0
DA:165,0
DA:166,0
DA:168,0
DA:169,0
DA:170,0
DA:172,0
DA:173,0
DA:175,0
DA:177,0
DA:179,100
DA:180,100
DA:181,100
DA:182,100
DA:183,100
DA:185,100
DA:186,100
DA:188,100
DA:190,21
DA:191,21
DA:192,21
DA:193,21
DA:194,21
DA:196,21
DA:198,21
DA:200,12
DA:201,12
DA:202,12
DA:203,12
DA:204,12
DA:206,12
DA:207,12
DA:209,12
DA:210,12
DA:212,12
DA:214,12
DA:216,18
DA:217,18
DA:218,18
DA:219,18
DA:220,18
DA:222,18
DA:224,0
DA:226,0
DA:228,0
DA:230,0
DA:232,0
DA:235,0
DA:242,18
DA:244,11
DA:246,11
DA:247,11
DA:249,0
DA:252,3
DA:254,3
DA:255,3
DA:257,0
DA:260,2
DA:262,2
DA:263,2
DA:265,0
DA:268,2
DA:270,2
DA:271,2
DA:273,0
DA:276,0
DA:278,0
DA:279,0
DA:281,0
DA:284,0
DA:288,18
DA:289,18
DA:290,18
DA:292,18
DA:294,18
DA:296,10
DA:297,10
DA:298,10
DA:300,3
DA:302,3
DA:304,3
DA:305,0
DA:306,3
DA:308,3
DA:309,3
DA:311,3
DA:313,3
DA:315,3
DA:317,231
DA:319,231
DA:321,219
DA:323,12
DA:327,231
DA:329,2
DA:331,2
DA:333,2
DA:335,0
DA:339,2
DA:341,2
DA:343,2
DA:344,2
DA:346,2
DA:348,268
DA:350,268
DA:352,268
DA:354,232
DA:355,220
DA:356,12
DA:359,6
DA:360,4
DA:361,2
DA:364,1
DA:365,1
DA:366,0
DA:367,1
DA:369,8
DA:370,6
DA:371,2
DA:374,18
DA:375,16
DA:376,16
DA:378,2
DA:382,6
DA:383,3
DA:384,3
DA:385,3
DA:386,3
DA:387,3
DA:388,6
DA:393,268
DA:397,7
DA:399,7
DA:401,7
DA:402,5
DA:403,1
DA:404,1
DA:405,1
DA:406,1
DA:408,1
DA:409,1
DA:410,1
DA:413,2
DA:415,9
DA:416,2
DA:417,7
DA:418,9
DA:420,7
DA:422,64
DA:423,64
DA:424,64
DA:425,64
DA:427,0
DA:428,0
DA:429,0
DA:431,1
DA:432,1
DA:433,1
DA:435,0
DA:436,0
DA:437,0
DA:439,0
DA:440,0
DA:441,0
DA:443,57
DA:444,57
DA:445,57
DA:446,57
DA:448,0
DA:449,0
DA:450,0
DA:452,2
DA:453,2
DA:454,2
DA:455,2
DA:457,0
DA:459,0
DA:460,0
DA:461,0
DA:462,0
DA:463,0
DA:464,0
DA:465,0
DA:467,0
DA:469,3
DA:470,3
DA:471,3
DA:473,11
DA:474,11
DA:475,11
DA:477,6
DA:478,6
DA:479,6
DA:481,0
DA:482,0
DA:483,0
DA:484,0
DA:485,0
DA:486,0
DA:487,0
DA:489,37
DA:491,37
DA:493,37
DA:494,0
DA:500,0
DA:501,37
DA:503,37
DA:504,37
DA:511,37
DA:513,37
DA:515,0
DA:517,0
DA:519,0
DA:520,0
DA:521,0
DA:522,0
DA:525,0
DA:527,0
DA:529,0
DA:531,0
DA:533,0
DA:534,0
DA:535,0
DA:539,0
DA:541,0
DA:543,0
DA:545,0
DA:546,0
DA:547,0
DA:548,0
DA:549,0
DA:552,0
DA:553,0
DA:555,0
DA:557,0
DA:558,0
DA:559,0
DA:560,0
DA:561,0
DA:564,0
DA:566,0
DA:568,105
DA:569,105
DA:570,105
DA:572,4
DA:573,4
DA:574,4
DA:579,18
DA:581,18
DA:583,18
DA:584,1
DA:585,17
DA:587,17
DA:589,17
DA:590,17
DA:592,17
DA:594,17
DA:595,17
DA:596,17
DA:597,17
DA:598,17
DA:600,17
DA:602,18
DA:604,0
DA:605,0
DA:606,0
DA:607,0
DA:609,0
DA:611,0
DA:613,0
DA:614,0
DA:616,0
DA:617,0
DA:618,0
DA:620,0
DA:622,0
DA:623,0
DA:624,0
DA:626,0
DA:627,0
DA:629,0
DA:631,0
DA:633,0
DA:634,0
DA:636,0
DA:637,0
DA:638,0
DA:640,0
DA:642,0
DA:644,31
DA:645,31
DA:646,31
DA:647,31
DA:648,31
DA:650,31
DA:651,31
DA:652,31
DA:653,31
DA:654,31
DA:656,30
DA:657,0
DA:658,30
DA:660,30
DA:661,1
DA:662,29
DA:664,29
DA:666,29
DA:668,31
DA:670,9
DA:671,9
DA:672,9
DA:673,9
DA:674,9
DA:675,9
DA:676,9
DA:678,9
DA:680,9
DA:681,9
DA:682,9
DA:683,9
DA:685,9
DA:686,0
DA:687,9
DA:689,9
DA:691,9
DA:693,9
DA:697,2
DA:698,2
DA:699,2
DA:700,2
DA:702,2
DA:703,2
DA:704,2
DA:706,2
DA:707,2
DA:709,2
DA:710,0
DA:711,2
DA:713,2
DA:715,2
DA:716,2
DA:718,2
DA:720,2
DA:722,2
DA:726,3
DA:728,3
DA:729,3
DA:731,3
DA:733,3
DA:735,3
DA:737,3
DA:741,6
DA:743,6
DA:744,0
DA:745,6
DA:747,6
DA:748,6
DA:749,0
DA:750,0
DA:751,0
DA:752,0
DA:753,0
DA:754,6
DA:756,6
DA:757,6
DA:758,0
DA:759,6
DA:761,6
DA:763,6
DA:764,6
DA:766,6
DA:768,6
DA:770,2
DA:772,2
DA:773,0
DA:774,2
DA:776,2
DA:778,2
DA:781,1
DA:782,1
DA:783,1
DA:784,0
DA:785,1
DA:786,1
DA:789,1
DA:791,1
DA:792,1
DA:794,0
DA:799,2
DA:801,2
DA:803,2
DA:805,2
DA:806,2
DA:807,2
DA:809,2
DA:810,2
DA:811,2
DA:812,2
DA:814,2
DA:816,0
DA:818,1
DA:820,0
DA:822,1
DA:824,0
DA:828,2
DA:830,2
DA:832,1
DA:833,1
DA:834,1
DA:835,1
DA:836,1
DA:838,1
DA:839,1
DA:840,1
DA:841,1
DA:843,1
DA:845,1
DA:847,5
DA:849,5
DA:850,0
DA:851,5
DA:853,5
DA:855,5
DA:859,5
DA:860,1
DA:861,2
DA:862,2
DA:865,5
DA:866,5
DA:867,5
DA:868,8
DA:869,5
DA:871,5
DA:875,1
DA:876,0
DA:877,0
DA:878,0
DA:879,0
DA:880,0
DA:881,1
DA:883,1
DA:884,1
DA:885,1
DA:887,1
DA:888,1
DA:889,1
DA:891,1
DA:897,2
DA:898,0
DA:899,0
DA:900,0
DA:901,0
DA:902,0
DA:903,2
DA:905,2
DA:906,2
DA:907,2
DA:909,2
DA:910,2
DA:912,2
DA:913,2
DA:914,2
DA:916,2
DA:922,2
DA:923,0
DA:924,0
DA:925,0
DA:926,0
DA:927,0
DA:928,2
DA:930,2
DA:931,2
DA:932,2
DA:934,2
DA:935,2
DA:937,2
DA:938,2
DA:939,2
DA:941,2
DA:949,0
DA:951,0
DA:953,0
DA:954,0
DA:956,0
DA:959,0
DA:961,0
DA:962,0
DA:964,0
DA:967,0
DA:969,0
DA:970,0
DA:972,0
DA:979,5
DA:981,4
DA:982,4
DA:983,4
DA:984,4
DA:985,4
DA:986,4
DA:987,4
DA:989,4
DA:990,4
DA:991,4
DA:992,4
DA:993,4
DA:994,4
DA:995,4
DA:996,4
DA:998,4
DA:1000,4
DA:1002,1
DA:1003,1
DA:1004,1
DA:1005,1
DA:1006,1
DA:1008,1
DA:1010,2
DA:1012,2
DA:1013,2
DA:1014,2
DA:1015,2
DA:1017,2
DA:1019,2
DA:1020,2
DA:1024,1
DA:1026,1
DA:1028,2
DA:1029,2
DA:1030,2
DA:1031,2
DA:1032,2
DA:1034,2
DA:1036,4
DA:1037,2
DA:1038,2
DA:1039,2
DA:1040,2
DA:1041,2
DA:1042,2
DA:1043,2
DA:1044,2
DA:1045,2
DA:1048,4
DA:1055,4
DA:1056,4
DA:1057,4
DA:1058,4
DA:1059,4
DA:1062,0
DA:1066,0
DA:1070,0
DA:1073,0
DA:1075,0
DA:1078,4
DA:1081,0
DA:1085,0
DA:1089,0
DA:1092,0
DA:1094,0
DA:1096,4
DA:1098,0
DA:1099,0
DA:1102,2
DA:1103,2
DA:1106,1
DA:1107,1
DA:1110,1
DA:1111,1
DA:1116,4
DA:1118,0
DA:1124,2
DA:1126,2
DA:1128,2
DA:1130,2
DA:1131,1
DA:1132,1
DA:1134,1
DA:1136,1
DA:1137,0
DA:1138,1
DA:1140,1
DA:1142,2
DA:1144,6
DA:1145,6
DA:1146,6
DA:1148,4
DA:1149,4
DA:1150,4
DA:1152,0
DA:1153,0
DA:1154,0
DA:1156,7
DA:1159,7
DA:1160,7
DA:1161,8
DA:1162,5
DA:1163,3
DA:1164,8
DA:1165,7
DA:1167,7
DA:1169,0
DA:1171,0
DA:1172,0
DA:1173,0
DA:1175,0
DA:1181,8
DA:1182,8
DA:1183,8
DA:1184,8
DA:1185,8
DA:1186,8
DA:1188,8
DA:1190,8
DA:1191,0
DA:1192,8
DA:1194,8
DA:1195,8
DA:1197,8
DA:1199,8
DA:1201,8
DA:1202,8
DA:1204,5
DA:1206,5
DA:1208,3
DA:1210,2
DA:1214,5
DA:1216,1
DA:1217,1
DA:1218,1
DA:1220,0
DA:1222,0
DA:1224,0
DA:1226,0
DA:1230,0
DA:1232,8
DA:1233,8
DA:1234,8
DA:1235,8
DA:1236,8
DA:1237,8
DA:1239,8
DA:1241,8
DA:1242,0
DA:1243,8
DA:1245,8
DA:1246,8
DA:1248,8
DA:1250,8
DA:1252,8
DA:1253,8
DA:1255,7
DA:1257,7
DA:1259,5
DA:1261,2
DA:1265,7
DA:1267,1
DA:1268,1
DA:1269,1
DA:1271,1
DA:1274,1
DA:1275,1
DA:1276,2
DA:1277,1
DA:1278,1
DA:1279,2
DA:1280,1
DA:1282,1
DA:1284,1
DA:1285,1
DA:1286,1
DA:1287,1
DA:1288,1
DA:1289,1
DA:1291,1
DA:1294,1
DA:1295,1
DA:1296,2
DA:1297,2
DA:1298,0
DA:1299,2
DA:1300,2
DA:1301,2
DA:1302,2
DA:1303,2
DA:1304,1
DA:1305,2
DA:1306,2
DA:1307,1
DA:1309,1
DA:1311,14
DA:1312,14
DA:1313,14
DA:1314,14
DA:1315,14
DA:1316,14
DA:1318,14
DA:1320,14
DA:1321,0
DA:1322,14
DA:1324,14
DA:1325,14
DA:1327,14
DA:1329,14
DA:1331,14
DA:1333,14
DA:1335,17
DA:1337,17
DA:1339,15
DA:1341,2
DA:1345,17
DA:1347,1
DA:1348,1
DA:1349,1
DA:1351,1
DA:1354,1
DA:1355,1
DA:1356,2
DA:1357,1
DA:1358,1
DA:1360,1
DA:1361,2
DA:1362,1
DA:1364,1
DA:1366,0
DA:1369,0
DA:1370,0
DA:1371,0
DA:1372,0
DA:1373,0
DA:1374,0
DA:1375,0
DA:1377,0
DA:1379,0
DA:1380,0
DA:1381,0
DA:1386,0
DA:1388,0
DA:1389,0
DA:1390,0
DA:1392,0
DA:1394,108
DA:1396,108
DA:1398,108
DA:1400,108
DA:1402,0
DA:1406,108
DA:1408,1
DA:1410,1
DA:1412,1
DA:1414,1
DA:1416,0
DA:1420,1
DA:1422,2
DA:1424,2
DA:1426,2
DA:1428,2
DA:1430,0
DA:1434,2
DA:1436,2
DA:1437,2
DA:1438,2
DA:1439,2
DA:1441,2
DA:1443,2
DA:1444,2
DA:1445,0
DA:1448,2
DA:1450,2
DA:1452,2
DA:1454,2
DA:1455,2
DA:1457,2
DA:1458,0
DA:1459,2
DA:1461,2
DA:1462,2
DA:1464,2
DA:1465,0
DA:1466,2
DA:1468,2
DA:1469,0
DA:1470,0
DA:1471,0
DA:1472,2
DA:1474,2
DA:1476,2
DA:1478,2
DA:1480,2
DA:1481,2
DA:1482,2
DA:1483,2
DA:1485,1
DA:1486,1
DA:1487,1
DA:1489,2
DA:1490,2
DA:1491,2
DA:1493,11
DA:1494,11
DA:1495,11
DA:1497,4
DA:1498,4
DA:1499,4
DA:1501,5
DA:1502,5
DA:1503,5
DA:1504,5
DA:1505,5
DA:1506,5
DA:1507,0
DA:1508,5
DA:1510,5
DA:1512,1
DA:1514,1
DA:1517,4
DA:1518,4
DA:1519,4
DA:1520,4
DA:1521,4
DA:1526,5
DA:1528,0
DA:1529,0
DA:1530,0
DA:1532,2
DA:1533,2
DA:1534,2
DA:1535,2
DA:1536,2
DA:1538,2
DA:1539,2
DA:1540,2
DA:1541,2
DA:1542,2
DA:1543,2
DA:1547,0
DA:1548,0
DA:1549,0
DA:1553,35
DA:1554,35
DA:1555,35
DA:1556,35
DA:1558,0
DA:1559,0
DA:1560,0
DA:1562,0
DA:1563,0
DA:1564,0
DA:1566,35
DA:1567,35
DA:1568,35
DA:1570,35
DA:1571,35
DA:1572,35
DA:1574,140
DA:1576,140
DA:1578,140
DA:1579,140
DA:1580,140
DA:1581,238
DA:1582,140
DA:1583,140
DA:1585,140
DA:1586,91
DA:1587,91
DA:1588,91
DA:1589,91
DA:1590,91
DA:1591,91
DA:1592,91
DA:1593,91
DA:1594,91
DA:1595,91
DA:1596,91
DA:1597,91
DA:1599,238
DA:1600,238
DA:1601,55
DA:1602,55
DA:1603,55
DA:1604,55
DA:1605,55
DA:1606,55
DA:1607,55
DA:1608,55
DA:1609,55
DA:1610,55
DA:1611,55
DA:1612,55
DA:1613,183
DA:1616,140
DA:1618,140
DA:1620,84
DA:1621,84
DA:1622,84
DA:1624,13
DA:1625,13
DA:1626,13
DA:1628,13
DA:1629,13
DA:1630,13
DA:1632,3
DA:1634,3
DA:1636,3
DA:1638,2
DA:1639,1
DA:1640,1
DA:1642,2
DA:1644,2
DA:1645,2
DA:1646,2
DA:1648,2
DA:1649,2
DA:1650,0
DA:1651,2
DA:1655,3
DA:1657,3
DA:1659,3
BRF:0
BRH:0
LF:1031
LH:783
end_of_record
SF:/Users/samcolak/Source Code/rust/distdb/distdb/serverlib/src/engine/database/catalog_test.rs
FN:628,_RNvNtNtNtNtCsksqSOdb1Dlf_9serverlib6engine8database7catalog5tests21catalog_path_for_test
FN:103,_RNvNtNtNtNtCsksqSOdb1Dlf_9serverlib6engine8database7catalog5testss_29lock_moves_to_sync_then_ready
FN:19,_RNvNtNtNtNtCsksqSOdb1Dlf_9serverlib6engine8database7catalog5testss_31empty_database_name_is_rejected
FN:138,_RNvNtNtNtNtCsksqSOdb1Dlf_9serverlib6engine8database7catalog5testss_34create_table_moves_load_sync_ready
FN:188,_RNvNtNtNtNtCsksqSOdb1Dlf_9serverlib6engine8database7catalog5testss_34schema_can_be_retrieved_from_table
FN:150,_RNvNtNtNtNtCsksqSOdb1Dlf_9serverlib6engine8database7catalog5testss_35drop_table_removes_registered_table
FN:89,_RNvNtNtNtNtCsksqSOdb1Dlf_9serverlib6engine8database7catalog5testss_37catalog_and_table_start_in_load_state
FN:121,_RNvNtNtNtNtCsksqSOdb1Dlf_9serverlib6engine8database7catalog5testss_37lock_to_ready_is_valid_for_abort_path
FN:966,_RNvNtNtNtNtCsksqSOdb1Dlf_9serverlib6engine8database7catalog5testss_39drop_helpers_remove_sql_backed_entities
FN:1012,_RNvNtNtNtNtCsksqSOdb1Dlf_9serverlib6engine8database7catalog5testss_39drop_object_removes_entity_from_catalog
FN:165,_RNvNtNtNtNtCsksqSOdb1Dlf_9serverlib6engine8database7catalog5testss_39write_requires_database_and_table_ready
FN:350,_RNvNtNtNtNtCsksqSOdb1Dlf_9serverlib6engine8database7catalog5testss_40begin_schema_change_records_locked_state
FN:62,_RNvNtNtNtNtCsksqSOdb1Dlf_9serverlib6engine8database7catalog5testss_40duplicate_table_registration_is_rejected
FN:75,_RNvNtNtNtNtCsksqSOdb1Dlf_9serverlib6engine8database7catalog5testss_42cross_type_entity_id_collision_is_rejected
FN:1240,_RNvNtNtNtNtCsksqSOdb1Dlf_9serverlib6engine8database7catalog5testss_42object_accessor_routes_all_supported_types
FN:1131,_RNvNtNtNtNtCsksqSOdb1Dlf_9serverlib6engine8database7catalog5testss_43entity_aspects_expose_status_and_wal_stream
FN:1408,_RNvNtNtNtNtCsksqSOdb1Dlf_9serverlib6engine8database7catalog5testss_44index_in_table_scopes_lookup_to_target_table
FN:1322,_RNvNtNtNtNtCsksqSOdb1Dlf_9serverlib6engine8database7catalog5testss_44object_by_index_returns_untyped_object_by_id
FN:202,_RNvNtNtNtNtCsksqSOdb1Dlf_9serverlib6engine8database7catalog5testss_44schema_change_payload_updates_existing_table
FN:633,_RNvNtNtNtNtCsksqSOdb1Dlf_9serverlib6engine8database7catalog5testss_45schema_replay_uses_latest_transaction_payload
FN:805,_RNvNtNtNtNtCsksqSOdb1Dlf_9serverlib6engine8database7catalog5testss_46table_lifecycle_replay_honors_create_then_drop
FN:8,_RNvNtNtNtNtCsksqSOdb1Dlf_9serverlib6engine8database7catalog5testss_47create_empty_catalog_from_name_sets_obscured_id
FN:25,_RNvNtNtNtNtCsksqSOdb1Dlf_9serverlib6engine8database7catalog5testss_48at_rest_encryption_key_reference_can_be_set_once
FN:377,_RNvNtNtNtNtCsksqSOdb1Dlf_9serverlib6engine8database7catalog5testss_49schema_change_tx_commit_aborts_when_persist_fails
FN:600,_RNvNtNtNtNtCsksqSOdb1Dlf_9serverlib6engine8database7catalog5testss_50temporary_tables_are_not_persisted_in_catalog_file
FN:444,_RNvNtNtNtNtCsksqSOdb1Dlf_9serverlib6engine8database7catalog5testss_51transition_schema_change_phase_updates_active_state
FN:869,_RNvNtNtNtNtCsksqSOdb1Dlf_9serverlib6engine8database7catalog5testss_51trigger_and_procedure_registration_and_updates_work
FN:731,_RNvNtNtNtNtCsksqSOdb1Dlf_9serverlib6engine8database7catalog5testss_52metadata_and_sql_definition_replay_builds_view_state
FN:1061,_RNvNtNtNtNtCsksqSOdb1Dlf_9serverlib6engine8database7catalog5testss_52schema_epoch_advances_for_object_lifecycle_mutations
FN:477,_RNvNtNtNtNtCsksqSOdb1Dlf_9serverlib6engine8database7catalog5testss_52transition_schema_change_phase_rejects_invalid_order
FN:1188,_RNvNtNtNtNtCsksqSOdb1Dlf_9serverlib6engine8database7catalog5testss_53normalize_loaded_entities_rekeys_and_rebuilds_indexes
FN:503,_RNvNtNtNtNtCsksqSOdb1Dlf_9serverlib6engine8database7catalog5testss_54checkpoint_schema_change_progress_updates_active_state
FN:1088,_RNvNtNtNtNtCsksqSOdb1Dlf_9serverlib6engine8database7catalog5testss_54schema_epoch_advances_for_schema_change_and_sql_update
FN:541,_RNvNtNtNtNtCsksqSOdb1Dlf_9serverlib6engine8database7catalog5testss_55active_schema_change_state_is_persisted_in_catalog_file
FN:46,_RNvNtNtNtNtCsksqSOdb1Dlf_9serverlib6engine8database7catalog5testss_55at_rest_encryption_key_reference_is_immutable_after_set
FN:313,_RNvNtNtNtNtCsksqSOdb1Dlf_9serverlib6engine8database7catalog5testss_55begin_schema_change_rejects_when_another_is_in_progress
FN:409,_RNvNtNtNtNtCsksqSOdb1Dlf_9serverlib6engine8database7catalog5testss_56schema_change_commit_releases_global_schema_change_guard
FN:227,_RNvNtNtNtNtCsksqSOdb1Dlf_9serverlib6engine8database7catalog5testss_56schema_change_tx_commit_applies_schema_and_returns_ready
FN:933,_RNvNtNtNtNtCsksqSOdb1Dlf_9serverlib6engine8database7catalog5testss_63stored_procedure_caches_if_else_end_plan_on_register_and_update
FN:277,_RNvNtNtNtNtCsksqSOdb1Dlf_9serverlib6engine8database7catalog5testss_67schema_change_tx_abort_returns_table_to_ready_without_schema_change
FN:399,_RNCNvNtNtNtNtCsksqSOdb1Dlf_9serverlib6engine8database7catalog5testss_49schema_change_tx_commit_aborts_when_persist_fails0Bb_
FN:435,_RNCNvNtNtNtNtCsksqSOdb1Dlf_9serverlib6engine8database7catalog5testss_56schema_change_commit_releases_global_schema_change_guard0Bb_
FN:258,_RNCNvNtNtNtNtCsksqSOdb1Dlf_9serverlib6engine8database7catalog5testss_56schema_change_tx_commit_applies_schema_and_returns_ready0Bb_
FN:268,_RNCNvNtNtNtNtCsksqSOdb1Dlf_9serverlib6engine8database7catalog5testss_56schema_change_tx_commit_applies_schema_and_returns_readys_0Bb_
FNDA:2,_RNvNtNtNtNtCsksqSOdb1Dlf_9serverlib6engine8database7catalog5tests21catalog_path_for_test
FNDA:1,_RNvNtNtNtNtCsksqSOdb1Dlf_9serverlib6engine8database7catalog5testss_29lock_moves_to_sync_then_ready
FNDA:1,_RNvNtNtNtNtCsksqSOdb1Dlf_9serverlib6engine8database7catalog5testss_31empty_database_name_is_rejected
FNDA:1,_RNvNtNtNtNtCsksqSOdb1Dlf_9serverlib6engine8database7catalog5testss_34create_table_moves_load_sync_ready
FNDA:1,_RNvNtNtNtNtCsksqSOdb1Dlf_9serverlib6engine8database7catalog5testss_34schema_can_be_retrieved_from_table
FNDA:1,_RNvNtNtNtNtCsksqSOdb1Dlf_9serverlib6engine8database7catalog5testss_35drop_table_removes_registered_table
FNDA:1,_RNvNtNtNtNtCsksqSOdb1Dlf_9serverlib6engine8database7catalog5testss_37catalog_and_table_start_in_load_state
FNDA:1,_RNvNtNtNtNtCsksqSOdb1Dlf_9serverlib6engine8database7catalog5testss_37lock_to_ready_is_valid_for_abort_path
FNDA:1,_RNvNtNtNtNtCsksqSOdb1Dlf_9serverlib6engine8database7catalog5testss_39drop_helpers_remove_sql_backed_entities
FNDA:1,_RNvNtNtNtNtCsksqSOdb1Dlf_9serverlib6engine8database7catalog5testss_39drop_object_removes_entity_from_catalog
FNDA:1,_RNvNtNtNtNtCsksqSOdb1Dlf_9serverlib6engine8database7catalog5testss_39write_requires_database_and_table_ready
FNDA:1,_RNvNtNtNtNtCsksqSOdb1Dlf_9serverlib6engine8database7catalog5testss_40begin_schema_change_records_locked_state
FNDA:1,_RNvNtNtNtNtCsksqSOdb1Dlf_9serverlib6engine8database7catalog5testss_40duplicate_table_registration_is_rejected
FNDA:1,_RNvNtNtNtNtCsksqSOdb1Dlf_9serverlib6engine8database7catalog5testss_42cross_type_entity_id_collision_is_rejected
FNDA:1,_RNvNtNtNtNtCsksqSOdb1Dlf_9serverlib6engine8database7catalog5testss_42object_accessor_routes_all_supported_types
FNDA:1,_RNvNtNtNtNtCsksqSOdb1Dlf_9serverlib6engine8database7catalog5testss_43entity_aspects_expose_status_and_wal_stream
FNDA:1,_RNvNtNtNtNtCsksqSOdb1Dlf_9serverlib6engine8database7catalog5testss_44index_in_table_scopes_lookup_to_target_table
FNDA:1,_RNvNtNtNtNtCsksqSOdb1Dlf_9serverlib6engine8database7catalog5testss_44object_by_index_returns_untyped_object_by_id
FNDA:1,_RNvNtNtNtNtCsksqSOdb1Dlf_9serverlib6engine8database7catalog5testss_44schema_change_payload_updates_existing_table
FNDA:1,_RNvNtNtNtNtCsksqSOdb1Dlf_9serverlib6engine8database7catalog5testss_45schema_replay_uses_latest_transaction_payload
FNDA:1,_RNvNtNtNtNtCsksqSOdb1Dlf_9serverlib6engine8database7catalog5testss_46table_lifecycle_replay_honors_create_then_drop
FNDA:1,_RNvNtNtNtNtCsksqSOdb1Dlf_9serverlib6engine8database7catalog5testss_47create_empty_catalog_from_name_sets_obscured_id
FNDA:1,_RNvNtNtNtNtCsksqSOdb1Dlf_9serverlib6engine8database7catalog5testss_48at_rest_encryption_key_reference_can_be_set_once
FNDA:1,_RNvNtNtNtNtCsksqSOdb1Dlf_9serverlib6engine8database7catalog5testss_49schema_change_tx_commit_aborts_when_persist_fails
FNDA:1,_RNvNtNtNtNtCsksqSOdb1Dlf_9serverlib6engine8database7catalog5testss_50temporary_tables_are_not_persisted_in_catalog_file
FNDA:1,_RNvNtNtNtNtCsksqSOdb1Dlf_9serverlib6engine8database7catalog5testss_51transition_schema_change_phase_updates_active_state
FNDA:1,_RNvNtNtNtNtCsksqSOdb1Dlf_9serverlib6engine8database7catalog5testss_51trigger_and_procedure_registration_and_updates_work
FNDA:1,_RNvNtNtNtNtCsksqSOdb1Dlf_9serverlib6engine8database7catalog5testss_52metadata_and_sql_definition_replay_builds_view_state
FNDA:1,_RNvNtNtNtNtCsksqSOdb1Dlf_9serverlib6engine8database7catalog5testss_52schema_epoch_advances_for_object_lifecycle_mutations
FNDA:1,_RNvNtNtNtNtCsksqSOdb1Dlf_9serverlib6engine8database7catalog5testss_52transition_schema_change_phase_rejects_invalid_order
FNDA:1,_RNvNtNtNtNtCsksqSOdb1Dlf_9serverlib6engine8database7catalog5testss_53normalize_loaded_entities_rekeys_and_rebuilds_indexes
FNDA:1,_RNvNtNtNtNtCsksqSOdb1Dlf_9serverlib6engine8database7catalog5testss_54checkpoint_schema_change_progress_updates_active_state
FNDA:1,_RNvNtNtNtNtCsksqSOdb1Dlf_9serverlib6engine8database7catalog5testss_54schema_epoch_advances_for_schema_change_and_sql_update
FNDA:1,_RNvNtNtNtNtCsksqSOdb1Dlf_9serverlib6engine8database7catalog5testss_55active_schema_change_state_is_persisted_in_catalog_file
FNDA:1,_RNvNtNtNtNtCsksqSOdb1Dlf_9serverlib6engine8database7catalog5testss_55at_rest_encryption_key_reference_is_immutable_after_set
FNDA:1,_RNvNtNtNtNtCsksqSOdb1Dlf_9serverlib6engine8database7catalog5testss_55begin_schema_change_rejects_when_another_is_in_progress
FNDA:1,_RNvNtNtNtNtCsksqSOdb1Dlf_9serverlib6engine8database7catalog5testss_56schema_change_commit_releases_global_schema_change_guard
FNDA:1,_RNvNtNtNtNtCsksqSOdb1Dlf_9serverlib6engine8database7catalog5testss_56schema_change_tx_commit_applies_schema_and_returns_ready
FNDA:1,_RNvNtNtNtNtCsksqSOdb1Dlf_9serverlib6engine8database7catalog5testss_63stored_procedure_caches_if_else_end_plan_on_register_and_update
FNDA:1,_RNvNtNtNtNtCsksqSOdb1Dlf_9serverlib6engine8database7catalog5testss_67schema_change_tx_abort_returns_table_to_ready_without_schema_change
FNDA:1,_RNCNvNtNtNtNtCsksqSOdb1Dlf_9serverlib6engine8database7catalog5testss_49schema_change_tx_commit_aborts_when_persist_fails0Bb_
FNDA:1,_RNCNvNtNtNtNtCsksqSOdb1Dlf_9serverlib6engine8database7catalog5testss_56schema_change_commit_releases_global_schema_change_guard0Bb_
FNDA:1,_RNCNvNtNtNtNtCsksqSOdb1Dlf_9serverlib6engine8database7catalog5testss_56schema_change_tx_commit_applies_schema_and_returns_ready0Bb_
FNDA:1,_RNCNvNtNtNtNtCsksqSOdb1Dlf_9serverlib6engine8database7catalog5testss_56schema_change_tx_commit_applies_schema_and_returns_readys_0Bb_
FNF:44
FNH:44
DA:8,1
DA:9,1
DA:10,1
DA:12,1
DA:13,1
DA:14,1
DA:15,1
DA:16,1
DA:19,1
DA:20,1
DA:21,1
DA:22,1
DA:25,1
DA:26,1
DA:27,1
DA:29,1
DA:30,1
DA:31,1
DA:33,1
DA:34,1
DA:35,1
DA:37,1
DA:38,1
DA:39,1
DA:42,1
DA:43,1
DA:46,1
DA:47,1
DA:48,1
DA:50,1
DA:51,1
DA:52,1
DA:54,1
DA:55,1
DA:56,1
DA:59,1
DA:62,1
DA:63,1
DA:64,1
DA:65,1
DA:67,1
DA:68,1
DA:70,1
DA:71,1
DA:72,1
DA:75,1
DA:76,1
DA:77,1
DA:79,1
DA:80,1
DA:81,1
DA:83,1
DA:85,1
DA:86,1
DA:89,1
DA:90,1
DA:91,1
DA:92,1
DA:94,1
DA:95,1
DA:96,1
DA:98,1
DA:99,1
DA:100,1
DA:103,1
DA:104,1
DA:105,1
DA:107,1
DA:108,1
DA:109,1
DA:110,1
DA:111,1
DA:112,1
DA:113,1
DA:114,1
DA:115,1
DA:117,1
DA:118,1
DA:121,1
DA:124,1
DA:125,1
DA:127,1
DA:128,1
DA:129,1
DA:130,1
DA:131,1
DA:132,1
DA:134,1
DA:135,1
DA:138,1
DA:139,1
DA:140,1
DA:142,1
DA:143,1
DA:144,1
DA:146,1
DA:147,1
DA:150,1
DA:151,1
DA:152,1
DA:154,1
DA:155,1
DA:156,1
DA:158,1
DA:159,1
DA:160,1
DA:161,1
DA:162,1
DA:165,1
DA:166,1
DA:167,1
DA:169,1
DA:170,1
DA:171,1
DA:173,1
DA:174,1
DA:176,1
DA:177,1
DA:178,1
DA:179,1
DA:180,1
DA:181,1
DA:183,1
DA:184,1
DA:185,1
DA:188,1
DA:189,1
DA:190,1
DA:191,1
DA:193,1
DA:194,1
DA:195,1
DA:197,1
DA:198,1
DA:199,1
DA:202,1
DA:203,1
DA:204,1
DA:205,1
DA:206,1
DA:207,1
DA:209,1
DA:210,1
DA:211,1
DA:212,1
DA:213,1
DA:214,1
DA:215,1
DA:216,1
DA:218,1
DA:219,1
DA:220,1
DA:222,1
DA:223,1
DA:224,1
DA:227,1
DA:228,1
DA:229,1
DA:230,1
DA:231,1
DA:232,1
DA:233,1
DA:234,1
DA:235,1
DA:236,1
DA:237,1
DA:238,1
DA:240,1
DA:241,1
DA:242,1
DA:244,1
DA:246,1
DA:247,1
DA:248,1
DA:249,1
DA:250,1
DA:251,1
DA:252,1
DA:253,1
DA:254,1
DA:255,1
DA:257,1
DA:258,1
DA:259,1
DA:260,1
DA:261,1
DA:262,1
DA:264,1
DA:265,1
DA:266,1
DA:267,1
DA:268,1
DA:269,1
DA:270,1
DA:271,1
DA:274,1
DA:277,1
DA:278,1
DA:279,1
DA:281,1
DA:282,1
DA:283,1
DA:284,1
DA:285,1
DA:286,1
DA:287,1
DA:288,1
DA:289,1
DA:290,1
DA:291,1
DA:292,1
DA:293,1
DA:294,1
DA:295,1
DA:296,1
DA:297,1
DA:298,1
DA:300,1
DA:301,1
DA:302,1
DA:303,1
DA:304,1
DA:306,1
DA:308,1
DA:309,1
DA:310,1
DA:313,1
DA:314,1
DA:315,1
DA:317,1
DA:318,1
DA:319,1
DA:320,1
DA:321,1
DA:322,1
DA:323,1
DA:325,1
DA:326,1
DA:327,1
DA:328,1
DA:329,1
DA:330,1
DA:332,1
DA:333,1
DA:334,1
DA:336,1
DA:337,1
DA:338,1
DA:342,1
DA:343,1
DA:345,1
DA:346,1
DA:347,1
DA:350,1
DA:351,1
DA:352,1
DA:354,1
DA:355,1
DA:356,1
DA:357,1
DA:358,1
DA:359,1
DA:360,1
DA:361,1
DA:362,1
DA:364,1
DA:365,1
DA:366,1
DA:368,1
DA:369,1
DA:370,1
DA:371,1
DA:372,1
DA:373,1
DA:374,1
DA:377,1
DA:378,1
DA:379,1
DA:381,1
DA:383,1
DA:384,1
DA:385,1
DA:387,1
DA:388,1
DA:389,1
DA:391,1
DA:392,1
DA:393,1
DA:395,1
DA:396,1
DA:397,1
DA:399,1
DA:400,1
DA:401,1
DA:403,1
DA:404,1
DA:405,1
DA:406,1
DA:409,1
DA:410,1
DA:411,1
DA:413,1
DA:415,1
DA:416,1
DA:417,1
DA:419,1
DA:420,1
DA:421,1
DA:423,1
DA:424,1
DA:425,1
DA:427,1
DA:428,1
DA:429,1
DA:431,1
DA:432,1
DA:433,1
DA:435,1
DA:436,1
DA:438,1
DA:440,1
DA:441,1
DA:444,1
DA:445,1
DA:446,1
DA:448,1
DA:449,1
DA:450,1
DA:452,1
DA:453,1
DA:454,1
DA:456,1
DA:457,1
DA:458,1
DA:460,1
DA:461,1
DA:462,1
DA:464,1
DA:465,1
DA:466,1
DA:468,1
DA:469,1
DA:470,1
DA:471,1
DA:473,1
DA:474,1
DA:477,1
DA:478,1
DA:479,1
DA:481,1
DA:482,1
DA:483,1
DA:484,1
DA:485,1
DA:486,1
DA:487,1
DA:488,1
DA:489,1
DA:491,1
DA:492,1
DA:493,1
DA:495,1
DA:496,1
DA:497,1
DA:500,1
DA:503,1
DA:504,1
DA:505,1
DA:507,1
DA:508,1
DA:509,1
DA:511,1
DA:512,1
DA:513,1
DA:515,1
DA:516,1
DA:517,1
DA:519,1
DA:520,1
DA:521,1
DA:523,1
DA:524,1
DA:525,1
DA:527,1
DA:528,1
DA:529,1
DA:531,1
DA:532,1
DA:533,1
DA:535,1
DA:536,1
DA:537,1
DA:538,1
DA:541,1
DA:542,1
DA:543,1
DA:545,1
DA:546,1
DA:547,1
DA:549,1
DA:550,1
DA:551,1
DA:553,1
DA:554,1
DA:555,1
DA:557,1
DA:558,1
DA:559,1
DA:561,1
DA:562,1
DA:563,1
DA:565,1
DA:566,1
DA:567,1
DA:569,1
DA:571,1
DA:573,1
DA:576,1
DA:578,1
DA:579,1
DA:580,1
DA:582,1
DA:583,1
DA:585,1
DA:586,1
DA:587,1
DA:589,1
DA:590,1
DA:591,1
DA:592,1
DA:593,1
DA:594,1
DA:596,1
DA:597,1
DA:600,1
DA:601,1
DA:602,1
DA:604,1
DA:605,1
DA:606,1
DA:608,1
DA:609,1
DA:611,1
DA:614,1
DA:616,1
DA:617,1
DA:618,1
DA:620,1
DA:621,1
DA:623,1
DA:625,1
DA:626,1
DA:628,2
DA:629,2
DA:630,2
DA:633,1
DA:634,1
DA:635,1
DA:637,1
DA:638,1
DA:639,1
DA:641,1
DA:642,1
DA:644,1
DA:645,1
DA:646,1
DA:647,1
DA:648,1
DA:649,1
DA:650,1
DA:651,1
DA:652,1
DA:654,1
DA:655,1
DA:656,1
DA:657,1
DA:658,1
DA:659,1
DA:660,1
DA:662,1
DA:663,1
DA:664,1
DA:665,1
DA:666,1
DA:667,1
DA:669,1
DA:670,1
DA:671,1
DA:672,1
DA:673,1
DA:676,1
DA:678,1
DA:679,1
DA:680,1
DA:681,1
DA:682,1
DA:683,1
DA:684,1
DA:685,1
DA:686,1
DA:688,1
DA:689,1
DA:690,1
DA:691,1
DA:692,1
DA:693,1
DA:694,1
DA:696,1
DA:697,1
DA:698,1
DA:699,1
DA:700,1
DA:701,1
DA:703,1
DA:704,1
DA:705,1
DA:706,1
DA:707,1
DA:710,1
DA:712,1
DA:713,1
DA:714,1
DA:716,1
DA:717,1
DA:718,1
DA:720,1
DA:721,1
DA:722,1
DA:723,1
DA:724,1
DA:725,1
DA:726,1
DA:727,1
DA:728,1
DA:731,1
DA:732,1
DA:733,1
DA:735,1
DA:736,1
DA:739,1
DA:741,1
DA:743,1
DA:744,1
DA:746,1
DA:747,1
DA:748,1
DA:749,1
DA:750,1
DA:751,1
DA:753,1
DA:754,1
DA:755,1
DA:756,1
DA:757,1
DA:758,1
DA:760,1
DA:761,1
DA:762,1
DA:763,1
DA:764,1
DA:767,1
DA:769,1
DA:770,1
DA:771,1
DA:772,1
DA:773,1
DA:774,1
DA:775,1
DA:776,1
DA:778,1
DA:779,1
DA:780,1
DA:781,1
DA:782,1
DA:783,1
DA:785,1
DA:786,1
DA:787,1
DA:790,1
DA:792,1
DA:793,1
DA:794,1
DA:795,1
DA:797,1
DA:798,1
DA:799,1
DA:800,1
DA:801,1
DA:802,1
DA:805,1
DA:806,1
DA:807,1
DA:809,1
DA:810,1
DA:812,1
DA:813,1
DA:814,1
DA:815,1
DA:816,1
DA:817,1
DA:818,1
DA:820,1
DA:821,1
DA:822,1
DA:823,1
DA:824,1
DA:825,1
DA:827,1
DA:828,1
DA:829,1
DA:830,1
DA:831,1
DA:834,1
DA:836,1
DA:837,1
DA:838,1
DA:839,1
DA:840,1
DA:841,1
DA:842,1
DA:844,1
DA:845,1
DA:846,1
DA:847,1
DA:848,1
DA:849,1
DA:851,1
DA:852,1
DA:853,1
DA:854,1
DA:855,1
DA:858,1
DA:860,1
DA:861,1
DA:862,1
DA:864,1
DA:865,1
DA:866,1
DA:869,1
DA:870,1
DA:871,1
DA:873,1
DA:874,1
DA:877,1
DA:879,1
DA:881,1
DA:882,1
DA:885,1
DA:887,1
DA:889,1
DA:890,1
DA:892,1
DA:894,1
DA:896,1
DA:898,1
DA:899,1
DA:901,1
DA:903,1
DA:905,1
DA:907,1
DA:908,1
DA:910,1
DA:912,1
DA:914,1
DA:915,1
DA:916,1
DA:917,1
DA:918,1
DA:920,1
DA:921,1
DA:922,1
DA:923,1
DA:925,1
DA:926,1
DA:927,1
DA:928,1
DA:930,1
DA:933,1
DA:934,1
DA:935,1
DA:937,1
DA:938,1
DA:941,1
DA:943,1
DA:945,1
DA:946,1
DA:947,1
DA:948,1
DA:950,1
DA:951,1
DA:953,1
DA:955,1
DA:957,1
DA:959,1
DA:960,1
DA:961,1
DA:962,1
DA:963,1
DA:966,1
DA:967,1
DA:968,1
DA:970,1
DA:971,1
DA:974,1
DA:976,1
DA:978,1
DA:979,1
DA:982,1
DA:984,1
DA:986,1
DA:987,1
DA:990,1
DA:992,1
DA:994,1
DA:995,1
DA:996,1
DA:998,1
DA:999,1
DA:1000,1
DA:1002,1
DA:1003,1
DA:1004,1
DA:1006,1
DA:1007,1
DA:1008,1
DA:1009,1
DA:1012,1
DA:1013,1
DA:1014,1
DA:1016,1
DA:1017,1
DA:1018,1
DA:1019,1
DA:1020,1
DA:1023,1
DA:1025,1
DA:1026,1
DA:1027,1
DA:1030,1
DA:1032,1
DA:1033,1
DA:1034,1
DA:1037,1
DA:1039,1
DA:1041,1
DA:1042,1
DA:1043,1
DA:1044,1
DA:1045,1
DA:1046,1
DA:1047,1
DA:1048,1
DA:1049,1
DA:1050,1
DA:1051,1
DA:1052,1
DA:1054,1
DA:1055,1
DA:1056,1
DA:1057,1
DA:1058,1
DA:1061,1
DA:1062,1
DA:1063,1
DA:1065,1
DA:1067,1
DA:1068,1
DA:1069,1
DA:1070,1
DA:1072,1
DA:1073,1
DA:1076,1
DA:1078,1
DA:1079,1
DA:1081,1
DA:1082,1
DA:1083,1
DA:1084,1
DA:1085,1
DA:1088,1
DA:1089,1
DA:1090,1
DA:1092,1
DA:1093,1
DA:1094,1
DA:1095,1
DA:1097,1
DA:1098,1
DA:1099,1
DA:1100,1
DA:1101,1
DA:1102,1
DA:1103,1
DA:1104,1
DA:1105,1
DA:1107,1
DA:1109,1
DA:1110,1
DA:1113,1
DA:1115,1
DA:1117,1
DA:1118,1
DA:1119,1
DA:1121,1
DA:1123,1
DA:1125,1
DA:1127,1
DA:1128,1
DA:1131,1
DA:1132,1
DA:1133,1
DA:1135,1
DA:1136,1
DA:1137,1
DA:1139,1
DA:1140,1
DA:1143,1
DA:1145,1
DA:1147,1
DA:1148,1
DA:1149,1
DA:1150,1
DA:1151,1
DA:1153,1
DA:1155,1
DA:1156,1
DA:1157,1
DA:1158,1
DA:1159,1
DA:1160,1
DA:1161,1
DA:1162,1
DA:1164,1
DA:1165,1
DA:1166,1
DA:1167,1
DA:1168,1
DA:1169,1
DA:1170,1
DA:1171,1
DA:1173,1
DA:1175,1
DA:1176,1
DA:1177,1
DA:1179,1
DA:1181,1
DA:1182,1
DA:1183,1
DA:1185,1
DA:1188,1
DA:1189,1
DA:1190,1
DA:1192,1
DA:1193,1
DA:1194,1
DA:1195,1
DA:1196,1
DA:1197,1
DA:1198,1
DA:1199,1
DA:1200,1
DA:1202,1
DA:1203,1
DA:1204,1
DA:1206,1
DA:1207,1
DA:1208,1
DA:1209,1
DA:1210,1
DA:1211,1
DA:1212,1
DA:1213,1
DA:1215,1
DA:1216,1
DA:1217,0
DA:1220,1
DA:1222,1
DA:1223,1
DA:1224,1
DA:1226,1
DA:1227,1
DA:1228,1
DA:1229,1
DA:1230,1
DA:1231,1
DA:1232,1
DA:1233,1
DA:1234,1
DA:1235,1
DA:1236,1
DA:1237,1
DA:1240,1
DA:1241,1
DA:1242,1
DA:1244,1
DA:1245,1
DA:1246,1
DA:1247,1
DA:1248,1
DA:1249,1
DA:1250,1
DA:1251,1
DA:1252,1
DA:1254,1
DA:1255,1
DA:1256,1
DA:1257,1
DA:1258,1
DA:1259,1
DA:1260,1
DA:1261,1
DA:1262,1
DA:1263,1
DA:1264,1
DA:1266,1
DA:1267,1
DA:1268,1
DA:1271,1
DA:1273,1
DA:1274,1
DA:1275,1
DA:1278,1
DA:1280,1
DA:1282,1
DA:1283,1
DA:1287,1
DA:1288,1
DA:1292,1
DA:1293,1
DA:1297,1
DA:1298,1
DA:1302,1
DA:1303,1
DA:1307,1
DA:1308,1
DA:1309,1
DA:1310,1
DA:1311,1
DA:1312,1
DA:1313,1
DA:1315,1
DA:1316,1
DA:1319,1
DA:1322,1
DA:1323,1
DA:1324,1
DA:1326,1
DA:1327,1
DA:1328,1
DA:1329,1
DA:1330,1
DA:1331,1
DA:1332,1
DA:1333,1
DA:1334,1
DA:1336,1
DA:1337,1
DA:1338,1
DA:1340,1
DA:1341,1
DA:1342,1
DA:1344,1
DA:1345,1
DA:1346,1
DA:1347,1
DA:1348,1
DA:1350,1
DA:1352,1
DA:1353,1
DA:1356,1
DA:1357,1
DA:1360,1
DA:1361,1
DA:1365,1
DA:1366,1
DA:1369,1
DA:1371,1
DA:1373,1
DA:1374,1
DA:1377,1
DA:1379,1
DA:1381,1
DA:1382,1
DA:1386,1
DA:1387,1
DA:1391,1
DA:1392,1
DA:1393,1
DA:1394,1
DA:1395,1
DA:1396,1
DA:1397,1
DA:1399,1
DA:1400,1
DA:1404,1
DA:1405,1
DA:1408,1
DA:1409,1
DA:1410,1
DA:1412,1
DA:1413,1
DA:1414,1
DA:1415,1
DA:1416,1
DA:1417,1
DA:1418,1
DA:1419,1
DA:1420,1
DA:1422,1
DA:1423,1
DA:1424,1
DA:1425,1
DA:1426,1
DA:1427,1
DA:1429,1
DA:1430,1
DA:1431,1
DA:1432,1
DA:1433,1
DA:1434,1
DA:1435,1
DA:1437,1
DA:1438,1
DA:1439,1
BRF:0
BRH:0
LF:1028
LH:1027
end_of_record
SF:/Users/samcolak/Source Code/rust/distdb/distdb/serverlib/src/engine/database/entity/database_entity.rs
FN:36,_RNvXNtNtNtNtCsksqSOdb1Dlf_9serverlib6engine8database6entity15database_entityNtB2_14DatabaseEntityNtNtB4_6aspect20DatabaseEntityAspect4kind
FN:106,_RNvXNtNtNtNtCsksqSOdb1Dlf_9serverlib6engine8database6entity15database_entityNtB2_14DatabaseEntityNtNtB4_6aspect20DatabaseEntityAspect6schema
FN:76,_RNvXNtNtNtNtCsksqSOdb1Dlf_9serverlib6engine8database6entity15database_entityNtB2_14DatabaseEntityNtNtB4_6aspect20DatabaseEntityAspect8metadata
FN:46,_RNvXNtNtNtNtCsksqSOdb1Dlf_9serverlib6engine8database6entity15database_entityNtB2_14DatabaseEntityNtNtB4_6aspect20DatabaseEntityAspect11storage_key
FN:56,_RNvXNtNtNtNtCsksqSOdb1Dlf_9serverlib6engine8database6entity15database_entityNtB2_14DatabaseEntityNtNtB4_6aspect20DatabaseEntityAspect13set_entity_id
FN:86,_RNvXNtNtNtNtCsksqSOdb1Dlf_9serverlib6engine8database6entity15database_entityNtB2_14DatabaseEntityNtNtB4_6aspect20DatabaseEntityAspect13wal_stream_id
FN:96,_RNvXNtNtNtNtCsksqSOdb1Dlf_9serverlib6engine8database6entity15database_entityNtB2_14DatabaseEntityNtNtB4_6aspect20DatabaseEntityAspect15schema_revision
FN:116,_RNvXNtNtNtNtCsksqSOdb1Dlf_9serverlib6engine8database6entity15database_entityNtB2_14DatabaseEntityNtNtB4_6aspect20DatabaseEntityAspect18normalize_in_place
FN:26,_RNvXNtNtNtNtCsksqSOdb1Dlf_9serverlib6engine8database6entity15database_entityNtB2_14DatabaseEntityNtNtB4_6aspect20DatabaseEntityAspect4name
FN:66,_RNvXNtNtNtNtCsksqSOdb1Dlf_9serverlib6engine8database6entity15database_entityNtB2_14DatabaseEntityNtNtB4_6aspect20DatabaseEntityAspect6status
FNDA:0,_RNvXNtNtNtNtCsksqSOdb1Dlf_9serverlib6engine8database6entity15database_entityNtB2_14DatabaseEntityNtNtB4_6aspect20DatabaseEntityAspect4kind
FNDA:0,_RNvXNtNtNtNtCsksqSOdb1Dlf_9serverlib6engine8database6entity15database_entityNtB2_14DatabaseEntityNtNtB4_6aspect20DatabaseEntityAspect6schema
FNDA:0,_RNvXNtNtNtNtCsksqSOdb1Dlf_9serverlib6engine8database6entity15database_entityNtB2_14DatabaseEntityNtNtB4_6aspect20DatabaseEntityAspect8metadata
FNDA:11,_RNvXNtNtNtNtCsksqSOdb1Dlf_9serverlib6engine8database6entity15database_entityNtB2_14DatabaseEntityNtNtB4_6aspect20DatabaseEntityAspect11storage_key
FNDA:1,_RNvXNtNtNtNtCsksqSOdb1Dlf_9serverlib6engine8database6entity15database_entityNtB2_14DatabaseEntityNtNtB4_6aspect20DatabaseEntityAspect13set_entity_id
FNDA:57,_RNvXNtNtNtNtCsksqSOdb1Dlf_9serverlib6engine8database6entity15database_entityNtB2_14DatabaseEntityNtNtB4_6aspect20DatabaseEntityAspect13wal_stream_id
FNDA:2,_RNvXNtNtNtNtCsksqSOdb1Dlf_9serverlib6engine8database6entity15database_entityNtB2_14DatabaseEntityNtNtB4_6aspect20DatabaseEntityAspect15schema_revision
FNDA:2,_RNvXNtNtNtNtCsksqSOdb1Dlf_9serverlib6engine8database6entity15database_entityNtB2_14DatabaseEntityNtNtB4_6aspect20DatabaseEntityAspect18normalize_in_place
FNDA:709,_RNvXNtNtNtNtCsksqSOdb1Dlf_9serverlib6engine8database6entity15database_entityNtB2_14DatabaseEntityNtNtB4_6aspect20DatabaseEntityAspect4name
FNDA:1,_RNvXNtNtNtNtCsksqSOdb1Dlf_9serverlib6engine8database6entity15database_entityNtB2_14DatabaseEntityNtNtB4_6aspect20DatabaseEntityAspect6status
FNF:10
FNH:7
DA:26,709
DA:27,709
DA:28,592
DA:29,30
DA:30,22
DA:31,22
DA:32,43
DA:34,709
DA:36,0
DA:37,0
DA:38,0
DA:39,0
DA:40,0
DA:41,0
DA:42,0
DA:44,0
DA:46,11
DA:47,11
DA:48,7
DA:49,2
DA:50,2
DA:51,0
DA:52,0
DA:54,11
DA:56,1
DA:57,1
DA:58,1
DA:59,0
DA:60,0
DA:61,0
DA:62,0
DA:64,1
DA:66,1
DA:67,1
DA:68,1
DA:69,0
DA:70,0
DA:71,0
DA:72,0
DA:74,1
DA:76,0
DA:77,0
DA:78,0
DA:79,0
DA:80,0
DA:81,0
DA:82,0
DA:84,0
DA:86,57
DA:87,57
DA:88,55
DA:89,1
DA:90,1
DA:91,0
DA:92,0
DA:94,57
DA:96,2
DA:97,2
DA:98,1
DA:99,1
DA:100,0
DA:101,0
DA:102,0
DA:104,2
DA:106,0
DA:107,0
DA:108,0
DA:109,0
DA:110,0
DA:111,0
DA:112,0
DA:114,0
DA:116,2
DA:117,2
DA:118,2
DA:119,0
DA:120,0
DA:121,0
DA:122,0
DA:124,2
BRF:0
BRH:0
LF:80
LH:37
end_of_record
SF:/Users/samcolak/Source Code/rust/distdb/distdb/serverlib/src/engine/database/entity/kind_test.rs
FN:11,_RNvNtNtNtNtNtCsksqSOdb1Dlf_9serverlib6engine8database6entity4kind9kind_tests_19entity_kind_is_copy
FN:5,_RNvNtNtNtNtNtCsksqSOdb1Dlf_9serverlib6engine8database6entity4kind9kind_tests_20entity_kind_equality
FNDA:1,_RNvNtNtNtNtNtCsksqSOdb1Dlf_9serverlib6engine8database6entity4kind9kind_tests_19entity_kind_is_copy
FNDA:1,_RNvNtNtNtNtNtCsksqSOdb1Dlf_9serverlib6engine8database6entity4kind9kind_tests_20entity_kind_equality
FNF:2
FNH:2
DA:5,1
DA:6,1
DA:7,1
DA:8,1
DA:11,1
DA:12,1
DA:13,1
DA:14,1
DA:15,1
BRF:0
BRH:0
LF:9
LH:9
end_of_record
SF:/Users/samcolak/Source Code/rust/distdb/distdb/serverlib/src/engine/database/entity/metadata.rs
FN:13,_RINvMNtNtNtNtCsksqSOdb1Dlf_9serverlib6engine8database6entity8metadataNtB3_14EntityMetadata12with_creatorReEBb_
FN:18,_RNvMNtNtNtNtCsksqSOdb1Dlf_9serverlib6engine8database6entity8metadataNtB2_14EntityMetadata15with_created_at
FNDA:2,_RINvMNtNtNtNtCsksqSOdb1Dlf_9serverlib6engine8database6entity8metadataNtB3_14EntityMetadata12with_creatorReEBb_
FNDA:1,_RNvMNtNtNtNtCsksqSOdb1Dlf_9serverlib6engine8database6entity8metadataNtB2_14EntityMetadata15with_created_at
FNF:2
FNH:2
DA:13,2
DA:14,2
DA:15,2
DA:16,2
DA:18,1
DA:19,1
DA:20,1
DA:21,1
BRF:0
BRH:0
LF:8
LH:8
end_of_record
SF:/Users/samcolak/Source Code/rust/distdb/distdb/serverlib/src/engine/database/entity/object_ref.rs
FN:22,_RNvMNtNtNtNtCsksqSOdb1Dlf_9serverlib6engine8database6entity10object_refNtB2_17DatabaseObjectRef11object_type
FNDA:0,_RNvMNtNtNtNtCsksqSOdb1Dlf_9serverlib6engine8database6entity10object_refNtB2_17DatabaseObjectRef11object_type
FNF:1
FNH:0
DA:22,0
DA:23,0
DA:24,0
DA:25,0
DA:26,0
DA:27,0
DA:28,0
DA:29,0
DA:31,0
BRF:0
BRH:0
LF:9
LH:0
end_of_record
SF:/Users/samcolak/Source Code/rust/distdb/distdb/serverlib/src/engine/database/entity/object_type_test.rs
FN:11,_RNvNtNtNtNtNtCsksqSOdb1Dlf_9serverlib6engine8database6entity11object_type16object_type_tests_19object_type_is_copy
FN:5,_RNvNtNtNtNtNtCsksqSOdb1Dlf_9serverlib6engine8database6entity11object_type16object_type_tests_20object_type_equality
FNDA:1,_RNvNtNtNtNtNtCsksqSOdb1Dlf_9serverlib6engine8database6entity11object_type16object_type_tests_19object_type_is_copy
FNDA:1,_RNvNtNtNtNtNtCsksqSOdb1Dlf_9serverlib6engine8database6entity11object_type16object_type_tests_20object_type_equality
FNF:2
FNH:2
DA:5,1
DA:6,1
DA:7,1
DA:8,1
DA:11,1
DA:12,1
DA:13,1
DA:14,1
DA:15,1
BRF:0
BRH:0
LF:9
LH:9
end_of_record
SF:/Users/samcolak/Source Code/rust/distdb/distdb/serverlib/src/engine/database/entity/payload.rs
FN:17,_RNvMNtNtNtNtCsksqSOdb1Dlf_9serverlib6engine8database6entity7payloadNtB2_21EntityMetadataPayload6decode
FN:13,_RNvMNtNtNtNtCsksqSOdb1Dlf_9serverlib6engine8database6entity7payloadNtB2_21EntityMetadataPayload6encode
FNDA:0,_RNvMNtNtNtNtCsksqSOdb1Dlf_9serverlib6engine8database6entity7payloadNtB2_21EntityMetadataPayload6decode
FNDA:1,_RNvMNtNtNtNtCsksqSOdb1Dlf_9serverlib6engine8database6entity7payloadNtB2_21EntityMetadataPayload6encode
FNF:2
FNH:1
DA:13,1
DA:14,1
DA:15,1
DA:17,0
DA:18,0
DA:19,0
BRF:0
BRH:0
LF:6
LH:3
end_of_record
SF:/Users/samcolak/Source Code/rust/distdb/distdb/serverlib/src/engine/database/error.rs
FN:39,_RNvXNtNtNtCsksqSOdb1Dlf_9serverlib6engine8database5errorNtB2_13DatabaseErrorNtNtCsfOyy81DYK0U_4core3fmt7Display3fmt
FNDA:0,_RNvXNtNtNtCsksqSOdb1Dlf_9serverlib6engine8database5errorNtB2_13DatabaseErrorNtNtCsfOyy81DYK0U_4core3fmt7Display3fmt
FNF:1
FNH:0
DA:39,0
DA:41,0
DA:43,0
DA:44,0
DA:45,0
DA:46,0
DA:47,0
DA:48,0
DA:49,0
DA:50,0
DA:51,0
DA:52,0
DA:53,0
DA:54,0
DA:55,0
DA:56,0
DA:57,0
DA:58,0
DA:59,0
DA:60,0
DA:61,0
DA:62,0
DA:63,0
DA:64,0
DA:65,0
DA:66,0
DA:67,0
DA:68,0
DA:69,0
DA:70,0
DA:71,0
DA:72,0
DA:73,0
DA:77,0
BRF:0
BRH:0
LF:34
LH:0
end_of_record
SF:/Users/samcolak/Source Code/rust/distdb/distdb/serverlib/src/engine/database/field_def.rs
FN:87,_RNvMNtNtNtCsksqSOdb1Dlf_9serverlib6engine8database9field_defNtB2_8FieldDef11sql_comment
FN:91,_RNvMNtNtNtCsksqSOdb1Dlf_9serverlib6engine8database9field_defNtB2_8FieldDef13sql_collation
FN:20,_RNvMNtNtNtCsksqSOdb1Dlf_9serverlib6engine8database9field_defNtB2_8FieldDef13to_sql_string
FN:95,_RNvMNtNtNtCsksqSOdb1Dlf_9serverlib6engine8database9field_defNtB2_8FieldDef17sql_character_set
FN:99,_RNvMNtNtNtCsksqSOdb1Dlf_9serverlib6engine8database9field_defNtB2_8FieldDef20is_auto_incrementing
FN:77,_RNvMNtNtNtCsksqSOdb1Dlf_9serverlib6engine8database9field_defNtB2_8FieldDef20sql_type_declaration
FN:59,_RNvMNtNtNtCsksqSOdb1Dlf_9serverlib6engine8database9field_defNtB2_8FieldDef23sql_signedness_modifier
FN:81,_RNCNvMNtNtNtCsksqSOdb1Dlf_9serverlib6engine8database9field_defNtB4_8FieldDef20sql_type_declaration0Ba_
FN:83,_RNCNvMNtNtNtCsksqSOdb1Dlf_9serverlib6engine8database9field_defNtB4_8FieldDef20sql_type_declarations_0Ba_
FN:64,_RNCNvMNtNtNtCsksqSOdb1Dlf_9serverlib6engine8database9field_defNtB4_8FieldDef23sql_signedness_modifier0Ba_
FNDA:9,_RNvMNtNtNtCsksqSOdb1Dlf_9serverlib6engine8database9field_defNtB2_8FieldDef11sql_comment
FNDA:9,_RNvMNtNtNtCsksqSOdb1Dlf_9serverlib6engine8database9field_defNtB2_8FieldDef13sql_collation
FNDA:9,_RNvMNtNtNtCsksqSOdb1Dlf_9serverlib6engine8database9field_defNtB2_8FieldDef13to_sql_string
FNDA:9,_RNvMNtNtNtCsksqSOdb1Dlf_9serverlib6engine8database9field_defNtB2_8FieldDef17sql_character_set
FNDA:9,_RNvMNtNtNtCsksqSOdb1Dlf_9serverlib6engine8database9field_defNtB2_8FieldDef20is_auto_incrementing
FNDA:18,_RNvMNtNtNtCsksqSOdb1Dlf_9serverlib6engine8database9field_defNtB2_8FieldDef20sql_type_declaration
FNDA:9,_RNvMNtNtNtCsksqSOdb1Dlf_9serverlib6engine8database9field_defNtB2_8FieldDef23sql_signedness_modifier
FNDA:12,_RNCNvMNtNtNtCsksqSOdb1Dlf_9serverlib6engine8database9field_defNtB4_8FieldDef20sql_type_declaration0Ba_
FNDA:6,_RNCNvMNtNtNtCsksqSOdb1Dlf_9serverlib6engine8database9field_defNtB4_8FieldDef20sql_type_declarations_0Ba_
FNDA:11,_RNCNvMNtNtNtCsksqSOdb1Dlf_9serverlib6engine8database9field_defNtB4_8FieldDef23sql_signedness_modifier0Ba_
FNF:10
FNH:10
DA:20,9
DA:22,9
DA:24,9
DA:25,2
DA:26,2
DA:27,7
DA:29,9
DA:30,9
DA:31,9
DA:33,9
DA:34,0
DA:35,9
DA:37,9
DA:38,2
DA:39,2
DA:40,7
DA:42,9
DA:43,3
DA:44,3
DA:45,6
DA:47,9
DA:48,0
DA:49,9
DA:51,9
DA:52,2
DA:53,7
DA:55,9
DA:57,9
DA:59,9
DA:61,9
DA:62,9
DA:63,9
DA:64,11
DA:66,2
DA:67,7
DA:69,7
DA:70,1
DA:71,1
DA:72,5
DA:75,9
DA:77,18
DA:79,18
DA:80,18
DA:81,18
DA:82,18
DA:83,18
DA:85,18
DA:87,9
DA:88,9
DA:89,9
DA:91,9
DA:92,9
DA:93,9
DA:95,9
DA:96,9
DA:97,9
DA:99,9
DA:101,9
DA:102,9
DA:103,9
DA:104,9
DA:106,9
BRF:0
BRH:0
LF:65
LH:63
end_of_record
SF:/Users/samcolak/Source Code/rust/distdb/distdb/serverlib/src/engine/database/field_def_test.rs
FN:4,_RNvNtNtNtNtCsksqSOdb1Dlf_9serverlib6engine8database9field_def5tests15field_with_type
FN:17,_RNvNtNtNtNtCsksqSOdb1Dlf_9serverlib6engine8database9field_def5testss_41to_sql_string_marks_signed_integer_fields
FN:25,_RNvNtNtNtNtCsksqSOdb1Dlf_9serverlib6engine8database9field_def5testss_43to_sql_string_marks_unsigned_integer_fields
FN:41,_RNvNtNtNtNtCsksqSOdb1Dlf_9serverlib6engine8database9field_def5testss_46to_sql_string_includes_collation_from_metadata
FN:56,_RNvNtNtNtNtCsksqSOdb1Dlf_9serverlib6engine8database9field_def5testss_50to_sql_string_includes_character_set_from_metadata
FN:87,_RNvNtNtNtNtCsksqSOdb1Dlf_9serverlib6engine8database9field_def5testss_51to_sql_string_includes_auto_increment_from_metadata
FN:33,_RNvNtNtNtNtCsksqSOdb1Dlf_9serverlib6engine8database9field_def5testss_53to_sql_string_skips_signedness_for_non_integer_fields
FN:118,_RNvNtNtNtNtCsksqSOdb1Dlf_9serverlib6engine8database9field_def5testss_56to_sql_string_uses_original_sql_type_for_temporal_fields
FN:71,_RNvNtNtNtNtCsksqSOdb1Dlf_9serverlib6engine8database9field_def5testss_59to_sql_string_includes_character_set_and_collation_together
FN:102,_RNvNtNtNtNtCsksqSOdb1Dlf_9serverlib6engine8database9field_def5testss_60to_sql_string_includes_collation_and_auto_increment_together
FNDA:9,_RNvNtNtNtNtCsksqSOdb1Dlf_9serverlib6engine8database9field_def5tests15field_with_type
FNDA:1,_RNvNtNtNtNtCsksqSOdb1Dlf_9serverlib6engine8database9field_def5testss_41to_sql_string_marks_signed_integer_fields
FNDA:1,_RNvNtNtNtNtCsksqSOdb1Dlf_9serverlib6engine8database9field_def5testss_43to_sql_string_marks_unsigned_integer_fields
FNDA:1,_RNvNtNtNtNtCsksqSOdb1Dlf_9serverlib6engine8database9field_def5testss_46to_sql_string_includes_collation_from_metadata
FNDA:1,_RNvNtNtNtNtCsksqSOdb1Dlf_9serverlib6engine8database9field_def5testss_50to_sql_string_includes_character_set_from_metadata
FNDA:1,_RNvNtNtNtNtCsksqSOdb1Dlf_9serverlib6engine8database9field_def5testss_51to_sql_string_includes_auto_increment_from_metadata
FNDA:1,_RNvNtNtNtNtCsksqSOdb1Dlf_9serverlib6engine8database9field_def5testss_53to_sql_string_skips_signedness_for_non_integer_fields
FNDA:1,_RNvNtNtNtNtCsksqSOdb1Dlf_9serverlib6engine8database9field_def5testss_56to_sql_string_uses_original_sql_type_for_temporal_fields
FNDA:1,_RNvNtNtNtNtCsksqSOdb1Dlf_9serverlib6engine8database9field_def5testss_59to_sql_string_includes_character_set_and_collation_together
FNDA:1,_RNvNtNtNtNtCsksqSOdb1Dlf_9serverlib6engine8database9field_def5testss_60to_sql_string_includes_collation_and_auto_increment_together
FNF:10
FNH:10
DA:4,9
DA:5,9
DA:6,9
DA:7,9
DA:8,9
DA:9,9
DA:10,9
DA:11,9
DA:12,9
DA:13,9
DA:14,9
DA:17,1
DA:18,1
DA:19,1
DA:22,1
DA:25,1
DA:26,1
DA:27,1
DA:30,1
DA:33,1
DA:34,1
DA:35,1
DA:38,1
DA:41,1
DA:42,1
DA:43,1
DA:44,1
DA:45,1
DA:46,1
DA:47,1
DA:49,1
DA:50,1
DA:53,1
DA:56,1
DA:57,1
DA:58,1
DA:59,1
DA:60,1
DA:61,1
DA:62,1
DA:64,1
DA:65,1
DA:68,1
DA:71,1
DA:72,1
DA:73,1
DA:74,1
DA:75,1
DA:76,1
DA:77,1
DA:78,1
DA:80,1
DA:81,1
DA:84,1
DA:87,1
DA:88,1
DA:89,1
DA:90,1
DA:91,1
DA:92,1
DA:93,1
DA:95,1
DA:96,1
DA:99,1
DA:102,1
DA:103,1
DA:104,1
DA:105,1
DA:106,1
DA:107,1
DA:108,1
DA:109,1
DA:111,1
DA:112,1
DA:115,1
DA:118,1
DA:119,1
DA:120,1
DA:121,1
DA:122,1
DA:123,1
DA:125,1
DA:126,1
BRF:0
BRH:0
LF:83
LH:83
end_of_record
SF:/Users/samcolak/Source Code/rust/distdb/distdb/serverlib/src/engine/database/id.rs
FN:9,_RNvMNtNtNtCsksqSOdb1Dlf_9serverlib6engine8database2idNtB2_10DatabaseId18from_database_name
FNDA:116,_RNvMNtNtNtCsksqSOdb1Dlf_9serverlib6engine8database2idNtB2_10DatabaseId18from_database_name
FNF:1
FNH:1
DA:9,116
DA:11,116
DA:13,116
DA:14,1
DA:15,115
DA:17,115
DA:19,116
BRF:0
BRH:0
LF:7
LH:7
end_of_record
SF:/Users/samcolak/Source Code/rust/distdb/distdb/serverlib/src/engine/database/id_test.rs
FN:4,_RNvNtNtNtNtCsksqSOdb1Dlf_9serverlib6engine8database2id5testss_44database_id_is_obscured_from_normalized_name
FNDA:1,_RNvNtNtNtNtCsksqSOdb1Dlf_9serverlib6engine8database2id5testss_44database_id_is_obscured_from_normalized_name
FNF:1
FNH:1
DA:4,1
DA:5,1
DA:6,1
DA:8,1
DA:9,1
DA:10,1
BRF:0
BRH:0
LF:6
LH:6
end_of_record
SF:/Users/samcolak/Source Code/rust/distdb/distdb/serverlib/src/engine/database/inbuilt/advanced/bin.rs
FN:16,_RNvXNtNtNtNtNtCsksqSOdb1Dlf_9serverlib6engine8database7inbuilt8advanced3binNtB2_10BinCommandNtNtB6_7command20InbuiltServerCommand4name
FN:20,_RNvXNtNtNtNtNtCsksqSOdb1Dlf_9serverlib6engine8database7inbuilt8advanced3binNtB2_10BinCommandNtNtB6_7command20InbuiltServerCommand8evaluate
FNDA:1,_RNvXNtNtNtNtNtCsksqSOdb1Dlf_9serverlib6engine8database7inbuilt8advanced3binNtB2_10BinCommandNtNtB6_7command20InbuiltServerCommand4name
FNDA:1,_RNvXNtNtNtNtNtCsksqSOdb1Dlf_9serverlib6engine8database7inbuilt8advanced3binNtB2_10BinCommandNtNtB6_7command20InbuiltServerCommand8evaluate
FNF:2
FNH:2
DA:16,1
DA:17,1
DA:18,1
DA:20,1
DA:22,1
DA:24,1
DA:26,1
DA:27,0
DA:30,1
DA:32,1
BRF:0
BRH:0
LF:10
LH:9
end_of_record
SF:/Users/samcolak/Source Code/rust/distdb/distdb/serverlib/src/engine/database/inbuilt/advanced/binary.rs
FN:16,_RNvXNtNtNtNtNtCsksqSOdb1Dlf_9serverlib6engine8database7inbuilt8advanced6binaryNtB2_13BinaryCommandNtNtB6_7command20InbuiltServerCommand4name
FN:20,_RNvXNtNtNtNtNtCsksqSOdb1Dlf_9serverlib6engine8database7inbuilt8advanced6binaryNtB2_13BinaryCommandNtNtB6_7command20InbuiltServerCommand8evaluate
FNDA:1,_RNvXNtNtNtNtNtCsksqSOdb1Dlf_9serverlib6engine8database7inbuilt8advanced6binaryNtB2_13BinaryCommandNtNtB6_7command20InbuiltServerCommand4name
FNDA:1,_RNvXNtNtNtNtNtCsksqSOdb1Dlf_9serverlib6engine8database7inbuilt8advanced6binaryNtB2_13BinaryCommandNtNtB6_7command20InbuiltServerCommand8evaluate
FNF:2
FNH:2
DA:16,1
DA:17,1
DA:18,1
DA:20,1
DA:22,1
DA:24,1
DA:26,1
DA:28,1
BRF:0
BRH:0
LF:8
LH:8
end_of_record
SF:/Users/samcolak/Source Code/rust/distdb/distdb/serverlib/src/engine/database/inbuilt/advanced/case.rs
FN:16,_RNvXNtNtNtNtNtCsksqSOdb1Dlf_9serverlib6engine8database7inbuilt8advanced4caseNtB2_11CaseCommandNtNtB6_7command20InbuiltServerCommand4name
FN:20,_RNvXNtNtNtNtNtCsksqSOdb1Dlf_9serverlib6engine8database7inbuilt8advanced4caseNtB2_11CaseCommandNtNtB6_7command20InbuiltServerCommand8evaluate
FNDA:1,_RNvXNtNtNtNtNtCsksqSOdb1Dlf_9serverlib6engine8database7inbuilt8advanced4caseNtB2_11CaseCommandNtNtB6_7command20InbuiltServerCommand4name
FNDA:1,_RNvXNtNtNtNtNtCsksqSOdb1Dlf_9serverlib6engine8database7inbuilt8advanced4caseNtB2_11CaseCommandNtNtB6_7command20InbuiltServerCommand8evaluate
FNF:2
FNH:2
DA:16,1
DA:17,1
DA:18,1
DA:20,1
DA:22,1
DA:24,1
DA:26,1
DA:28,1
DA:30,1
DA:31,0
DA:32,0
DA:35,1
DA:36,1
DA:37,0
DA:39,0
DA:43,0
DA:44,0
DA:45,0
DA:47,0
DA:49,1
BRF:0
BRH:0
LF:20
LH:12
end_of_record
SF:/Users/samcolak/Source Code/rust/distdb/distdb/serverlib/src/engine/database/inbuilt/advanced/cast.rs
FN:16,_RNvXNtNtNtNtNtCsksqSOdb1Dlf_9serverlib6engine8database7inbuilt8advanced4castNtB2_11CastCommandNtNtB6_7command20InbuiltServerCommand4name
FN:20,_RNvXNtNtNtNtNtCsksqSOdb1Dlf_9serverlib6engine8database7inbuilt8advanced4castNtB2_11CastCommandNtNtB6_7command20InbuiltServerCommand8evaluate
FNDA:1,_RNvXNtNtNtNtNtCsksqSOdb1Dlf_9serverlib6engine8database7inbuilt8advanced4castNtB2_11CastCommandNtNtB6_7command20InbuiltServerCommand4name
FNDA:1,_RNvXNtNtNtNtNtCsksqSOdb1Dlf_9serverlib6engine8database7inbuilt8advanced4castNtB2_11CastCommandNtNtB6_7command20InbuiltServerCommand8evaluate
FNF:2
FNH:2
DA:16,1
DA:17,1
DA:18,1
DA:20,1
DA:22,1
DA:25,1
DA:27,1
DA:29,1
BRF:0
BRH:0
LF:8
LH:8
end_of_record
SF:/Users/samcolak/Source Code/rust/distdb/distdb/serverlib/src/engine/database/inbuilt/advanced/coalesce.rs
FN:16,_RNvXNtNtNtNtNtCsksqSOdb1Dlf_9serverlib6engine8database7inbuilt8advanced8coalesceNtB2_15CoalesceCommandNtNtB6_7command20InbuiltServerCommand4name
FN:20,_RNvXNtNtNtNtNtCsksqSOdb1Dlf_9serverlib6engine8database7inbuilt8advanced8coalesceNtB2_15CoalesceCommandNtNtB6_7command20InbuiltServerCommand8evaluate
FNDA:0,_RNvXNtNtNtNtNtCsksqSOdb1Dlf_9serverlib6engine8database7inbuilt8advanced8coalesceNtB2_15CoalesceCommandNtNtB6_7command20InbuiltServerCommand4name
FNDA:1,_RNvXNtNtNtNtNtCsksqSOdb1Dlf_9serverlib6engine8database7inbuilt8advanced8coalesceNtB2_15CoalesceCommandNtNtB6_7command20InbuiltServerCommand8evaluate
FNF:2
FNH:1
DA:16,0
DA:17,0
DA:18,0
DA:20,1
DA:22,1
DA:24,3
DA:25,3
DA:26,1
DA:27,2
DA:30,0
DA:32,1
BRF:0
BRH:0
LF:11
LH:7
end_of_record
SF:/Users/samcolak/Source Code/rust/distdb/distdb/serverlib/src/engine/database/inbuilt/advanced/connection_id.rs
FN:16,_RNvXNtNtNtNtNtCsksqSOdb1Dlf_9serverlib6engine8database7inbuilt8advanced13connection_idNtB2_19ConnectionIdCommandNtNtB6_7command20InbuiltServerCommand4name
FN:20,_RNvXNtNtNtNtNtCsksqSOdb1Dlf_9serverlib6engine8database7inbuilt8advanced13connection_idNtB2_19ConnectionIdCommandNtNtB6_7command20InbuiltServerCommand8evaluate
FNDA:1,_RNvXNtNtNtNtNtCsksqSOdb1Dlf_9serverlib6engine8database7inbuilt8advanced13connection_idNtB2_19ConnectionIdCommandNtNtB6_7command20InbuiltServerCommand4name
FNDA:1,_RNvXNtNtNtNtNtCsksqSOdb1Dlf_9serverlib6engine8database7inbuilt8advanced13connection_idNtB2_19ConnectionIdCommandNtNtB6_7command20InbuiltServerCommand8evaluate
FNF:2
FNH:2
DA:16,1
DA:17,1
DA:18,1
DA:20,1
DA:22,1
DA:24,1
DA:26,1
DA:28,1
BRF:0
BRH:0
LF:8
LH:8
end_of_record
SF:/Users/samcolak/Source Code/rust/distdb/distdb/serverlib/src/engine/database/inbuilt/advanced/conv.rs
FN:24,_RNvXNtNtNtNtNtCsksqSOdb1Dlf_9serverlib6engine8database7inbuilt8advanced4convNtB2_11ConvCommandNtNtB6_7command20InbuiltServerCommand4name
FN:28,_RNvXNtNtNtNtNtCsksqSOdb1Dlf_9serverlib6engine8database7inbuilt8advanced4convNtB2_11ConvCommandNtNtB6_7command20InbuiltServerCommand8evaluate
FNDA:1,_RNvXNtNtNtNtNtCsksqSOdb1Dlf_9serverlib6engine8database7inbuilt8advanced4convNtB2_11ConvCommandNtNtB6_7command20InbuiltServerCommand4name
FNDA:1,_RNvXNtNtNtNtNtCsksqSOdb1Dlf_9serverlib6engine8database7inbuilt8advanced4convNtB2_11ConvCommandNtNtB6_7command20InbuiltServerCommand8evaluate
FNF:2
FNH:2
DA:24,1
DA:25,1
DA:26,1
DA:28,1
DA:30,1
DA:32,1
DA:34,1
DA:35,0
DA:38,1
DA:39,0
DA:42,1
DA:43,0
DA:46,1
DA:47,0
DA:50,1
DA:51,0
DA:54,1
DA:55,0
DA:58,1
DA:60,1
BRF:0
BRH:0
LF:20
LH:14
end_of_record
SF:/Users/samcolak/Source Code/rust/distdb/distdb/serverlib/src/engine/database/inbuilt/advanced/convert.rs
FN:16,_RNvXNtNtNtNtNtCsksqSOdb1Dlf_9serverlib6engine8database7inbuilt8advanced7convertNtB2_14ConvertCommandNtNtB6_7command20InbuiltServerCommand4name
FN:20,_RNvXNtNtNtNtNtCsksqSOdb1Dlf_9serverlib6engine8database7inbuilt8advanced7convertNtB2_14ConvertCommandNtNtB6_7command20InbuiltServerCommand8evaluate
FNDA:1,_RNvXNtNtNtNtNtCsksqSOdb1Dlf_9serverlib6engine8database7inbuilt8advanced7convertNtB2_14ConvertCommandNtNtB6_7command20InbuiltServerCommand4name
FNDA:1,_RNvXNtNtNtNtNtCsksqSOdb1Dlf_9serverlib6engine8database7inbuilt8advanced7convertNtB2_14ConvertCommandNtNtB6_7command20InbuiltServerCommand8evaluate
FNF:2
FNH:2
DA:16,1
DA:17,1
DA:18,1
DA:20,1
DA:22,1
DA:25,1
DA:27,1
DA:29,1
BRF:0
BRH:0
LF:8
LH:8
end_of_record
SF:/Users/samcolak/Source Code/rust/distdb/distdb/serverlib/src/engine/database/inbuilt/advanced/current_user.rs
FN:16,_RNvXNtNtNtNtNtCsksqSOdb1Dlf_9serverlib6engine8database7inbuilt8advanced12current_userNtB2_18CurrentUserCommandNtNtB6_7command20InbuiltServerCommand4name
FN:20,_RNvXNtNtNtNtNtCsksqSOdb1Dlf_9serverlib6engine8database7inbuilt8advanced12current_userNtB2_18CurrentUserCommandNtNtB6_7command20InbuiltServerCommand8evaluate
FNDA:1,_RNvXNtNtNtNtNtCsksqSOdb1Dlf_9serverlib6engine8database7inbuilt8advanced12current_userNtB2_18CurrentUserCommandNtNtB6_7command20InbuiltServerCommand4name
FNDA:1,_RNvXNtNtNtNtNtCsksqSOdb1Dlf_9serverlib6engine8database7inbuilt8advanced12current_userNtB2_18CurrentUserCommandNtNtB6_7command20InbuiltServerCommand8evaluate
FNF:2
FNH:2
DA:16,1
DA:17,1
DA:18,1
DA:20,1
DA:22,1
DA:24,1
DA:26,1
DA:28,1
BRF:0
BRH:0
LF:8
LH:8
end_of_record
SF:/Users/samcolak/Source Code/rust/distdb/distdb/serverlib/src/engine/database/inbuilt/advanced/database.rs
FN:16,_RNvXNtNtNtNtNtCsksqSOdb1Dlf_9serverlib6engine8database7inbuilt8advanced8databaseNtB2_15DatabaseCommandNtNtB6_7command20InbuiltServerCommand4name
FN:20,_RNvXNtNtNtNtNtCsksqSOdb1Dlf_9serverlib6engine8database7inbuilt8advanced8databaseNtB2_15DatabaseCommandNtNtB6_7command20InbuiltServerCommand8evaluate
FNDA:1,_RNvXNtNtNtNtNtCsksqSOdb1Dlf_9serverlib6engine8database7inbuilt8advanced8databaseNtB2_15DatabaseCommandNtNtB6_7command20InbuiltServerCommand4name
FNDA:1,_RNvXNtNtNtNtNtCsksqSOdb1Dlf_9serverlib6engine8database7inbuilt8advanced8databaseNtB2_15DatabaseCommandNtNtB6_7command20InbuiltServerCommand8evaluate
FNF:2
FNH:2
DA:16,1
DA:17,1
DA:18,1
DA:20,1
DA:22,1
DA:24,1
DA:26,1
DA:28,1
BRF:0
BRH:0
LF:8
LH:8
end_of_record
SF:/Users/samcolak/Source Code/rust/distdb/distdb/serverlib/src/engine/database/inbuilt/advanced/helpers.rs
FN:167,_RNvNtNtNtNtNtCsksqSOdb1Dlf_9serverlib6engine8database7inbuilt8advanced7helpers10parse_base
FN:143,_RNvNtNtNtNtNtCsksqSOdb1Dlf_9serverlib6engine8database7inbuilt8advanced7helpers15runtime_version
FN:80,_RNvNtNtNtNtNtCsksqSOdb1Dlf_9serverlib6engine8database7inbuilt8advanced7helpers16evaluate_i64_arg
FN:9,_RNvNtNtNtNtNtCsksqSOdb1Dlf_9serverlib6engine8database7inbuilt8advanced7helpers16expect_arg_count
FN:128,_RNvNtNtNtNtNtCsksqSOdb1Dlf_9serverlib6engine8database7inbuilt8advanced7helpers16runtime_database
FN:39,_RNvNtNtNtNtNtCsksqSOdb1Dlf_9serverlib6engine8database7inbuilt8advanced7helpers17usage_for_clarity
FN:70,_RNvNtNtNtNtNtCsksqSOdb1Dlf_9serverlib6engine8database7inbuilt8advanced7helpers18evaluate_bytes_arg
FN:75,_RNvNtNtNtNtNtCsksqSOdb1Dlf_9serverlib6engine8database7inbuilt8advanced7helpers19evaluate_string_arg
FN:121,_RNvNtNtNtNtNtCsksqSOdb1Dlf_9serverlib6engine8database7inbuilt8advanced7helpers19runtime_system_user
FN:179,_RNvNtNtNtNtNtCsksqSOdb1Dlf_9serverlib6engine8database7inbuilt8advanced7helpers20parse_signed_in_base
FN:106,_RNvNtNtNtNtNtCsksqSOdb1Dlf_9serverlib6engine8database7inbuilt8advanced7helpers20runtime_current_user
FN:114,_RNvNtNtNtNtNtCsksqSOdb1Dlf_9serverlib6engine8database7inbuilt8advanced7helpers20runtime_session_user
FN:199,_RNvNtNtNtNtNtCsksqSOdb1Dlf_9serverlib6engine8database7inbuilt8advanced7helpers21format_signed_in_base
FN:133,_RNvNtNtNtNtNtCsksqSOdb1Dlf_9serverlib6engine8database7inbuilt8advanced7helpers21runtime_connection_id
FN:138,_RNvNtNtNtNtNtCsksqSOdb1Dlf_9serverlib6engine8database7inbuilt8advanced7helpers22runtime_last_insert_id
FN:150,_RNvNtNtNtNtNtCsksqSOdb1Dlf_9serverlib6engine8database7inbuilt8advanced7helpers9is_truthy
FN:102,_RINvNtNtNtNtNtCsksqSOdb1Dlf_9serverlib6engine8database7inbuilt8advanced7helpers13number_resultlEBc_
FN:102,_RINvNtNtNtNtNtCsksqSOdb1Dlf_9serverlib6engine8database7inbuilt8advanced7helpers13number_resultxEBc_
FN:98,_RINvNtNtNtNtNtCsksqSOdb1Dlf_9serverlib6engine8database7inbuilt8advanced7helpers13string_resultNtNtCslDfkGcRelIg_5alloc6string6StringEBc_
FN:110,_RNCNCNvNtNtNtNtNtCsksqSOdb1Dlf_9serverlib6engine8database7inbuilt8advanced7helpers20runtime_current_user00Bf_
FN:147,_RNCNvNtNtNtNtNtCsksqSOdb1Dlf_9serverlib6engine8database7inbuilt8advanced7helpers15runtime_version0Bd_
FN:93,_RNCNvNtNtNtNtNtCsksqSOdb1Dlf_9serverlib6engine8database7inbuilt8advanced7helpers16evaluate_i64_arg0Bd_
FN:94,_RNCNvNtNtNtNtNtCsksqSOdb1Dlf_9serverlib6engine8database7inbuilt8advanced7helpers16evaluate_i64_args_0Bd_
FN:47,_RNCNvNtNtNtNtNtCsksqSOdb1Dlf_9serverlib6engine8database7inbuilt8advanced7helpers17usage_for_clarity0Bd_
FN:59,_RNCNvNtNtNtNtNtCsksqSOdb1Dlf_9serverlib6engine8database7inbuilt8advanced7helpers17usage_for_claritys_0Bd_
FN:77,_RNCNvNtNtNtNtNtCsksqSOdb1Dlf_9serverlib6engine8database7inbuilt8advanced7helpers19evaluate_string_arg0Bd_
FN:110,_RNCNvNtNtNtNtNtCsksqSOdb1Dlf_9serverlib6engine8database7inbuilt8advanced7helpers20runtime_current_user0Bd_
FN:111,_RNCNvNtNtNtNtNtCsksqSOdb1Dlf_9serverlib6engine8database7inbuilt8advanced7helpers20runtime_current_users_0Bd_
FNDA:2,_RNvNtNtNtNtNtCsksqSOdb1Dlf_9serverlib6engine8database7inbuilt8advanced7helpers10parse_base
FNDA:1,_RNvNtNtNtNtNtCsksqSOdb1Dlf_9serverlib6engine8database7inbuilt8advanced7helpers15runtime_version
FNDA:3,_RNvNtNtNtNtNtCsksqSOdb1Dlf_9serverlib6engine8database7inbuilt8advanced7helpers16evaluate_i64_arg
FNDA:18,_RNvNtNtNtNtNtCsksqSOdb1Dlf_9serverlib6engine8database7inbuilt8advanced7helpers16expect_arg_count
FNDA:1,_RNvNtNtNtNtNtCsksqSOdb1Dlf_9serverlib6engine8database7inbuilt8advanced7helpers16runtime_database
FNDA:0,_RNvNtNtNtNtNtCsksqSOdb1Dlf_9serverlib6engine8database7inbuilt8advanced7helpers17usage_for_clarity
FNDA:19,_RNvNtNtNtNtNtCsksqSOdb1Dlf_9serverlib6engine8database7inbuilt8advanced7helpers18evaluate_bytes_arg
FNDA:4,_RNvNtNtNtNtNtCsksqSOdb1Dlf_9serverlib6engine8database7inbuilt8advanced7helpers19evaluate_string_arg
FNDA:1,_RNvNtNtNtNtNtCsksqSOdb1Dlf_9serverlib6engine8database7inbuilt8advanced7helpers19runtime_system_user
FNDA:1,_RNvNtNtNtNtNtCsksqSOdb1Dlf_9serverlib6engine8database7inbuilt8advanced7helpers20parse_signed_in_base
FNDA:2,_RNvNtNtNtNtNtCsksqSOdb1Dlf_9serverlib6engine8database7inbuilt8advanced7helpers20runtime_current_user
FNDA:1,_RNvNtNtNtNtNtCsksqSOdb1Dlf_9serverlib6engine8database7inbuilt8advanced7helpers20runtime_session_user
FNDA:1,_RNvNtNtNtNtNtCsksqSOdb1Dlf_9serverlib6engine8database7inbuilt8advanced7helpers21format_signed_in_base
FNDA:1,_RNvNtNtNtNtNtCsksqSOdb1Dlf_9serverlib6engine8database7inbuilt8advanced7helpers21runtime_connection_id
FNDA:1,_RNvNtNtNtNtNtCsksqSOdb1Dlf_9serverlib6engine8database7inbuilt8advanced7helpers22runtime_last_insert_id
FNDA:2,_RNvNtNtNtNtNtCsksqSOdb1Dlf_9serverlib6engine8database7inbuilt8advanced7helpers9is_truthy
FNDA:1,_RINvNtNtNtNtNtCsksqSOdb1Dlf_9serverlib6engine8database7inbuilt8advanced7helpers13number_resultlEBc_
FNDA:2,_RINvNtNtNtNtNtCsksqSOdb1Dlf_9serverlib6engine8database7inbuilt8advanced7helpers13number_resultxEBc_
FNDA:8,_RINvNtNtNtNtNtCsksqSOdb1Dlf_9serverlib6engine8database7inbuilt8advanced7helpers13string_resultNtNtCslDfkGcRelIg_5alloc6string6StringEBc_
FNDA:0,_RNCNCNvNtNtNtNtNtCsksqSOdb1Dlf_9serverlib6engine8database7inbuilt8advanced7helpers20runtime_current_user00Bf_
FNDA:0,_RNCNvNtNtNtNtNtCsksqSOdb1Dlf_9serverlib6engine8database7inbuilt8advanced7helpers15runtime_version0Bd_
FNDA:0,_RNCNvNtNtNtNtNtCsksqSOdb1Dlf_9serverlib6engine8database7inbuilt8advanced7helpers16evaluate_i64_arg0Bd_
FNDA:0,_RNCNvNtNtNtNtNtCsksqSOdb1Dlf_9serverlib6engine8database7inbuilt8advanced7helpers16evaluate_i64_args_0Bd_
FNDA:0,_RNCNvNtNtNtNtNtCsksqSOdb1Dlf_9serverlib6engine8database7inbuilt8advanced7helpers17usage_for_clarity0Bd_
FNDA:0,_RNCNvNtNtNtNtNtCsksqSOdb1Dlf_9serverlib6engine8database7inbuilt8advanced7helpers17usage_for_claritys_0Bd_
FNDA:4,_RNCNvNtNtNtNtNtCsksqSOdb1Dlf_9serverlib6engine8database7inbuilt8advanced7helpers19evaluate_string_arg0Bd_
FNDA:0,_RNCNvNtNtNtNtNtCsksqSOdb1Dlf_9serverlib6engine8database7inbuilt8advanced7helpers20runtime_current_user0Bd_
FNDA:0,_RNCNvNtNtNtNtNtCsksqSOdb1Dlf_9serverlib6engine8database7inbuilt8advanced7helpers20runtime_current_users_0Bd_
FNF:27
FNH:18
DA:9,18
DA:10,18
DA:11,18
DA:12,18
DA:13,18
DA:14,18
DA:16,18
DA:17,0
DA:18,0
DA:19,0
DA:20,0
DA:21,0
DA:22,0
DA:23,0
DA:24,0
DA:25,0
DA:26,0
DA:27,0
DA:28,0
DA:29,0
DA:30,0
DA:31,0
DA:32,0
DA:33,18
DA:35,18
DA:37,18
DA:39,0
DA:41,0
DA:42,0
DA:43,0
DA:45,0
DA:46,0
DA:47,0
DA:48,0
DA:49,0
DA:50,0
DA:51,0
DA:53,0
DA:54,0
DA:55,0
DA:56,0
DA:58,0
DA:59,0
DA:60,0
DA:61,0
DA:62,0
DA:63,0
DA:64,0
DA:66,0
DA:68,0
DA:70,19
DA:71,19
DA:72,19
DA:73,19
DA:75,4
DA:76,4
DA:77,4
DA:78,4
DA:80,3
DA:82,3
DA:83,0
DA:86,3
DA:87,3
DA:88,3
DA:89,0
DA:91,0
DA:92,0
DA:93,0
DA:94,0
DA:96,3
DA:98,8
DA:99,8
DA:100,8
DA:102,3
DA:103,3
DA:104,3
DA:106,2
DA:107,2
DA:108,2
DA:109,2
DA:110,2
DA:111,2
DA:112,2
DA:114,1
DA:115,1
DA:116,1
DA:117,1
DA:118,1
DA:119,1
DA:121,1
DA:122,1
DA:123,1
DA:124,1
DA:125,1
DA:126,1
DA:128,1
DA:129,1
DA:130,1
DA:131,1
DA:133,1
DA:134,1
DA:135,1
DA:136,1
DA:138,1
DA:139,1
DA:140,1
DA:141,1
DA:143,1
DA:144,1
DA:145,1
DA:146,1
DA:147,1
DA:148,1
DA:150,2
DA:152,2
DA:153,2
DA:155,2
DA:156,0
DA:157,2
DA:159,2
DA:160,2
DA:161,0
DA:163,0
DA:165,2
DA:167,2
DA:169,2
DA:171,2
DA:172,2
DA:174,0
DA:177,2
DA:179,1
DA:181,1
DA:183,1
DA:184,0
DA:185,1
DA:187,1
DA:188,1
DA:190,1
DA:191,0
DA:192,1
DA:194,1
DA:195,1
DA:197,1
DA:199,1
DA:201,1
DA:202,0
DA:203,1
DA:205,1
DA:206,1
DA:207,1
DA:208,1
DA:210,3
DA:211,2
DA:212,2
DA:213,2
DA:215,0
DA:217,2
DA:218,2
DA:221,1
DA:223,1
DA:224,1
DA:225,0
DA:226,1
DA:228,1
DA:229,1
DA:231,1
BRF:0
BRH:0
LF:175
LH:112
end_of_record
SF:/Users/samcolak/Source Code/rust/distdb/distdb/serverlib/src/engine/database/inbuilt/advanced/ifcommand.rs
FN:16,_RNvXNtNtNtNtNtCsksqSOdb1Dlf_9serverlib6engine8database7inbuilt8advanced9ifcommandNtB2_9IfCommandNtNtB6_7command20InbuiltServerCommand4name
FN:20,_RNvXNtNtNtNtNtCsksqSOdb1Dlf_9serverlib6engine8database7inbuilt8advanced9ifcommandNtB2_9IfCommandNtNtB6_7command20InbuiltServerCommand8evaluate
FNDA:1,_RNvXNtNtNtNtNtCsksqSOdb1Dlf_9serverlib6engine8database7inbuilt8advanced9ifcommandNtB2_9IfCommandNtNtB6_7command20InbuiltServerCommand4name
FNDA:1,_RNvXNtNtNtNtNtCsksqSOdb1Dlf_9serverlib6engine8database7inbuilt8advanced9ifcommandNtB2_9IfCommandNtNtB6_7command20InbuiltServerCommand8evaluate
FNF:2
FNH:2
DA:16,1
DA:17,1
DA:18,1
DA:20,1
DA:22,1
DA:24,1
DA:26,1
DA:27,0
DA:30,1
DA:31,1
DA:32,0
DA:34,0
DA:36,1
BRF:0
BRH:0
LF:13
LH:10
end_of_record
SF:/Users/samcolak/Source Code/rust/distdb/distdb/serverlib/src/engine/database/inbuilt/advanced/ifnull.rs
FN:16,_RNvXNtNtNtNtNtCsksqSOdb1Dlf_9serverlib6engine8database7inbuilt8advanced6ifnullNtB2_13IfNullCommandNtNtB6_7command20InbuiltServerCommand4name
FN:20,_RNvXNtNtNtNtNtCsksqSOdb1Dlf_9serverlib6engine8database7inbuilt8advanced6ifnullNtB2_13IfNullCommandNtNtB6_7command20InbuiltServerCommand8evaluate
FNDA:1,_RNvXNtNtNtNtNtCsksqSOdb1Dlf_9serverlib6engine8database7inbuilt8advanced6ifnullNtB2_13IfNullCommandNtNtB6_7command20InbuiltServerCommand4name
FNDA:1,_RNvXNtNtNtNtNtCsksqSOdb1Dlf_9serverlib6engine8database7inbuilt8advanced6ifnullNtB2_13IfNullCommandNtNtB6_7command20InbuiltServerCommand8evaluate
FNF:2
FNH:2
DA:16,1
DA:17,1
DA:18,1
DA:20,1
DA:22,1
DA:24,1
DA:26,1
DA:28,1
DA:29,0
DA:30,1
DA:32,1
DA:34,1
BRF:0
BRH:0
LF:12
LH:11
end_of_record
SF:/Users/samcolak/Source Code/rust/distdb/distdb/serverlib/src/engine/database/inbuilt/advanced/isnull.rs
FN:16,_RNvXNtNtNtNtNtCsksqSOdb1Dlf_9serverlib6engine8database7inbuilt8advanced6isnullNtB2_13IsNullCommandNtNtB6_7command20InbuiltServerCommand4name
FN:20,_RNvXNtNtNtNtNtCsksqSOdb1Dlf_9serverlib6engine8database7inbuilt8advanced6isnullNtB2_13IsNullCommandNtNtB6_7command20InbuiltServerCommand8evaluate
FNDA:1,_RNvXNtNtNtNtNtCsksqSOdb1Dlf_9serverlib6engine8database7inbuilt8advanced6isnullNtB2_13IsNullCommandNtNtB6_7command20InbuiltServerCommand4name
FNDA:1,_RNvXNtNtNtNtNtCsksqSOdb1Dlf_9serverlib6engine8database7inbuilt8advanced6isnullNtB2_13IsNullCommandNtNtB6_7command20InbuiltServerCommand8evaluate
FNF:2
FNH:2
DA:16,1
DA:17,1
DA:18,1
DA:20,1
DA:22,1
DA:24,1
DA:26,1
DA:28,1
DA:30,1
BRF:0
BRH:0
LF:9
LH:9
end_of_record
SF:/Users/samcolak/Source Code/rust/distdb/distdb/serverlib/src/engine/database/inbuilt/advanced/last_insert_id.rs
FN:16,_RNvXNtNtNtNtNtCsksqSOdb1Dlf_9serverlib6engine8database7inbuilt8advanced14last_insert_idNtB2_19LastInsertIdCommandNtNtB6_7command20InbuiltServerCommand4name
FN:20,_RNvXNtNtNtNtNtCsksqSOdb1Dlf_9serverlib6engine8database7inbuilt8advanced14last_insert_idNtB2_19LastInsertIdCommandNtNtB6_7command20InbuiltServerCommand8evaluate
FNDA:1,_RNvXNtNtNtNtNtCsksqSOdb1Dlf_9serverlib6engine8database7inbuilt8advanced14last_insert_idNtB2_19LastInsertIdCommandNtNtB6_7command20InbuiltServerCommand4name
FNDA:1,_RNvXNtNtNtNtNtCsksqSOdb1Dlf_9serverlib6engine8database7inbuilt8advanced14last_insert_idNtB2_19LastInsertIdCommandNtNtB6_7command20InbuiltServerCommand8evaluate
FNF:2
FNH:2
DA:16,1
DA:17,1
DA:18,1
DA:20,1
DA:22,1
DA:24,1
DA:26,1
DA:27,1
DA:28,0
DA:30,0
DA:32,1
BRF:0
BRH:0
LF:11
LH:9
end_of_record
SF:/Users/samcolak/Source Code/rust/distdb/distdb/serverlib/src/engine/database/inbuilt/advanced/mod.rs
FN:57,_RNCNvNtNtNtNtNtCsksqSOdb1Dlf_9serverlib6engine8database7inbuilt8advanced5tests19evaluate_expression0Bd_
FN:34,_RNvNtNtNtNtNtCsksqSOdb1Dlf_9serverlib6engine8database7inbuilt8advanced5tests19evaluate_expression
FN:61,_RNvNtNtNtNtNtCsksqSOdb1Dlf_9serverlib6engine8database7inbuilt8advanced5tests20test_runtime_context
FN:106,_RNvNtNtNtNtNtCsksqSOdb1Dlf_9serverlib6engine8database7inbuilt8advanced5testss_41advanced_functions_match_expected_outputs
FN:77,_RNvNtNtNtNtNtCsksqSOdb1Dlf_9serverlib6engine8database7inbuilt8advanced5testss_53advanced_function_registry_exposes_expected_functions
FNDA:18,_RNCNvNtNtNtNtNtCsksqSOdb1Dlf_9serverlib6engine8database7inbuilt8advanced5tests19evaluate_expression0Bd_
FNDA:19,_RNvNtNtNtNtNtCsksqSOdb1Dlf_9serverlib6engine8database7inbuilt8advanced5tests19evaluate_expression
FNDA:1,_RNvNtNtNtNtNtCsksqSOdb1Dlf_9serverlib6engine8database7inbuilt8advanced5tests20test_runtime_context
FNDA:1,_RNvNtNtNtNtNtCsksqSOdb1Dlf_9serverlib6engine8database7inbuilt8advanced5testss_41advanced_functions_match_expected_outputs
FNDA:1,_RNvNtNtNtNtNtCsksqSOdb1Dlf_9serverlib6engine8database7inbuilt8advanced5testss_53advanced_function_registry_exposes_expected_functions
FNF:5
FNH:5
DA:34,19
DA:36,19
DA:37,19
DA:39,19
DA:40,0
DA:43,19
DA:44,0
DA:47,19
DA:48,0
DA:51,19
DA:52,0
DA:55,19
DA:56,19
DA:57,19
DA:59,19
DA:61,1
DA:63,1
DA:64,1
DA:65,1
DA:66,1
DA:67,1
DA:68,1
DA:69,1
DA:70,1
DA:71,1
DA:72,1
DA:74,1
DA:77,1
DA:79,19
DA:80,1
DA:81,1
DA:82,1
DA:83,1
DA:84,1
DA:85,1
DA:86,1
DA:87,1
DA:88,1
DA:89,1
DA:90,1
DA:91,1
DA:92,1
DA:93,1
DA:94,1
DA:95,1
DA:96,1
DA:97,1
DA:98,1
DA:99,1
DA:100,19
DA:103,1
DA:106,1
DA:108,1
DA:110,1
DA:111,1
DA:112,1
DA:113,1
DA:114,1
DA:115,1
DA:116,1
DA:117,1
DA:118,1
DA:119,1
DA:120,1
DA:121,1
DA:122,1
DA:123,1
DA:124,1
DA:125,1
DA:126,1
DA:127,1
DA:128,1
DA:129,1
DA:130,1
DA:132,19
DA:133,19
DA:134,19
DA:141,1
BRF:0
BRH:0
LF:79
LH:75
end_of_record
SF:/Users/samcolak/Source Code/rust/distdb/distdb/serverlib/src/engine/database/inbuilt/advanced/nullif.rs
FN:16,_RNvXNtNtNtNtNtCsksqSOdb1Dlf_9serverlib6engine8database7inbuilt8advanced6nullifNtB2_13NullIfCommandNtNtB6_7command20InbuiltServerCommand4name
FN:20,_RNvXNtNtNtNtNtCsksqSOdb1Dlf_9serverlib6engine8database7inbuilt8advanced6nullifNtB2_13NullIfCommandNtNtB6_7command20InbuiltServerCommand8evaluate
FNDA:1,_RNvXNtNtNtNtNtCsksqSOdb1Dlf_9serverlib6engine8database7inbuilt8advanced6nullifNtB2_13NullIfCommandNtNtB6_7command20InbuiltServerCommand4name
FNDA:1,_RNvXNtNtNtNtNtCsksqSOdb1Dlf_9serverlib6engine8database7inbuilt8advanced6nullifNtB2_13NullIfCommandNtNtB6_7command20InbuiltServerCommand8evaluate
FNF:2
FNH:2
DA:16,1
DA:17,1
DA:18,1
DA:20,1
DA:22,1
DA:24,1
DA:26,1
DA:27,1
DA:29,1
DA:30,0
DA:31,1
DA:32,1
DA:33,1
DA:34,1
DA:35,0
DA:37,0
DA:41,1
BRF:0
BRH:0
LF:17
LH:14
end_of_record
SF:/Users/samcolak/Source Code/rust/distdb/distdb/serverlib/src/engine/database/inbuilt/advanced/session_user.rs
FN:16,_RNvXNtNtNtNtNtCsksqSOdb1Dlf_9serverlib6engine8database7inbuilt8advanced12session_userNtB2_18SessionUserCommandNtNtB6_7command20InbuiltServerCommand4name
FN:20,_RNvXNtNtNtNtNtCsksqSOdb1Dlf_9serverlib6engine8database7inbuilt8advanced12session_userNtB2_18SessionUserCommandNtNtB6_7command20InbuiltServerCommand8evaluate
FNDA:1,_RNvXNtNtNtNtNtCsksqSOdb1Dlf_9serverlib6engine8database7inbuilt8advanced12session_userNtB2_18SessionUserCommandNtNtB6_7command20InbuiltServerCommand4name
FNDA:1,_RNvXNtNtNtNtNtCsksqSOdb1Dlf_9serverlib6engine8database7inbuilt8advanced12session_userNtB2_18SessionUserCommandNtNtB6_7command20InbuiltServerCommand8evaluate
FNF:2
FNH:2
DA:16,1
DA:17,1
DA:18,1
DA:20,1
DA:22,1
DA:24,1
DA:26,1
DA:28,1
BRF:0
BRH:0
LF:8
LH:8
end_of_record
SF:/Users/samcolak/Source Code/rust/distdb/distdb/serverlib/src/engine/database/inbuilt/advanced/system_user.rs
FN:16,_RNvXNtNtNtNtNtCsksqSOdb1Dlf_9serverlib6engine8database7inbuilt8advanced11system_userNtB2_17SystemUserCommandNtNtB6_7command20InbuiltServerCommand4name
FN:20,_RNvXNtNtNtNtNtCsksqSOdb1Dlf_9serverlib6engine8database7inbuilt8advanced11system_userNtB2_17SystemUserCommandNtNtB6_7command20InbuiltServerCommand8evaluate
FNDA:1,_RNvXNtNtNtNtNtCsksqSOdb1Dlf_9serverlib6engine8database7inbuilt8advanced11system_userNtB2_17SystemUserCommandNtNtB6_7command20InbuiltServerCommand4name
FNDA:1,_RNvXNtNtNtNtNtCsksqSOdb1Dlf_9serverlib6engine8database7inbuilt8advanced11system_userNtB2_17SystemUserCommandNtNtB6_7command20InbuiltServerCommand8evaluate
FNF:2
FNH:2
DA:16,1
DA:17,1
DA:18,1
DA:20,1
DA:22,1
DA:24,1
DA:26,1
DA:28,1
BRF:0
BRH:0
LF:8
LH:8
end_of_record
SF:/Users/samcolak/Source Code/rust/distdb/distdb/serverlib/src/engine/database/inbuilt/advanced/user.rs
FN:16,_RNvXNtNtNtNtNtCsksqSOdb1Dlf_9serverlib6engine8database7inbuilt8advanced4userNtB2_11UserCommandNtNtB6_7command20InbuiltServerCommand4name
FN:20,_RNvXNtNtNtNtNtCsksqSOdb1Dlf_9serverlib6engine8database7inbuilt8advanced4userNtB2_11UserCommandNtNtB6_7command20InbuiltServerCommand8evaluate
FNDA:1,_RNvXNtNtNtNtNtCsksqSOdb1Dlf_9serverlib6engine8database7inbuilt8advanced4userNtB2_11UserCommandNtNtB6_7command20InbuiltServerCommand4name
FNDA:1,_RNvXNtNtNtNtNtCsksqSOdb1Dlf_9serverlib6engine8database7inbuilt8advanced4userNtB2_11UserCommandNtNtB6_7command20InbuiltServerCommand8evaluate
FNF:2
FNH:2
DA:16,1
DA:17,1
DA:18,1
DA:20,1
DA:22,1
DA:24,1
DA:26,1
DA:28,1
BRF:0
BRH:0
LF:8
LH:8
end_of_record
SF:/Users/samcolak/Source Code/rust/distdb/distdb/serverlib/src/engine/database/inbuilt/advanced/version.rs
FN:16,_RNvXNtNtNtNtNtCsksqSOdb1Dlf_9serverlib6engine8database7inbuilt8advanced7versionNtB2_14VersionCommandNtNtB6_7command20InbuiltServerCommand4name
FN:20,_RNvXNtNtNtNtNtCsksqSOdb1Dlf_9serverlib6engine8database7inbuilt8advanced7versionNtB2_14VersionCommandNtNtB6_7command20InbuiltServerCommand8evaluate
FNDA:1,_RNvXNtNtNtNtNtCsksqSOdb1Dlf_9serverlib6engine8database7inbuilt8advanced7versionNtB2_14VersionCommandNtNtB6_7command20InbuiltServerCommand4name
FNDA:1,_RNvXNtNtNtNtNtCsksqSOdb1Dlf_9serverlib6engine8database7inbuilt8advanced7versionNtB2_14VersionCommandNtNtB6_7command20InbuiltServerCommand8evaluate
FNF:2
FNH:2
DA:16,1
DA:17,1
DA:18,1
DA:20,1
DA:22,1
DA:24,1
DA:26,1
DA:28,1
BRF:0
BRH:0
LF:8
LH:8
end_of_record
SF:/Users/samcolak/Source Code/rust/distdb/distdb/serverlib/src/engine/database/inbuilt/command.rs
FN:8,_RNvYNtNtNtNtNtNtCsksqSOdb1Dlf_9serverlib6engine8database7inbuilt7numeric3log10LogCommandNtNtB8_7command20InbuiltServerCommand5usageBe_
FN:8,_RNvYNtNtNtNtNtNtCsksqSOdb1Dlf_9serverlib6engine8database7inbuilt7numeric8truncate15TruncateCommandNtNtB8_7command20InbuiltServerCommand5usageBe_
FN:8,_RNvYNtNtNtNtNtNtCsksqSOdb1Dlf_9serverlib6engine8database7inbuilt8datetime10dayofmonth17DayOfMonthCommandNtNtB8_7command20InbuiltServerCommand5usageBe_
FN:8,_RNvYNtNtNtNtNtNtCsksqSOdb1Dlf_9serverlib6engine8database7inbuilt7numeric3cot10CotCommandNtNtB8_7command20InbuiltServerCommand5usageBe_
FN:8,_RNvYNtNtNtNtNtNtCsksqSOdb1Dlf_9serverlib6engine8database7inbuilt7numeric4sqrt11SqrtCommandNtNtB8_7command20InbuiltServerCommand5usageBe_
FN:8,_RNvYNtNtNtNtNtNtCsksqSOdb1Dlf_9serverlib6engine8database7inbuilt8datetime10weekofyear17WeekOfYearCommandNtNtB8_7command20InbuiltServerCommand5usageBe_
FN:8,_RNvYNtNtNtNtNtNtCsksqSOdb1Dlf_9serverlib6engine8database7inbuilt8datetime11str_to_date16StrToDateCommandNtNtB8_7command20InbuiltServerCommand5usageBe_
FN:8,_RNvYNtNtNtNtNtNtCsksqSOdb1Dlf_9serverlib6engine8database7inbuilt8datetime11time_format17TimeFormatCommandNtNtB8_7command20InbuiltServerCommand5usageBe_
FN:8,_RNvYNtNtNtNtNtNtCsksqSOdb1Dlf_9serverlib6engine8database7inbuilt8datetime7quarter14QuarterCommandNtNtB8_7command20InbuiltServerCommand5usageBe_
FN:8,_RNvYNtNtNtNtNtNtCsksqSOdb1Dlf_9serverlib6engine8database7inbuilt8advanced4user11UserCommandNtNtB8_7command20InbuiltServerCommand5usageBe_
FN:8,_RNvYNtNtNtNtNtNtCsksqSOdb1Dlf_9serverlib6engine8database7inbuilt8datetime9dayofweek16DayOfWeekCommandNtNtB8_7command20InbuiltServerCommand5usageBe_
FN:8,_RNvYNtNtNtNtNtNtCsksqSOdb1Dlf_9serverlib6engine8database7inbuilt7numeric4rand11RandCommandNtNtB8_7command20InbuiltServerCommand5usageBe_
FN:8,_RNvYNtNtNtNtNtNtCsksqSOdb1Dlf_9serverlib6engine8database7inbuilt7numeric5atan212Atan2CommandNtNtB8_7command20InbuiltServerCommand5usageBe_
FN:8,_RNvYNtNtNtNtNtNtCsksqSOdb1Dlf_9serverlib6engine8database7inbuilt8advanced13connection_id19ConnectionIdCommandNtNtB8_7command20InbuiltServerCommand5usageBe_
FN:8,_RNvYNtNtNtNtNtNtCsksqSOdb1Dlf_9serverlib6engine8database7inbuilt7numeric5round12RoundCommandNtNtB8_7command20InbuiltServerCommand5usageBe_
FN:8,_RNvYNtNtNtNtNtNtCsksqSOdb1Dlf_9serverlib6engine8database7inbuilt8datetime7curdate14CurDateCommandNtNtB8_7command20InbuiltServerCommand5usageBe_
FN:8,_RNvYNtNtNtNtNtNtCsksqSOdb1Dlf_9serverlib6engine8database7inbuilt8datetime14localtimestamp21LocalTimestampCommandNtNtB8_7command20InbuiltServerCommand5usageBe_
FN:8,_RNvYNtNtNtNtNtNtCsksqSOdb1Dlf_9serverlib6engine8database7inbuilt8advanced6nullif13NullIfCommandNtNtB8_7command20InbuiltServerCommand5usageBe_
FN:8,_RNvYNtNtNtNtNtNtCsksqSOdb1Dlf_9serverlib6engine8database7inbuilt7strings6format13FormatCommandNtNtB8_7command20InbuiltServerCommand5usageBe_
FN:8,_RNvYNtNtNtNtNtNtCsksqSOdb1Dlf_9serverlib6engine8database7inbuilt7numeric3sin10SinCommandNtNtB8_7command20InbuiltServerCommand5usageBe_
FN:8,_RNvYNtNtNtNtNtNtCsksqSOdb1Dlf_9serverlib6engine8database7inbuilt7strings5ltrim12LtrimCommandNtNtB8_7command20InbuiltServerCommand5usageBe_
FN:8,_RNvYNtNtNtNtNtNtCsksqSOdb1Dlf_9serverlib6engine8database7inbuilt7numeric2ln9LnCommandNtNtB8_7command20InbuiltServerCommand5usageBe_
FN:8,_RNvYNtNtNtNtNtNtCsksqSOdb1Dlf_9serverlib6engine8database7inbuilt7strings11find_in_set16FindInSetCommandNtNtB8_7command20InbuiltServerCommand5usageBe_
FN:8,_RNvYNtNtNtNtNtNtCsksqSOdb1Dlf_9serverlib6engine8database7inbuilt7strings7reverse14ReverseCommandNtNtB8_7command20InbuiltServerCommand5usageBe_
FN:8,_RNvYNtNtNtNtNtNtCsksqSOdb1Dlf_9serverlib6engine8database7inbuilt8advanced6ifnull13IfNullCommandNtNtB8_7command20InbuiltServerCommand5usageBe_
FN:8,_RNvYNtNtNtNtNtNtCsksqSOdb1Dlf_9serverlib6engine8database7inbuilt8datetime11sec_to_time16SecToTimeCommandNtNtB8_7command20InbuiltServerCommand5usageBe_
FN:8,_RNvYNtNtNtNtNtNtCsksqSOdb1Dlf_9serverlib6engine8database7inbuilt8datetime8maketime15MakeTimeCommandNtNtB8_7command20InbuiltServerCommand5usageBe_
FN:8,_RNvYNtNtNtNtNtNtCsksqSOdb1Dlf_9serverlib6engine8database7inbuilt7numeric8greatest15GreatestCommandNtNtB8_7command20InbuiltServerCommand5usageBe_
FN:8,_RNvYNtNtNtNtNtNtCsksqSOdb1Dlf_9serverlib6engine8database7inbuilt7strings5upper12UpperCommandNtNtB8_7command20InbuiltServerCommand5usageBe_
FN:8,_RNvYNtNtNtNtNtNtCsksqSOdb1Dlf_9serverlib6engine8database7inbuilt7strings6locate13LocateCommandNtNtB8_7command20InbuiltServerCommand5usageBe_
FN:8,_RNvYNtNtNtNtNtNtCsksqSOdb1Dlf_9serverlib6engine8database7inbuilt7strings8concat_w14ConcatWCommandNtNtB8_7command20InbuiltServerCommand5usageBe_
FN:8,_RNvYNtNtNtNtNtNtCsksqSOdb1Dlf_9serverlib6engine8database7inbuilt8advanced4case11CaseCommandNtNtB8_7command20InbuiltServerCommand5usageBe_
FN:8,_RNvYNtNtNtNtNtNtCsksqSOdb1Dlf_9serverlib6engine8database7inbuilt8datetime11period_diff17PeriodDiffCommandNtNtB8_7command20InbuiltServerCommand5usageBe_
FN:8,_RNvYNtNtNtNtNtNtCsksqSOdb1Dlf_9serverlib6engine8database7inbuilt8datetime7addtime14AddTimeCommandNtNtB8_7command20InbuiltServerCommand5usageBe_
FN:8,_RNvYNtNtNtNtNtNtCsksqSOdb1Dlf_9serverlib6engine8database7inbuilt8datetime7extract14ExtractCommandNtNtB8_7command20InbuiltServerCommand5usageBe_
FN:8,_RNvYNtNtNtNtNtNtCsksqSOdb1Dlf_9serverlib6engine8database7inbuilt7numeric3exp10ExpCommandNtNtB8_7command20InbuiltServerCommand5usageBe_
FN:8,_RNvYNtNtNtNtNtNtCsksqSOdb1Dlf_9serverlib6engine8database7inbuilt7numeric3tan10TanCommandNtNtB8_7command20InbuiltServerCommand5usageBe_
FN:8,_RNvYNtNtNtNtNtNtCsksqSOdb1Dlf_9serverlib6engine8database7inbuilt8datetime7adddate14AddDateCommandNtNtB8_7command20InbuiltServerCommand5usageBe_
FN:8,_RNvYNtNtNtNtNtNtCsksqSOdb1Dlf_9serverlib6engine8database7inbuilt8datetime7to_days13ToDaysCommandNtNtB8_7command20InbuiltServerCommand5usageBe_
FN:8,_RNvYNtNtNtNtNtNtCsksqSOdb1Dlf_9serverlib6engine8database7inbuilt8datetime8datediff15DateDiffCommandNtNtB8_7command20InbuiltServerCommand5usageBe_
FN:8,_RNvYNtNtNtNtNtNtCsksqSOdb1Dlf_9serverlib6engine8database7inbuilt8datetime9dayofyear16DayOfYearCommandNtNtB8_7command20InbuiltServerCommand5usageBe_
FN:8,_RNvYNtNtNtNtNtNtCsksqSOdb1Dlf_9serverlib6engine8database7inbuilt7strings6length13LengthCommandNtNtB8_7command20InbuiltServerCommand5usageBe_
FN:8,_RNvYNtNtNtNtNtNtCsksqSOdb1Dlf_9serverlib6engine8database7inbuilt7strings7replace14ReplaceCommandNtNtB8_7command20InbuiltServerCommand5usageBe_
FN:8,_RNvYNtNtNtNtNtNtCsksqSOdb1Dlf_9serverlib6engine8database7inbuilt7strings3mid10MidCommandNtNtB8_7command20InbuiltServerCommand5usageBe_
FN:8,_RNvYNtNtNtNtNtNtCsksqSOdb1Dlf_9serverlib6engine8database7inbuilt7numeric3abs10AbsCommandNtNtB8_7command20InbuiltServerCommand5usageBe_
FN:8,_RNvYNtNtNtNtNtNtCsksqSOdb1Dlf_9serverlib6engine8database7inbuilt7numeric4atan11AtanCommandNtNtB8_7command20InbuiltServerCommand5usageBe_
FN:8,_RNvYNtNtNtNtNtNtCsksqSOdb1Dlf_9serverlib6engine8database7inbuilt7numeric4ceil11CeilCommandNtNtB8_7command20InbuiltServerCommand5usageBe_
FN:8,_RNvYNtNtNtNtNtNtCsksqSOdb1Dlf_9serverlib6engine8database7inbuilt7numeric3div10DivCommandNtNtB8_7command20InbuiltServerCommand5usageBe_
FN:8,_RNvYNtNtNtNtNtNtCsksqSOdb1Dlf_9serverlib6engine8database7inbuilt7strings4trim11TrimCommandNtNtB8_7command20InbuiltServerCommand5usageBe_
FN:8,_RNvYNtNtNtNtNtNtCsksqSOdb1Dlf_9serverlib6engine8database7inbuilt8advanced3bin10BinCommandNtNtB8_7command20InbuiltServerCommand5usageBe_
FN:8,_RNvYNtNtNtNtNtNtCsksqSOdb1Dlf_9serverlib6engine8database7inbuilt7numeric3min10MinCommandNtNtB8_7command20InbuiltServerCommand5usageBe_
FN:8,_RNvYNtNtNtNtNtNtCsksqSOdb1Dlf_9serverlib6engine8database7inbuilt7numeric5least12LeastCommandNtNtB8_7command20InbuiltServerCommand5usageBe_
FN:8,_RNvYNtNtNtNtNtNtCsksqSOdb1Dlf_9serverlib6engine8database7inbuilt8advanced6isnull13IsNullCommandNtNtB8_7command20InbuiltServerCommand5usageBe_
FN:8,_RNvYNtNtNtNtNtNtCsksqSOdb1Dlf_9serverlib6engine8database7inbuilt8advanced7version14VersionCommandNtNtB8_7command20InbuiltServerCommand5usageBe_
FN:8,_RNvYNtNtNtNtNtNtCsksqSOdb1Dlf_9serverlib6engine8database7inbuilt8datetime4hour11HourCommandNtNtB8_7command20InbuiltServerCommand5usageBe_
FN:8,_RNvYNtNtNtNtNtNtCsksqSOdb1Dlf_9serverlib6engine8database7inbuilt8datetime4time11TimeCommandNtNtB8_7command20InbuiltServerCommand5usageBe_
FN:8,_RNvYNtNtNtNtNtNtCsksqSOdb1Dlf_9serverlib6engine8database7inbuilt8datetime4week11WeekCommandNtNtB8_7command20InbuiltServerCommand5usageBe_
FN:8,_RNvYNtNtNtNtNtNtCsksqSOdb1Dlf_9serverlib6engine8database7inbuilt8datetime8makedate15MakeDateCommandNtNtB8_7command20InbuiltServerCommand5usageBe_
FN:8,_RNvYNtNtNtNtNtNtCsksqSOdb1Dlf_9serverlib6engine8database7inbuilt8datetime3day10DayCommandNtNtB8_7command20InbuiltServerCommand5usageBe_
FN:8,_RNvYNtNtNtNtNtNtCsksqSOdb1Dlf_9serverlib6engine8database7inbuilt7strings6insert13InsertCommandNtNtB8_7command20InbuiltServerCommand5usageBe_
FN:8,_RNvYNtNtNtNtNtNtCsksqSOdb1Dlf_9serverlib6engine8database7inbuilt7numeric5log1012Log10CommandNtNtB8_7command20InbuiltServerCommand5usageBe_
FN:8,_RNvYNtNtNtNtNtNtCsksqSOdb1Dlf_9serverlib6engine8database7inbuilt7numeric4log211Log2CommandNtNtB8_7command20InbuiltServerCommand5usageBe_
FN:8,_RNvYNtNtNtNtNtNtCsksqSOdb1Dlf_9serverlib6engine8database7inbuilt7strings4left11LeftCommandNtNtB8_7command20InbuiltServerCommand5usageBe_
FN:8,_RNvYNtNtNtNtNtNtCsksqSOdb1Dlf_9serverlib6engine8database7inbuilt7strings5instr12InstrCommandNtNtB8_7command20InbuiltServerCommand5usageBe_
FN:8,_RNvYNtNtNtNtNtNtCsksqSOdb1Dlf_9serverlib6engine8database7inbuilt8advanced4cast11CastCommandNtNtB8_7command20InbuiltServerCommand5usageBe_
FN:8,_RNvYNtNtNtNtNtNtCsksqSOdb1Dlf_9serverlib6engine8database7inbuilt8datetime13unixtimestamp20UnixTimestampCommandNtNtB8_7command20InbuiltServerCommand5usageBe_
FN:8,_RNvYNtNtNtNtNtNtCsksqSOdb1Dlf_9serverlib6engine8database7inbuilt8datetime7dayname14DayNameCommandNtNtB8_7command20InbuiltServerCommand5usageBe_
FN:8,_RNvYNtNtNtNtNtNtCsksqSOdb1Dlf_9serverlib6engine8database7inbuilt8datetime7sysdate14SysDateCommandNtNtB8_7command20InbuiltServerCommand5usageBe_
FN:8,_RNvYNtNtNtNtNtNtCsksqSOdb1Dlf_9serverlib6engine8database7inbuilt8datetime8yearweek15YearWeekCommandNtNtB8_7command20InbuiltServerCommand5usageBe_
FN:8,_RNvYNtNtNtNtNtNtCsksqSOdb1Dlf_9serverlib6engine8database7inbuilt8datetime9from_days15FromDaysCommandNtNtB8_7command20InbuiltServerCommand5usageBe_
FN:8,_RNvYNtNtNtNtNtNtCsksqSOdb1Dlf_9serverlib6engine8database7inbuilt8advanced8coalesce15CoalesceCommandNtNtB8_7command20InbuiltServerCommand5usageBe_
FN:8,_RNvYNtNtNtNtNtNtCsksqSOdb1Dlf_9serverlib6engine8database7inbuilt7strings5right12RightCommandNtNtB8_7command20InbuiltServerCommand5usageBe_
FN:8,_RNvYNtNtNtNtNtNtCsksqSOdb1Dlf_9serverlib6engine8database7inbuilt7strings8position15PositionCommandNtNtB8_7command20InbuiltServerCommand5usageBe_
FN:8,_RNvYNtNtNtNtNtNtCsksqSOdb1Dlf_9serverlib6engine8database7inbuilt8datetime11microsecond18MicrosecondCommandNtNtB8_7command20InbuiltServerCommand5usageBe_
FN:8,_RNvYNtNtNtNtNtNtCsksqSOdb1Dlf_9serverlib6engine8database7inbuilt3geo8distance15DistanceCommandNtNtB8_7command20InbuiltServerCommand5usageBe_
FN:8,_RNvYNtNtNtNtNtNtCsksqSOdb1Dlf_9serverlib6engine8database7inbuilt7numeric4asin11AsinCommandNtNtB8_7command20InbuiltServerCommand5usageBe_
FN:8,_RNvYNtNtNtNtNtNtCsksqSOdb1Dlf_9serverlib6engine8database7inbuilt7numeric7degrees14DegreesCommandNtNtB8_7command20InbuiltServerCommand5usageBe_
FN:8,_RNvYNtNtNtNtNtNtCsksqSOdb1Dlf_9serverlib6engine8database7inbuilt7strings6substr13SubstrCommandNtNtB8_7command20InbuiltServerCommand5usageBe_
FN:8,_RNvYNtNtNtNtNtNtCsksqSOdb1Dlf_9serverlib6engine8database7inbuilt8advanced14last_insert_id19LastInsertIdCommandNtNtB8_7command20InbuiltServerCommand5usageBe_
FN:8,_RNvYNtNtNtNtNtNtCsksqSOdb1Dlf_9serverlib6engine8database7inbuilt8datetime3now10NowCommandNtNtB8_7command20InbuiltServerCommand5usageBe_
FN:8,_RNvYNtNtNtNtNtNtCsksqSOdb1Dlf_9serverlib6engine8database7inbuilt8datetime7subtime14SubTimeCommandNtNtB8_7command20InbuiltServerCommand5usageBe_
FN:8,_RNvYNtNtNtNtNtNtCsksqSOdb1Dlf_9serverlib6engine8database7inbuilt8datetime7weekday14WeekdayCommandNtNtB8_7command20InbuiltServerCommand5usageBe_
FN:8,_RNvYNtNtNtNtNtNtCsksqSOdb1Dlf_9serverlib6engine8database7inbuilt7numeric5floor12FloorCommandNtNtB8_7command20InbuiltServerCommand5usageBe_
FN:8,_RNvYNtNtNtNtNtNtCsksqSOdb1Dlf_9serverlib6engine8database7inbuilt7strings11char_length17CharLengthCommandNtNtB8_7command20InbuiltServerCommand5usageBe_
FN:8,_RNvYNtNtNtNtNtNtCsksqSOdb1Dlf_9serverlib6engine8database7inbuilt7strings4lpad11LpadCommandNtNtB8_7command20InbuiltServerCommand5usageBe_
FN:8,_RNvYNtNtNtNtNtNtCsksqSOdb1Dlf_9serverlib6engine8database7inbuilt8advanced9ifcommand9IfCommandNtNtB8_7command20InbuiltServerCommand5usageBe_
FN:8,_RNvYNtNtNtNtNtNtCsksqSOdb1Dlf_9serverlib6engine8database7inbuilt8datetime10period_add16PeriodAddCommandNtNtB8_7command20InbuiltServerCommand5usageBe_
FN:8,_RNvYNtNtNtNtNtNtCsksqSOdb1Dlf_9serverlib6engine8database7inbuilt8datetime11date_format17DateFormatCommandNtNtB8_7command20InbuiltServerCommand5usageBe_
FN:8,_RNvYNtNtNtNtNtNtCsksqSOdb1Dlf_9serverlib6engine8database7inbuilt8datetime11time_to_sec16TimeToSecCommandNtNtB8_7command20InbuiltServerCommand5usageBe_
FN:8,_RNvYNtNtNtNtNtNtCsksqSOdb1Dlf_9serverlib6engine8database7inbuilt7strings5rtrim12RtrimCommandNtNtB8_7command20InbuiltServerCommand5usageBe_
FN:8,_RNvYNtNtNtNtNtNtCsksqSOdb1Dlf_9serverlib6engine8database7inbuilt7strings15substring_index21SubstringIndexCommandNtNtB8_7command20InbuiltServerCommand5usageBe_
FN:8,_RNvYNtNtNtNtNtNtCsksqSOdb1Dlf_9serverlib6engine8database7inbuilt7strings5field12FieldCommandNtNtB8_7command20InbuiltServerCommand5usageBe_
FN:8,_RNvYNtNtNtNtNtNtCsksqSOdb1Dlf_9serverlib6engine8database7inbuilt8datetime5month12MonthCommandNtNtB8_7command20InbuiltServerCommand5usageBe_
FN:8,_RNvYNtNtNtNtNtNtCsksqSOdb1Dlf_9serverlib6engine8database7inbuilt8datetime8last_day14LastDayCommandNtNtB8_7command20InbuiltServerCommand5usageBe_
FN:8,_RNvYNtNtNtNtNtNtCsksqSOdb1Dlf_9serverlib6engine8database7inbuilt7numeric4sign11SignCommandNtNtB8_7command20InbuiltServerCommand5usageBe_
FN:8,_RNvYNtNtNtNtNtNtCsksqSOdb1Dlf_9serverlib6engine8database7inbuilt7numeric3sum10SumCommandNtNtB8_7command20InbuiltServerCommand5usageBe_
FN:8,_RNvYNtNtNtNtNtNtCsksqSOdb1Dlf_9serverlib6engine8database7inbuilt7strings5space12SpaceCommandNtNtB8_7command20InbuiltServerCommand5usageBe_
FN:8,_RNvYNtNtNtNtNtNtCsksqSOdb1Dlf_9serverlib6engine8database7inbuilt7numeric3max10MaxCommandNtNtB8_7command20InbuiltServerCommand5usageBe_
FN:8,_RNvYNtNtNtNtNtNtCsksqSOdb1Dlf_9serverlib6engine8database7inbuilt7numeric5count12CountCommandNtNtB8_7command20InbuiltServerCommand5usageBe_
FN:8,_RNvYNtNtNtNtNtNtCsksqSOdb1Dlf_9serverlib6engine8database7inbuilt8advanced11system_user17SystemUserCommandNtNtB8_7command20InbuiltServerCommand5usageBe_
FN:8,_RNvYNtNtNtNtNtNtCsksqSOdb1Dlf_9serverlib6engine8database7inbuilt8datetime4year11YearCommandNtNtB8_7command20InbuiltServerCommand5usageBe_
FN:8,_RNvYNtNtNtNtNtNtCsksqSOdb1Dlf_9serverlib6engine8database7inbuilt8datetime6minute13MinuteCommandNtNtB8_7command20InbuiltServerCommand5usageBe_
FN:8,_RNvYNtNtNtNtNtNtCsksqSOdb1Dlf_9serverlib6engine8database7inbuilt8datetime7curtime14CurTimeCommandNtNtB8_7command20InbuiltServerCommand5usageBe_
FN:8,_RNvYNtNtNtNtNtNtCsksqSOdb1Dlf_9serverlib6engine8database7inbuilt7numeric7radians14RadiansCommandNtNtB8_7command20InbuiltServerCommand5usageBe_
FN:8,_RNvYNtNtNtNtNtNtCsksqSOdb1Dlf_9serverlib6engine8database7inbuilt7strings5ascii12AsciiCommandNtNtB8_7command20InbuiltServerCommand5usageBe_
FN:8,_RNvYNtNtNtNtNtNtCsksqSOdb1Dlf_9serverlib6engine8database7inbuilt7strings6repeat13RepeatCommandNtNtB8_7command20InbuiltServerCommand5usageBe_
FN:8,_RNvYNtNtNtNtNtNtCsksqSOdb1Dlf_9serverlib6engine8database7inbuilt8advanced7convert14ConvertCommandNtNtB8_7command20InbuiltServerCommand5usageBe_
FN:8,_RNvYNtNtNtNtNtNtCsksqSOdb1Dlf_9serverlib6engine8database7inbuilt8datetime4date11DateCommandNtNtB8_7command20InbuiltServerCommand5usageBe_
FN:8,_RNvYNtNtNtNtNtNtCsksqSOdb1Dlf_9serverlib6engine8database7inbuilt8datetime7subdate14SubDateCommandNtNtB8_7command20InbuiltServerCommand5usageBe_
FN:8,_RNvYNtNtNtNtNtNtCsksqSOdb1Dlf_9serverlib6engine8database7inbuilt8datetime8timediff15TimeDiffCommandNtNtB8_7command20InbuiltServerCommand5usageBe_
FN:8,_RNvYNtNtNtNtNtNtCsksqSOdb1Dlf_9serverlib6engine8database7inbuilt8datetime9timestamp16TimestampCommandNtNtB8_7command20InbuiltServerCommand5usageBe_
FN:8,_RNvYNtNtNtNtNtNtCsksqSOdb1Dlf_9serverlib6engine8database7inbuilt8advanced8database15DatabaseCommandNtNtB8_7command20InbuiltServerCommand5usageBe_
FN:8,_RNvYNtNtNtNtNtNtCsksqSOdb1Dlf_9serverlib6engine8database7inbuilt8advanced6binary13BinaryCommandNtNtB8_7command20InbuiltServerCommand5usageBe_
FN:8,_RNvYNtNtNtNtNtNtCsksqSOdb1Dlf_9serverlib6engine8database7inbuilt7strings6concat13ConcatCommandNtNtB8_7command20InbuiltServerCommand5usageBe_
FN:8,_RNvYNtNtNtNtNtNtCsksqSOdb1Dlf_9serverlib6engine8database7inbuilt8advanced12session_user18SessionUserCommandNtNtB8_7command20InbuiltServerCommand5usageBe_
FN:8,_RNvYNtNtNtNtNtNtCsksqSOdb1Dlf_9serverlib6engine8database7inbuilt7numeric3avg10AvgCommandNtNtB8_7command20InbuiltServerCommand5usageBe_
FN:8,_RNvYNtNtNtNtNtNtCsksqSOdb1Dlf_9serverlib6engine8database7inbuilt7numeric3cos10CosCommandNtNtB8_7command20InbuiltServerCommand5usageBe_
FN:8,_RNvYNtNtNtNtNtNtCsksqSOdb1Dlf_9serverlib6engine8database7inbuilt7strings4rpad11RpadCommandNtNtB8_7command20InbuiltServerCommand5usageBe_
FN:8,_RNvYNtNtNtNtNtNtCsksqSOdb1Dlf_9serverlib6engine8database7inbuilt8advanced4conv11ConvCommandNtNtB8_7command20InbuiltServerCommand5usageBe_
FN:8,_RNvYNtNtNtNtNtNtCsksqSOdb1Dlf_9serverlib6engine8database7inbuilt8datetime6second13SecondCommandNtNtB8_7command20InbuiltServerCommand5usageBe_
FN:8,_RNvYNtNtNtNtNtNtCsksqSOdb1Dlf_9serverlib6engine8database7inbuilt8datetime9localtime16LocalTimeCommandNtNtB8_7command20InbuiltServerCommand5usageBe_
FN:8,_RNvYNtNtNtNtNtNtCsksqSOdb1Dlf_9serverlib6engine8database7inbuilt7numeric3pow10PowCommandNtNtB8_7command20InbuiltServerCommand5usageBe_
FN:8,_RNvYNtNtNtNtNtNtCsksqSOdb1Dlf_9serverlib6engine8database7inbuilt7numeric4acos11AcosCommandNtNtB8_7command20InbuiltServerCommand5usageBe_
FN:8,_RNvYNtNtNtNtNtNtCsksqSOdb1Dlf_9serverlib6engine8database7inbuilt7numeric2pi9PiCommandNtNtB8_7command20InbuiltServerCommand5usageBe_
FN:8,_RNvYNtNtNtNtNtNtCsksqSOdb1Dlf_9serverlib6engine8database7inbuilt7numeric6modulo13ModuloCommandNtNtB8_7command20InbuiltServerCommand5usageBe_
FN:8,_RNvYNtNtNtNtNtNtCsksqSOdb1Dlf_9serverlib6engine8database7inbuilt8advanced12current_user18CurrentUserCommandNtNtB8_7command20InbuiltServerCommand5usageBe_
FN:8,_RNvYNtNtNtNtNtNtCsksqSOdb1Dlf_9serverlib6engine8database7inbuilt7strings5lower12LowerCommandNtNtB8_7command20InbuiltServerCommand5usageBe_
FNDA:0,_RNvYNtNtNtNtNtNtCsksqSOdb1Dlf_9serverlib6engine8database7inbuilt7numeric3log10LogCommandNtNtB8_7command20InbuiltServerCommand5usageBe_
FNDA:0,_RNvYNtNtNtNtNtNtCsksqSOdb1Dlf_9serverlib6engine8database7inbuilt7numeric8truncate15TruncateCommandNtNtB8_7command20InbuiltServerCommand5usageBe_
FNDA:0,_RNvYNtNtNtNtNtNtCsksqSOdb1Dlf_9serverlib6engine8database7inbuilt8datetime10dayofmonth17DayOfMonthCommandNtNtB8_7command20InbuiltServerCommand5usageBe_
FNDA:0,_RNvYNtNtNtNtNtNtCsksqSOdb1Dlf_9serverlib6engine8database7inbuilt7numeric3cot10CotCommandNtNtB8_7command20InbuiltServerCommand5usageBe_
FNDA:0,_RNvYNtNtNtNtNtNtCsksqSOdb1Dlf_9serverlib6engine8database7inbuilt7numeric4sqrt11SqrtCommandNtNtB8_7command20InbuiltServerCommand5usageBe_
FNDA:0,_RNvYNtNtNtNtNtNtCsksqSOdb1Dlf_9serverlib6engine8database7inbuilt8datetime10weekofyear17WeekOfYearCommandNtNtB8_7command20InbuiltServerCommand5usageBe_
FNDA:0,_RNvYNtNtNtNtNtNtCsksqSOdb1Dlf_9serverlib6engine8database7inbuilt8datetime11str_to_date16StrToDateCommandNtNtB8_7command20InbuiltServerCommand5usageBe_
FNDA:0,_RNvYNtNtNtNtNtNtCsksqSOdb1Dlf_9serverlib6engine8database7inbuilt8datetime11time_format17TimeFormatCommandNtNtB8_7command20InbuiltServerCommand5usageBe_
FNDA:0,_RNvYNtNtNtNtNtNtCsksqSOdb1Dlf_9serverlib6engine8database7inbuilt8datetime7quarter14QuarterCommandNtNtB8_7command20InbuiltServerCommand5usageBe_
FNDA:0,_RNvYNtNtNtNtNtNtCsksqSOdb1Dlf_9serverlib6engine8database7inbuilt8advanced4user11UserCommandNtNtB8_7command20InbuiltServerCommand5usageBe_
FNDA:0,_RNvYNtNtNtNtNtNtCsksqSOdb1Dlf_9serverlib6engine8database7inbuilt8datetime9dayofweek16DayOfWeekCommandNtNtB8_7command20InbuiltServerCommand5usageBe_
FNDA:0,_RNvYNtNtNtNtNtNtCsksqSOdb1Dlf_9serverlib6engine8database7inbuilt7numeric4rand11RandCommandNtNtB8_7command20InbuiltServerCommand5usageBe_
FNDA:0,_RNvYNtNtNtNtNtNtCsksqSOdb1Dlf_9serverlib6engine8database7inbuilt7numeric5atan212Atan2CommandNtNtB8_7command20InbuiltServerCommand5usageBe_
FNDA:0,_RNvYNtNtNtNtNtNtCsksqSOdb1Dlf_9serverlib6engine8database7inbuilt8advanced13connection_id19ConnectionIdCommandNtNtB8_7command20InbuiltServerCommand5usageBe_
FNDA:0,_RNvYNtNtNtNtNtNtCsksqSOdb1Dlf_9serverlib6engine8database7inbuilt7numeric5round12RoundCommandNtNtB8_7command20InbuiltServerCommand5usageBe_
FNDA:0,_RNvYNtNtNtNtNtNtCsksqSOdb1Dlf_9serverlib6engine8database7inbuilt8datetime7curdate14CurDateCommandNtNtB8_7command20InbuiltServerCommand5usageBe_
FNDA:0,_RNvYNtNtNtNtNtNtCsksqSOdb1Dlf_9serverlib6engine8database7inbuilt8datetime14localtimestamp21LocalTimestampCommandNtNtB8_7command20InbuiltServerCommand5usageBe_
FNDA:0,_RNvYNtNtNtNtNtNtCsksqSOdb1Dlf_9serverlib6engine8database7inbuilt8advanced6nullif13NullIfCommandNtNtB8_7command20InbuiltServerCommand5usageBe_
FNDA:0,_RNvYNtNtNtNtNtNtCsksqSOdb1Dlf_9serverlib6engine8database7inbuilt7strings6format13FormatCommandNtNtB8_7command20InbuiltServerCommand5usageBe_
FNDA:0,_RNvYNtNtNtNtNtNtCsksqSOdb1Dlf_9serverlib6engine8database7inbuilt7numeric3sin10SinCommandNtNtB8_7command20InbuiltServerCommand5usageBe_
FNDA:0,_RNvYNtNtNtNtNtNtCsksqSOdb1Dlf_9serverlib6engine8database7inbuilt7strings5ltrim12LtrimCommandNtNtB8_7command20InbuiltServerCommand5usageBe_
FNDA:0,_RNvYNtNtNtNtNtNtCsksqSOdb1Dlf_9serverlib6engine8database7inbuilt7numeric2ln9LnCommandNtNtB8_7command20InbuiltServerCommand5usageBe_
FNDA:0,_RNvYNtNtNtNtNtNtCsksqSOdb1Dlf_9serverlib6engine8database7inbuilt7strings11find_in_set16FindInSetCommandNtNtB8_7command20InbuiltServerCommand5usageBe_
FNDA:0,_RNvYNtNtNtNtNtNtCsksqSOdb1Dlf_9serverlib6engine8database7inbuilt7strings7reverse14ReverseCommandNtNtB8_7command20InbuiltServerCommand5usageBe_
FNDA:0,_RNvYNtNtNtNtNtNtCsksqSOdb1Dlf_9serverlib6engine8database7inbuilt8advanced6ifnull13IfNullCommandNtNtB8_7command20InbuiltServerCommand5usageBe_
FNDA:0,_RNvYNtNtNtNtNtNtCsksqSOdb1Dlf_9serverlib6engine8database7inbuilt8datetime11sec_to_time16SecToTimeCommandNtNtB8_7command20InbuiltServerCommand5usageBe_
FNDA:0,_RNvYNtNtNtNtNtNtCsksqSOdb1Dlf_9serverlib6engine8database7inbuilt8datetime8maketime15MakeTimeCommandNtNtB8_7command20InbuiltServerCommand5usageBe_
FNDA:0,_RNvYNtNtNtNtNtNtCsksqSOdb1Dlf_9serverlib6engine8database7inbuilt7numeric8greatest15GreatestCommandNtNtB8_7command20InbuiltServerCommand5usageBe_
FNDA:0,_RNvYNtNtNtNtNtNtCsksqSOdb1Dlf_9serverlib6engine8database7inbuilt7strings5upper12UpperCommandNtNtB8_7command20InbuiltServerCommand5usageBe_
FNDA:0,_RNvYNtNtNtNtNtNtCsksqSOdb1Dlf_9serverlib6engine8database7inbuilt7strings6locate13LocateCommandNtNtB8_7command20InbuiltServerCommand5usageBe_
FNDA:0,_RNvYNtNtNtNtNtNtCsksqSOdb1Dlf_9serverlib6engine8database7inbuilt7strings8concat_w14ConcatWCommandNtNtB8_7command20InbuiltServerCommand5usageBe_
FNDA:0,_RNvYNtNtNtNtNtNtCsksqSOdb1Dlf_9serverlib6engine8database7inbuilt8advanced4case11CaseCommandNtNtB8_7command20InbuiltServerCommand5usageBe_
FNDA:0,_RNvYNtNtNtNtNtNtCsksqSOdb1Dlf_9serverlib6engine8database7inbuilt8datetime11period_diff17PeriodDiffCommandNtNtB8_7command20InbuiltServerCommand5usageBe_
FNDA:0,_RNvYNtNtNtNtNtNtCsksqSOdb1Dlf_9serverlib6engine8database7inbuilt8datetime7addtime14AddTimeCommandNtNtB8_7command20InbuiltServerCommand5usageBe_
FNDA:0,_RNvYNtNtNtNtNtNtCsksqSOdb1Dlf_9serverlib6engine8database7inbuilt8datetime7extract14ExtractCommandNtNtB8_7command20InbuiltServerCommand5usageBe_
FNDA:0,_RNvYNtNtNtNtNtNtCsksqSOdb1Dlf_9serverlib6engine8database7inbuilt7numeric3exp10ExpCommandNtNtB8_7command20InbuiltServerCommand5usageBe_
FNDA:0,_RNvYNtNtNtNtNtNtCsksqSOdb1Dlf_9serverlib6engine8database7inbuilt7numeric3tan10TanCommandNtNtB8_7command20InbuiltServerCommand5usageBe_
FNDA:0,_RNvYNtNtNtNtNtNtCsksqSOdb1Dlf_9serverlib6engine8database7inbuilt8datetime7adddate14AddDateCommandNtNtB8_7command20InbuiltServerCommand5usageBe_
FNDA:0,_RNvYNtNtNtNtNtNtCsksqSOdb1Dlf_9serverlib6engine8database7inbuilt8datetime7to_days13ToDaysCommandNtNtB8_7command20InbuiltServerCommand5usageBe_
FNDA:0,_RNvYNtNtNtNtNtNtCsksqSOdb1Dlf_9serverlib6engine8database7inbuilt8datetime8datediff15DateDiffCommandNtNtB8_7command20InbuiltServerCommand5usageBe_
FNDA:0,_RNvYNtNtNtNtNtNtCsksqSOdb1Dlf_9serverlib6engine8database7inbuilt8datetime9dayofyear16DayOfYearCommandNtNtB8_7command20InbuiltServerCommand5usageBe_
FNDA:0,_RNvYNtNtNtNtNtNtCsksqSOdb1Dlf_9serverlib6engine8database7inbuilt7strings6length13LengthCommandNtNtB8_7command20InbuiltServerCommand5usageBe_
FNDA:0,_RNvYNtNtNtNtNtNtCsksqSOdb1Dlf_9serverlib6engine8database7inbuilt7strings7replace14ReplaceCommandNtNtB8_7command20InbuiltServerCommand5usageBe_
FNDA:0,_RNvYNtNtNtNtNtNtCsksqSOdb1Dlf_9serverlib6engine8database7inbuilt7strings3mid10MidCommandNtNtB8_7command20InbuiltServerCommand5usageBe_
FNDA:0,_RNvYNtNtNtNtNtNtCsksqSOdb1Dlf_9serverlib6engine8database7inbuilt7numeric3abs10AbsCommandNtNtB8_7command20InbuiltServerCommand5usageBe_
FNDA:0,_RNvYNtNtNtNtNtNtCsksqSOdb1Dlf_9serverlib6engine8database7inbuilt7numeric4atan11AtanCommandNtNtB8_7command20InbuiltServerCommand5usageBe_
FNDA:0,_RNvYNtNtNtNtNtNtCsksqSOdb1Dlf_9serverlib6engine8database7inbuilt7numeric4ceil11CeilCommandNtNtB8_7command20InbuiltServerCommand5usageBe_
FNDA:0,_RNvYNtNtNtNtNtNtCsksqSOdb1Dlf_9serverlib6engine8database7inbuilt7numeric3div10DivCommandNtNtB8_7command20InbuiltServerCommand5usageBe_
FNDA:0,_RNvYNtNtNtNtNtNtCsksqSOdb1Dlf_9serverlib6engine8database7inbuilt7strings4trim11TrimCommandNtNtB8_7command20InbuiltServerCommand5usageBe_
FNDA:0,_RNvYNtNtNtNtNtNtCsksqSOdb1Dlf_9serverlib6engine8database7inbuilt8advanced3bin10BinCommandNtNtB8_7command20InbuiltServerCommand5usageBe_
FNDA:0,_RNvYNtNtNtNtNtNtCsksqSOdb1Dlf_9serverlib6engine8database7inbuilt7numeric3min10MinCommandNtNtB8_7command20InbuiltServerCommand5usageBe_
FNDA:0,_RNvYNtNtNtNtNtNtCsksqSOdb1Dlf_9serverlib6engine8database7inbuilt7numeric5least12LeastCommandNtNtB8_7command20InbuiltServerCommand5usageBe_
FNDA:0,_RNvYNtNtNtNtNtNtCsksqSOdb1Dlf_9serverlib6engine8database7inbuilt8advanced6isnull13IsNullCommandNtNtB8_7command20InbuiltServerCommand5usageBe_
FNDA:0,_RNvYNtNtNtNtNtNtCsksqSOdb1Dlf_9serverlib6engine8database7inbuilt8advanced7version14VersionCommandNtNtB8_7command20InbuiltServerCommand5usageBe_
FNDA:0,_RNvYNtNtNtNtNtNtCsksqSOdb1Dlf_9serverlib6engine8database7inbuilt8datetime4hour11HourCommandNtNtB8_7command20InbuiltServerCommand5usageBe_
FNDA:0,_RNvYNtNtNtNtNtNtCsksqSOdb1Dlf_9serverlib6engine8database7inbuilt8datetime4time11TimeCommandNtNtB8_7command20InbuiltServerCommand5usageBe_
FNDA:0,_RNvYNtNtNtNtNtNtCsksqSOdb1Dlf_9serverlib6engine8database7inbuilt8datetime4week11WeekCommandNtNtB8_7command20InbuiltServerCommand5usageBe_
FNDA:0,_RNvYNtNtNtNtNtNtCsksqSOdb1Dlf_9serverlib6engine8database7inbuilt8datetime8makedate15MakeDateCommandNtNtB8_7command20InbuiltServerCommand5usageBe_
FNDA:0,_RNvYNtNtNtNtNtNtCsksqSOdb1Dlf_9serverlib6engine8database7inbuilt8datetime3day10DayCommandNtNtB8_7command20InbuiltServerCommand5usageBe_
FNDA:0,_RNvYNtNtNtNtNtNtCsksqSOdb1Dlf_9serverlib6engine8database7inbuilt7strings6insert13InsertCommandNtNtB8_7command20InbuiltServerCommand5usageBe_
FNDA:0,_RNvYNtNtNtNtNtNtCsksqSOdb1Dlf_9serverlib6engine8database7inbuilt7numeric5log1012Log10CommandNtNtB8_7command20InbuiltServerCommand5usageBe_
FNDA:0,_RNvYNtNtNtNtNtNtCsksqSOdb1Dlf_9serverlib6engine8database7inbuilt7numeric4log211Log2CommandNtNtB8_7command20InbuiltServerCommand5usageBe_
FNDA:0,_RNvYNtNtNtNtNtNtCsksqSOdb1Dlf_9serverlib6engine8database7inbuilt7strings4left11LeftCommandNtNtB8_7command20InbuiltServerCommand5usageBe_
FNDA:0,_RNvYNtNtNtNtNtNtCsksqSOdb1Dlf_9serverlib6engine8database7inbuilt7strings5instr12InstrCommandNtNtB8_7command20InbuiltServerCommand5usageBe_
FNDA:0,_RNvYNtNtNtNtNtNtCsksqSOdb1Dlf_9serverlib6engine8database7inbuilt8advanced4cast11CastCommandNtNtB8_7command20InbuiltServerCommand5usageBe_
FNDA:0,_RNvYNtNtNtNtNtNtCsksqSOdb1Dlf_9serverlib6engine8database7inbuilt8datetime13unixtimestamp20UnixTimestampCommandNtNtB8_7command20InbuiltServerCommand5usageBe_
FNDA:0,_RNvYNtNtNtNtNtNtCsksqSOdb1Dlf_9serverlib6engine8database7inbuilt8datetime7dayname14DayNameCommandNtNtB8_7command20InbuiltServerCommand5usageBe_
FNDA:0,_RNvYNtNtNtNtNtNtCsksqSOdb1Dlf_9serverlib6engine8database7inbuilt8datetime7sysdate14SysDateCommandNtNtB8_7command20InbuiltServerCommand5usageBe_
FNDA:0,_RNvYNtNtNtNtNtNtCsksqSOdb1Dlf_9serverlib6engine8database7inbuilt8datetime8yearweek15YearWeekCommandNtNtB8_7command20InbuiltServerCommand5usageBe_
FNDA:0,_RNvYNtNtNtNtNtNtCsksqSOdb1Dlf_9serverlib6engine8database7inbuilt8datetime9from_days15FromDaysCommandNtNtB8_7command20InbuiltServerCommand5usageBe_
FNDA:0,_RNvYNtNtNtNtNtNtCsksqSOdb1Dlf_9serverlib6engine8database7inbuilt8advanced8coalesce15CoalesceCommandNtNtB8_7command20InbuiltServerCommand5usageBe_
FNDA:0,_RNvYNtNtNtNtNtNtCsksqSOdb1Dlf_9serverlib6engine8database7inbuilt7strings5right12RightCommandNtNtB8_7command20InbuiltServerCommand5usageBe_
FNDA:0,_RNvYNtNtNtNtNtNtCsksqSOdb1Dlf_9serverlib6engine8database7inbuilt7strings8position15PositionCommandNtNtB8_7command20InbuiltServerCommand5usageBe_
FNDA:0,_RNvYNtNtNtNtNtNtCsksqSOdb1Dlf_9serverlib6engine8database7inbuilt8datetime11microsecond18MicrosecondCommandNtNtB8_7command20InbuiltServerCommand5usageBe_
FNDA:0,_RNvYNtNtNtNtNtNtCsksqSOdb1Dlf_9serverlib6engine8database7inbuilt3geo8distance15DistanceCommandNtNtB8_7command20InbuiltServerCommand5usageBe_
FNDA:0,_RNvYNtNtNtNtNtNtCsksqSOdb1Dlf_9serverlib6engine8database7inbuilt7numeric4asin11AsinCommandNtNtB8_7command20InbuiltServerCommand5usageBe_
FNDA:0,_RNvYNtNtNtNtNtNtCsksqSOdb1Dlf_9serverlib6engine8database7inbuilt7numeric7degrees14DegreesCommandNtNtB8_7command20InbuiltServerCommand5usageBe_
FNDA:0,_RNvYNtNtNtNtNtNtCsksqSOdb1Dlf_9serverlib6engine8database7inbuilt7strings6substr13SubstrCommandNtNtB8_7command20InbuiltServerCommand5usageBe_
FNDA:0,_RNvYNtNtNtNtNtNtCsksqSOdb1Dlf_9serverlib6engine8database7inbuilt8advanced14last_insert_id19LastInsertIdCommandNtNtB8_7command20InbuiltServerCommand5usageBe_
FNDA:0,_RNvYNtNtNtNtNtNtCsksqSOdb1Dlf_9serverlib6engine8database7inbuilt8datetime3now10NowCommandNtNtB8_7command20InbuiltServerCommand5usageBe_
FNDA:0,_RNvYNtNtNtNtNtNtCsksqSOdb1Dlf_9serverlib6engine8database7inbuilt8datetime7subtime14SubTimeCommandNtNtB8_7command20InbuiltServerCommand5usageBe_
FNDA:0,_RNvYNtNtNtNtNtNtCsksqSOdb1Dlf_9serverlib6engine8database7inbuilt8datetime7weekday14WeekdayCommandNtNtB8_7command20InbuiltServerCommand5usageBe_
FNDA:0,_RNvYNtNtNtNtNtNtCsksqSOdb1Dlf_9serverlib6engine8database7inbuilt7numeric5floor12FloorCommandNtNtB8_7command20InbuiltServerCommand5usageBe_
FNDA:0,_RNvYNtNtNtNtNtNtCsksqSOdb1Dlf_9serverlib6engine8database7inbuilt7strings11char_length17CharLengthCommandNtNtB8_7command20InbuiltServerCommand5usageBe_
FNDA:0,_RNvYNtNtNtNtNtNtCsksqSOdb1Dlf_9serverlib6engine8database7inbuilt7strings4lpad11LpadCommandNtNtB8_7command20InbuiltServerCommand5usageBe_
FNDA:0,_RNvYNtNtNtNtNtNtCsksqSOdb1Dlf_9serverlib6engine8database7inbuilt8advanced9ifcommand9IfCommandNtNtB8_7command20InbuiltServerCommand5usageBe_
FNDA:0,_RNvYNtNtNtNtNtNtCsksqSOdb1Dlf_9serverlib6engine8database7inbuilt8datetime10period_add16PeriodAddCommandNtNtB8_7command20InbuiltServerCommand5usageBe_
FNDA:0,_RNvYNtNtNtNtNtNtCsksqSOdb1Dlf_9serverlib6engine8database7inbuilt8datetime11date_format17DateFormatCommandNtNtB8_7command20InbuiltServerCommand5usageBe_
FNDA:0,_RNvYNtNtNtNtNtNtCsksqSOdb1Dlf_9serverlib6engine8database7inbuilt8datetime11time_to_sec16TimeToSecCommandNtNtB8_7command20InbuiltServerCommand5usageBe_
FNDA:0,_RNvYNtNtNtNtNtNtCsksqSOdb1Dlf_9serverlib6engine8database7inbuilt7strings5rtrim12RtrimCommandNtNtB8_7command20InbuiltServerCommand5usageBe_
FNDA:0,_RNvYNtNtNtNtNtNtCsksqSOdb1Dlf_9serverlib6engine8database7inbuilt7strings15substring_index21SubstringIndexCommandNtNtB8_7command20InbuiltServerCommand5usageBe_
FNDA:0,_RNvYNtNtNtNtNtNtCsksqSOdb1Dlf_9serverlib6engine8database7inbuilt7strings5field12FieldCommandNtNtB8_7command20InbuiltServerCommand5usageBe_
FNDA:0,_RNvYNtNtNtNtNtNtCsksqSOdb1Dlf_9serverlib6engine8database7inbuilt8datetime5month12MonthCommandNtNtB8_7command20InbuiltServerCommand5usageBe_
FNDA:0,_RNvYNtNtNtNtNtNtCsksqSOdb1Dlf_9serverlib6engine8database7inbuilt8datetime8last_day14LastDayCommandNtNtB8_7command20InbuiltServerCommand5usageBe_
FNDA:0,_RNvYNtNtNtNtNtNtCsksqSOdb1Dlf_9serverlib6engine8database7inbuilt7numeric4sign11SignCommandNtNtB8_7command20InbuiltServerCommand5usageBe_
FNDA:0,_RNvYNtNtNtNtNtNtCsksqSOdb1Dlf_9serverlib6engine8database7inbuilt7numeric3sum10SumCommandNtNtB8_7command20InbuiltServerCommand5usageBe_
FNDA:0,_RNvYNtNtNtNtNtNtCsksqSOdb1Dlf_9serverlib6engine8database7inbuilt7strings5space12SpaceCommandNtNtB8_7command20InbuiltServerCommand5usageBe_
FNDA:0,_RNvYNtNtNtNtNtNtCsksqSOdb1Dlf_9serverlib6engine8database7inbuilt7numeric3max10MaxCommandNtNtB8_7command20InbuiltServerCommand5usageBe_
FNDA:0,_RNvYNtNtNtNtNtNtCsksqSOdb1Dlf_9serverlib6engine8database7inbuilt7numeric5count12CountCommandNtNtB8_7command20InbuiltServerCommand5usageBe_
FNDA:0,_RNvYNtNtNtNtNtNtCsksqSOdb1Dlf_9serverlib6engine8database7inbuilt8advanced11system_user17SystemUserCommandNtNtB8_7command20InbuiltServerCommand5usageBe_
FNDA:0,_RNvYNtNtNtNtNtNtCsksqSOdb1Dlf_9serverlib6engine8database7inbuilt8datetime4year11YearCommandNtNtB8_7command20InbuiltServerCommand5usageBe_
FNDA:0,_RNvYNtNtNtNtNtNtCsksqSOdb1Dlf_9serverlib6engine8database7inbuilt8datetime6minute13MinuteCommandNtNtB8_7command20InbuiltServerCommand5usageBe_
FNDA:0,_RNvYNtNtNtNtNtNtCsksqSOdb1Dlf_9serverlib6engine8database7inbuilt8datetime7curtime14CurTimeCommandNtNtB8_7command20InbuiltServerCommand5usageBe_
FNDA:0,_RNvYNtNtNtNtNtNtCsksqSOdb1Dlf_9serverlib6engine8database7inbuilt7numeric7radians14RadiansCommandNtNtB8_7command20InbuiltServerCommand5usageBe_
FNDA:0,_RNvYNtNtNtNtNtNtCsksqSOdb1Dlf_9serverlib6engine8database7inbuilt7strings5ascii12AsciiCommandNtNtB8_7command20InbuiltServerCommand5usageBe_
FNDA:0,_RNvYNtNtNtNtNtNtCsksqSOdb1Dlf_9serverlib6engine8database7inbuilt7strings6repeat13RepeatCommandNtNtB8_7command20InbuiltServerCommand5usageBe_
FNDA:0,_RNvYNtNtNtNtNtNtCsksqSOdb1Dlf_9serverlib6engine8database7inbuilt8advanced7convert14ConvertCommandNtNtB8_7command20InbuiltServerCommand5usageBe_
FNDA:0,_RNvYNtNtNtNtNtNtCsksqSOdb1Dlf_9serverlib6engine8database7inbuilt8datetime4date11DateCommandNtNtB8_7command20InbuiltServerCommand5usageBe_
FNDA:0,_RNvYNtNtNtNtNtNtCsksqSOdb1Dlf_9serverlib6engine8database7inbuilt8datetime7subdate14SubDateCommandNtNtB8_7command20InbuiltServerCommand5usageBe_
FNDA:0,_RNvYNtNtNtNtNtNtCsksqSOdb1Dlf_9serverlib6engine8database7inbuilt8datetime8timediff15TimeDiffCommandNtNtB8_7command20InbuiltServerCommand5usageBe_
FNDA:0,_RNvYNtNtNtNtNtNtCsksqSOdb1Dlf_9serverlib6engine8database7inbuilt8datetime9timestamp16TimestampCommandNtNtB8_7command20InbuiltServerCommand5usageBe_
FNDA:0,_RNvYNtNtNtNtNtNtCsksqSOdb1Dlf_9serverlib6engine8database7inbuilt8advanced8database15DatabaseCommandNtNtB8_7command20InbuiltServerCommand5usageBe_
FNDA:0,_RNvYNtNtNtNtNtNtCsksqSOdb1Dlf_9serverlib6engine8database7inbuilt8advanced6binary13BinaryCommandNtNtB8_7command20InbuiltServerCommand5usageBe_
FNDA:0,_RNvYNtNtNtNtNtNtCsksqSOdb1Dlf_9serverlib6engine8database7inbuilt7strings6concat13ConcatCommandNtNtB8_7command20InbuiltServerCommand5usageBe_
FNDA:0,_RNvYNtNtNtNtNtNtCsksqSOdb1Dlf_9serverlib6engine8database7inbuilt8advanced12session_user18SessionUserCommandNtNtB8_7command20InbuiltServerCommand5usageBe_
FNDA:0,_RNvYNtNtNtNtNtNtCsksqSOdb1Dlf_9serverlib6engine8database7inbuilt7numeric3avg10AvgCommandNtNtB8_7command20InbuiltServerCommand5usageBe_
FNDA:0,_RNvYNtNtNtNtNtNtCsksqSOdb1Dlf_9serverlib6engine8database7inbuilt7numeric3cos10CosCommandNtNtB8_7command20InbuiltServerCommand5usageBe_
FNDA:0,_RNvYNtNtNtNtNtNtCsksqSOdb1Dlf_9serverlib6engine8database7inbuilt7strings4rpad11RpadCommandNtNtB8_7command20InbuiltServerCommand5usageBe_
FNDA:0,_RNvYNtNtNtNtNtNtCsksqSOdb1Dlf_9serverlib6engine8database7inbuilt8advanced4conv11ConvCommandNtNtB8_7command20InbuiltServerCommand5usageBe_
FNDA:0,_RNvYNtNtNtNtNtNtCsksqSOdb1Dlf_9serverlib6engine8database7inbuilt8datetime6second13SecondCommandNtNtB8_7command20InbuiltServerCommand5usageBe_
FNDA:0,_RNvYNtNtNtNtNtNtCsksqSOdb1Dlf_9serverlib6engine8database7inbuilt8datetime9localtime16LocalTimeCommandNtNtB8_7command20InbuiltServerCommand5usageBe_
FNDA:0,_RNvYNtNtNtNtNtNtCsksqSOdb1Dlf_9serverlib6engine8database7inbuilt7numeric3pow10PowCommandNtNtB8_7command20InbuiltServerCommand5usageBe_
FNDA:0,_RNvYNtNtNtNtNtNtCsksqSOdb1Dlf_9serverlib6engine8database7inbuilt7numeric4acos11AcosCommandNtNtB8_7command20InbuiltServerCommand5usageBe_
FNDA:0,_RNvYNtNtNtNtNtNtCsksqSOdb1Dlf_9serverlib6engine8database7inbuilt7numeric2pi9PiCommandNtNtB8_7command20InbuiltServerCommand5usageBe_
FNDA:0,_RNvYNtNtNtNtNtNtCsksqSOdb1Dlf_9serverlib6engine8database7inbuilt7numeric6modulo13ModuloCommandNtNtB8_7command20InbuiltServerCommand5usageBe_
FNDA:0,_RNvYNtNtNtNtNtNtCsksqSOdb1Dlf_9serverlib6engine8database7inbuilt8advanced12current_user18CurrentUserCommandNtNtB8_7command20InbuiltServerCommand5usageBe_
FNDA:0,_RNvYNtNtNtNtNtNtCsksqSOdb1Dlf_9serverlib6engine8database7inbuilt7strings5lower12LowerCommandNtNtB8_7command20InbuiltServerCommand5usageBe_
FNF:1
FNH:0
DA:8,0
DA:9,0
DA:10,0
BRF:0
BRH:0
LF:3
LH:0
end_of_record
SF:/Users/samcolak/Source Code/rust/distdb/distdb/serverlib/src/engine/database/inbuilt/custom/lookup.rs
FN:87,_RNCNvNtNtNtNtNtCsksqSOdb1Dlf_9serverlib6engine8database7inbuilt6custom6lookup30parse_identifier_or_string_arg0Bd_
FN:41,_RNCNvXNtNtNtNtNtCsksqSOdb1Dlf_9serverlib6engine8database7inbuilt6custom6lookupNtB4_13LookupCommandNtNtB8_7command20InbuiltServerCommand8evaluate0Be_
FN:110,_RNvNtNtNtNtNtCsksqSOdb1Dlf_9serverlib6engine8database7inbuilt6custom6lookup12is_null_like
FN:72,_RNvNtNtNtNtNtCsksqSOdb1Dlf_9serverlib6engine8database7inbuilt6custom6lookup30parse_identifier_or_string_arg
FN:20,_RNvXNtNtNtNtNtCsksqSOdb1Dlf_9serverlib6engine8database7inbuilt6custom6lookupNtB2_13LookupCommandNtNtB6_7command20InbuiltServerCommand4name
FN:24,_RNvXNtNtNtNtNtCsksqSOdb1Dlf_9serverlib6engine8database7inbuilt6custom6lookupNtB2_13LookupCommandNtNtB6_7command20InbuiltServerCommand5usage
FN:28,_RNvXNtNtNtNtNtCsksqSOdb1Dlf_9serverlib6engine8database7inbuilt6custom6lookupNtB2_13LookupCommandNtNtB6_7command20InbuiltServerCommand8evaluate
FNDA:0,_RNCNvNtNtNtNtNtCsksqSOdb1Dlf_9serverlib6engine8database7inbuilt6custom6lookup30parse_identifier_or_string_arg0Bd_
FNDA:0,_RNCNvXNtNtNtNtNtCsksqSOdb1Dlf_9serverlib6engine8database7inbuilt6custom6lookupNtB4_13LookupCommandNtNtB8_7command20InbuiltServerCommand8evaluate0Be_
FNDA:0,_RNvNtNtNtNtNtCsksqSOdb1Dlf_9serverlib6engine8database7inbuilt6custom6lookup12is_null_like
FNDA:0,_RNvNtNtNtNtNtCsksqSOdb1Dlf_9serverlib6engine8database7inbuilt6custom6lookup30parse_identifier_or_string_arg
FNDA:0,_RNvXNtNtNtNtNtCsksqSOdb1Dlf_9serverlib6engine8database7inbuilt6custom6lookupNtB2_13LookupCommandNtNtB6_7command20InbuiltServerCommand4name
FNDA:0,_RNvXNtNtNtNtNtCsksqSOdb1Dlf_9serverlib6engine8database7inbuilt6custom6lookupNtB2_13LookupCommandNtNtB6_7command20InbuiltServerCommand5usage
FNDA:0,_RNvXNtNtNtNtNtCsksqSOdb1Dlf_9serverlib6engine8database7inbuilt6custom6lookupNtB2_13LookupCommandNtNtB6_7command20InbuiltServerCommand8evaluate
FNF:7
FNH:0
DA:20,0
DA:21,0
DA:22,0
DA:24,0
DA:25,0
DA:26,0
DA:28,0
DA:30,0
DA:32,0
DA:33,0
DA:34,0
DA:35,0
DA:36,0
DA:37,0
DA:39,0
DA:40,0
DA:41,0
DA:42,0
DA:43,0
DA:44,0
DA:46,0
DA:50,0
DA:51,0
DA:52,0
DA:53,0
DA:54,0
DA:56,0
DA:57,0
DA:58,0
DA:59,0
DA:60,0
DA:61,0
DA:62,0
DA:63,0
DA:66,0
DA:68,0
DA:72,0
DA:73,0
DA:74,0
DA:75,0
DA:76,0
DA:78,0
DA:80,0
DA:82,0
DA:84,0
DA:85,0
DA:86,0
DA:87,0
DA:88,0
DA:89,0
DA:90,0
DA:94,0
DA:95,0
DA:96,0
DA:97,0
DA:98,0
DA:100,0
DA:101,0
DA:102,0
DA:103,0
DA:104,0
DA:108,0
DA:110,0
DA:111,0
DA:112,0
BRF:0
BRH:0
LF:67
LH:0
end_of_record
SF:/Users/samcolak/Source Code/rust/distdb/distdb/serverlib/src/engine/database/inbuilt/datetime/adddate.rs
FN:16,_RNvXNtNtNtNtNtCsksqSOdb1Dlf_9serverlib6engine8database7inbuilt8datetime7adddateNtB2_14AddDateCommandNtNtB6_7command20InbuiltServerCommand4name
FN:20,_RNvXNtNtNtNtNtCsksqSOdb1Dlf_9serverlib6engine8database7inbuilt8datetime7adddateNtB2_14AddDateCommandNtNtB6_7command20InbuiltServerCommand8evaluate
FN:34,_RNCNvXNtNtNtNtNtCsksqSOdb1Dlf_9serverlib6engine8database7inbuilt8datetime7adddateNtB4_14AddDateCommandNtNtB8_7command20InbuiltServerCommand8evaluate0Be_
FNDA:2,_RNvXNtNtNtNtNtCsksqSOdb1Dlf_9serverlib6engine8database7inbuilt8datetime7adddateNtB2_14AddDateCommandNtNtB6_7command20InbuiltServerCommand4name
FNDA:2,_RNvXNtNtNtNtNtCsksqSOdb1Dlf_9serverlib6engine8database7inbuilt8datetime7adddateNtB2_14AddDateCommandNtNtB6_7command20InbuiltServerCommand8evaluate
FNDA:2,_RNCNvXNtNtNtNtNtCsksqSOdb1Dlf_9serverlib6engine8database7inbuilt8datetime7adddateNtB4_14AddDateCommandNtNtB8_7command20InbuiltServerCommand8evaluate0Be_
FNF:3
FNH:3
DA:16,2
DA:17,2
DA:18,2
DA:20,2
DA:22,2
DA:24,2
DA:26,2
DA:27,0
DA:30,2
DA:31,0
DA:34,2
DA:36,2
BRF:0
BRH:0
LF:13
LH:11
end_of_record
SF:/Users/samcolak/Source Code/rust/distdb/distdb/serverlib/src/engine/database/inbuilt/datetime/addtime.rs
FN:18,_RNvXNtNtNtNtNtCsksqSOdb1Dlf_9serverlib6engine8database7inbuilt8datetime7addtimeNtB2_14AddTimeCommandNtNtB6_7command20InbuiltServerCommand4name
FN:22,_RNvXNtNtNtNtNtCsksqSOdb1Dlf_9serverlib6engine8database7inbuilt8datetime7addtimeNtB2_14AddTimeCommandNtNtB6_7command20InbuiltServerCommand8evaluate
FN:39,_RNCNvXNtNtNtNtNtCsksqSOdb1Dlf_9serverlib6engine8database7inbuilt8datetime7addtimeNtB4_14AddTimeCommandNtNtB8_7command20InbuiltServerCommand8evaluate0Be_
FN:55,_RNCNvXNtNtNtNtNtCsksqSOdb1Dlf_9serverlib6engine8database7inbuilt8datetime7addtimeNtB4_14AddTimeCommandNtNtB8_7command20InbuiltServerCommand8evaluates0_0Be_
FN:44,_RNCNvXNtNtNtNtNtCsksqSOdb1Dlf_9serverlib6engine8database7inbuilt8datetime7addtimeNtB4_14AddTimeCommandNtNtB8_7command20InbuiltServerCommand8evaluates_0Be_
FNDA:1,_RNvXNtNtNtNtNtCsksqSOdb1Dlf_9serverlib6engine8database7inbuilt8datetime7addtimeNtB2_14AddTimeCommandNtNtB6_7command20InbuiltServerCommand4name
FNDA:1,_RNvXNtNtNtNtNtCsksqSOdb1Dlf_9serverlib6engine8database7inbuilt8datetime7addtimeNtB2_14AddTimeCommandNtNtB6_7command20InbuiltServerCommand8evaluate
FNDA:1,_RNCNvXNtNtNtNtNtCsksqSOdb1Dlf_9serverlib6engine8database7inbuilt8datetime7addtimeNtB4_14AddTimeCommandNtNtB8_7command20InbuiltServerCommand8evaluate0Be_
FNDA:1,_RNCNvXNtNtNtNtNtCsksqSOdb1Dlf_9serverlib6engine8database7inbuilt8datetime7addtimeNtB4_14AddTimeCommandNtNtB8_7command20InbuiltServerCommand8evaluates0_0Be_
FNDA:0,_RNCNvXNtNtNtNtNtCsksqSOdb1Dlf_9serverlib6engine8database7inbuilt8datetime7addtimeNtB4_14AddTimeCommandNtNtB8_7command20InbuiltServerCommand8evaluates_0Be_
FNF:5
FNH:4
DA:18,1
DA:19,1
DA:20,1
DA:22,1
DA:24,1
DA:26,1
DA:28,1
DA:29,0
DA:32,1
DA:33,0
DA:36,1
DA:38,1
DA:39,1
DA:40,1
DA:42,0
DA:44,0
DA:45,0
DA:46,0
DA:47,0
DA:51,0
DA:55,1
DA:57,1
BRF:0
BRH:0
LF:25
LH:16
end_of_record
SF:/Users/samcolak/Source Code/rust/distdb/distdb/serverlib/src/engine/database/inbuilt/datetime/curdate.rs
FN:16,_RNvXNtNtNtNtNtCsksqSOdb1Dlf_9serverlib6engine8database7inbuilt8datetime7curdateNtB2_14CurDateCommandNtNtB6_7command20InbuiltServerCommand4name
FN:20,_RNvXNtNtNtNtNtCsksqSOdb1Dlf_9serverlib6engine8database7inbuilt8datetime7curdateNtB2_14CurDateCommandNtNtB6_7command20InbuiltServerCommand8evaluate
FNDA:2,_RNvXNtNtNtNtNtCsksqSOdb1Dlf_9serverlib6engine8database7inbuilt8datetime7curdateNtB2_14CurDateCommandNtNtB6_7command20InbuiltServerCommand4name
FNDA:2,_RNvXNtNtNtNtNtCsksqSOdb1Dlf_9serverlib6engine8database7inbuilt8datetime7curdateNtB2_14CurDateCommandNtNtB6_7command20InbuiltServerCommand8evaluate
FNF:2
FNH:2
DA:16,2
DA:17,2
DA:18,2
DA:20,2
DA:22,2
DA:24,2
DA:26,2
DA:28,2
BRF:0
BRH:0
LF:8
LH:8
end_of_record
SF:/Users/samcolak/Source Code/rust/distdb/distdb/serverlib/src/engine/database/inbuilt/datetime/current_date.rs
FN:16,_RNvXNtNtNtNtNtCsksqSOdb1Dlf_9serverlib6engine8database7inbuilt8datetime12current_dateNtB2_18CurrentDateCommandNtNtB6_7command20InbuiltServerCommand4name
FN:20,_RNvXNtNtNtNtNtCsksqSOdb1Dlf_9serverlib6engine8database7inbuilt8datetime12current_dateNtB2_18CurrentDateCommandNtNtB6_7command20InbuiltServerCommand8evaluate
FNDA:0,_RNvXNtNtNtNtNtCsksqSOdb1Dlf_9serverlib6engine8database7inbuilt8datetime12current_dateNtB2_18CurrentDateCommandNtNtB6_7command20InbuiltServerCommand4name
FNDA:0,_RNvXNtNtNtNtNtCsksqSOdb1Dlf_9serverlib6engine8database7inbuilt8datetime12current_dateNtB2_18CurrentDateCommandNtNtB6_7command20InbuiltServerCommand8evaluate
FNF:2
FNH:0
DA:16,0
DA:17,0
DA:18,0
DA:20,0
DA:22,0
DA:24,0
DA:26,0
DA:28,0
BRF:0
BRH:0
LF:8
LH:0
end_of_record
SF:/Users/samcolak/Source Code/rust/distdb/distdb/serverlib/src/engine/database/inbuilt/datetime/current_time.rs
FN:16,_RNvXNtNtNtNtNtCsksqSOdb1Dlf_9serverlib6engine8database7inbuilt8datetime12current_timeNtB2_18CurrentTimeCommandNtNtB6_7command20InbuiltServerCommand4name
FN:20,_RNvXNtNtNtNtNtCsksqSOdb1Dlf_9serverlib6engine8database7inbuilt8datetime12current_timeNtB2_18CurrentTimeCommandNtNtB6_7command20InbuiltServerCommand8evaluate
FNDA:0,_RNvXNtNtNtNtNtCsksqSOdb1Dlf_9serverlib6engine8database7inbuilt8datetime12current_timeNtB2_18CurrentTimeCommandNtNtB6_7command20InbuiltServerCommand4name
FNDA:0,_RNvXNtNtNtNtNtCsksqSOdb1Dlf_9serverlib6engine8database7inbuilt8datetime12current_timeNtB2_18CurrentTimeCommandNtNtB6_7command20InbuiltServerCommand8evaluate
FNF:2
FNH:0
DA:16,0
DA:17,0
DA:18,0
DA:20,0
DA:22,0
DA:24,0
DA:26,0
DA:28,0
BRF:0
BRH:0
LF:8
LH:0
end_of_record
SF:/Users/samcolak/Source Code/rust/distdb/distdb/serverlib/src/engine/database/inbuilt/datetime/curtime.rs
FN:16,_RNvXNtNtNtNtNtCsksqSOdb1Dlf_9serverlib6engine8database7inbuilt8datetime7curtimeNtB2_14CurTimeCommandNtNtB6_7command20InbuiltServerCommand4name
FN:20,_RNvXNtNtNtNtNtCsksqSOdb1Dlf_9serverlib6engine8database7inbuilt8datetime7curtimeNtB2_14CurTimeCommandNtNtB6_7command20InbuiltServerCommand8evaluate
FNDA:2,_RNvXNtNtNtNtNtCsksqSOdb1Dlf_9serverlib6engine8database7inbuilt8datetime7curtimeNtB2_14CurTimeCommandNtNtB6_7command20InbuiltServerCommand4name
FNDA:2,_RNvXNtNtNtNtNtCsksqSOdb1Dlf_9serverlib6engine8database7inbuilt8datetime7curtimeNtB2_14CurTimeCommandNtNtB6_7command20InbuiltServerCommand8evaluate
FNF:2
FNH:2
DA:16,2
DA:17,2
DA:18,2
DA:20,2
DA:22,2
DA:24,2
DA:26,2
DA:28,2
BRF:0
BRH:0
LF:8
LH:8
end_of_record
SF:/Users/samcolak/Source Code/rust/distdb/distdb/serverlib/src/engine/database/inbuilt/datetime/date.rs
FN:16,_RNvXNtNtNtNtNtCsksqSOdb1Dlf_9serverlib6engine8database7inbuilt8datetime4dateNtB2_11DateCommandNtNtB6_7command20InbuiltServerCommand4name
FN:20,_RNvXNtNtNtNtNtCsksqSOdb1Dlf_9serverlib6engine8database7inbuilt8datetime4dateNtB2_11DateCommandNtNtB6_7command20InbuiltServerCommand8evaluate
FN:32,_RNCNCNvXNtNtNtNtNtCsksqSOdb1Dlf_9serverlib6engine8database7inbuilt8datetime4dateNtB6_11DateCommandNtNtBa_7command20InbuiltServerCommand8evaluates_00Bg_
FN:31,_RNCNvXNtNtNtNtNtCsksqSOdb1Dlf_9serverlib6engine8database7inbuilt8datetime4dateNtB4_11DateCommandNtNtB8_7command20InbuiltServerCommand8evaluate0Be_
FN:33,_RNCNvXNtNtNtNtNtCsksqSOdb1Dlf_9serverlib6engine8database7inbuilt8datetime4dateNtB4_11DateCommandNtNtB8_7command20InbuiltServerCommand8evaluates0_0Be_
FN:32,_RNCNvXNtNtNtNtNtCsksqSOdb1Dlf_9serverlib6engine8database7inbuilt8datetime4dateNtB4_11DateCommandNtNtB8_7command20InbuiltServerCommand8evaluates_0Be_
FNDA:1,_RNvXNtNtNtNtNtCsksqSOdb1Dlf_9serverlib6engine8database7inbuilt8datetime4dateNtB2_11DateCommandNtNtB6_7command20InbuiltServerCommand4name
FNDA:1,_RNvXNtNtNtNtNtCsksqSOdb1Dlf_9serverlib6engine8database7inbuilt8datetime4dateNtB2_11DateCommandNtNtB6_7command20InbuiltServerCommand8evaluate
FNDA:0,_RNCNCNvXNtNtNtNtNtCsksqSOdb1Dlf_9serverlib6engine8database7inbuilt8datetime4dateNtB6_11DateCommandNtNtBa_7command20InbuiltServerCommand8evaluates_00Bg_
FNDA:1,_RNCNvXNtNtNtNtNtCsksqSOdb1Dlf_9serverlib6engine8database7inbuilt8datetime4dateNtB4_11DateCommandNtNtB8_7command20InbuiltServerCommand8evaluate0Be_
FNDA:1,_RNCNvXNtNtNtNtNtCsksqSOdb1Dlf_9serverlib6engine8database7inbuilt8datetime4dateNtB4_11DateCommandNtNtB8_7command20InbuiltServerCommand8evaluates0_0Be_
FNDA:0,_RNCNvXNtNtNtNtNtCsksqSOdb1Dlf_9serverlib6engine8database7inbuilt8datetime4dateNtB4_11DateCommandNtNtB8_7command20InbuiltServerCommand8evaluates_0Be_
FNF:6
FNH:4
DA:16,1
DA:17,1
DA:18,1
DA:20,1
DA:22,1
DA:24,1
DA:26,1
DA:27,0
DA:30,1
DA:31,1
DA:32,1
DA:33,1
DA:35,1
BRF:0
BRH:0
LF:17
LH:14
end_of_record
SF:/Users/samcolak/Source Code/rust/distdb/distdb/serverlib/src/engine/database/inbuilt/datetime/date_add.rs
FN:34,_RNCNvXNtNtNtNtNtCsksqSOdb1Dlf_9serverlib6engine8database7inbuilt8datetime8date_addNtB4_14DateAddCommandNtNtB8_7command20InbuiltServerCommand8evaluate0Be_
FN:16,_RNvXNtNtNtNtNtCsksqSOdb1Dlf_9serverlib6engine8database7inbuilt8datetime8date_addNtB2_14DateAddCommandNtNtB6_7command20InbuiltServerCommand4name
FN:20,_RNvXNtNtNtNtNtCsksqSOdb1Dlf_9serverlib6engine8database7inbuilt8datetime8date_addNtB2_14DateAddCommandNtNtB6_7command20InbuiltServerCommand8evaluate
FNDA:0,_RNCNvXNtNtNtNtNtCsksqSOdb1Dlf_9serverlib6engine8database7inbuilt8datetime8date_addNtB4_14DateAddCommandNtNtB8_7command20InbuiltServerCommand8evaluate0Be_
FNDA:0,_RNvXNtNtNtNtNtCsksqSOdb1Dlf_9serverlib6engine8database7inbuilt8datetime8date_addNtB2_14DateAddCommandNtNtB6_7command20InbuiltServerCommand4name
FNDA:0,_RNvXNtNtNtNtNtCsksqSOdb1Dlf_9serverlib6engine8database7inbuilt8datetime8date_addNtB2_14DateAddCommandNtNtB6_7command20InbuiltServerCommand8evaluate
FNF:3
FNH:0
DA:16,0
DA:17,0
DA:18,0
DA:20,0
DA:22,0
DA:24,0
DA:26,0
DA:27,0
DA:30,0
DA:31,0
DA:34,0
DA:36,0
BRF:0
BRH:0
LF:13
LH:0
end_of_record
SF:/Users/samcolak/Source Code/rust/distdb/distdb/serverlib/src/engine/database/inbuilt/datetime/date_format.rs
FN:34,_RNCNvXNtNtNtNtNtCsksqSOdb1Dlf_9serverlib6engine8database7inbuilt8datetime11date_formatNtB4_17DateFormatCommandNtNtB8_7command20InbuiltServerCommand8evaluate0Be_
FN:16,_RNvXNtNtNtNtNtCsksqSOdb1Dlf_9serverlib6engine8database7inbuilt8datetime11date_formatNtB2_17DateFormatCommandNtNtB6_7command20InbuiltServerCommand4name
FN:20,_RNvXNtNtNtNtNtCsksqSOdb1Dlf_9serverlib6engine8database7inbuilt8datetime11date_formatNtB2_17DateFormatCommandNtNtB6_7command20InbuiltServerCommand8evaluate
FNDA:0,_RNCNvXNtNtNtNtNtCsksqSOdb1Dlf_9serverlib6engine8database7inbuilt8datetime11date_formatNtB4_17DateFormatCommandNtNtB8_7command20InbuiltServerCommand8evaluate0Be_
FNDA:1,_RNvXNtNtNtNtNtCsksqSOdb1Dlf_9serverlib6engine8database7inbuilt8datetime11date_formatNtB2_17DateFormatCommandNtNtB6_7command20InbuiltServerCommand4name
FNDA:1,_RNvXNtNtNtNtNtCsksqSOdb1Dlf_9serverlib6engine8database7inbuilt8datetime11date_formatNtB2_17DateFormatCommandNtNtB6_7command20InbuiltServerCommand8evaluate
FNF:3
FNH:2
DA:16,1
DA:17,1
DA:18,1
DA:20,1
DA:22,1
DA:24,1
DA:26,1
DA:27,0
DA:30,1
DA:31,0
DA:34,1
DA:36,1
BRF:0
BRH:0
LF:13
LH:10
end_of_record
SF:/Users/samcolak/Source Code/rust/distdb/distdb/serverlib/src/engine/database/inbuilt/datetime/date_sub.rs
FN:34,_RNCNvXNtNtNtNtNtCsksqSOdb1Dlf_9serverlib6engine8database7inbuilt8datetime8date_subNtB4_14DateSubCommandNtNtB8_7command20InbuiltServerCommand8evaluate0Be_
FN:16,_RNvXNtNtNtNtNtCsksqSOdb1Dlf_9serverlib6engine8database7inbuilt8datetime8date_subNtB2_14DateSubCommandNtNtB6_7command20InbuiltServerCommand4name
FN:20,_RNvXNtNtNtNtNtCsksqSOdb1Dlf_9serverlib6engine8database7inbuilt8datetime8date_subNtB2_14DateSubCommandNtNtB6_7command20InbuiltServerCommand8evaluate
FNDA:0,_RNCNvXNtNtNtNtNtCsksqSOdb1Dlf_9serverlib6engine8database7inbuilt8datetime8date_subNtB4_14DateSubCommandNtNtB8_7command20InbuiltServerCommand8evaluate0Be_
FNDA:0,_RNvXNtNtNtNtNtCsksqSOdb1Dlf_9serverlib6engine8database7inbuilt8datetime8date_subNtB2_14DateSubCommandNtNtB6_7command20InbuiltServerCommand4name
FNDA:0,_RNvXNtNtNtNtNtCsksqSOdb1Dlf_9serverlib6engine8database7inbuilt8datetime8date_subNtB2_14DateSubCommandNtNtB6_7command20InbuiltServerCommand8evaluate
FNF:3
FNH:0
DA:16,0
DA:17,0
DA:18,0
DA:20,0
DA:22,0
DA:24,0
DA:26,0
DA:27,0
DA:30,0
DA:31,0
DA:34,0
DA:36,0
BRF:0
BRH:0
LF:13
LH:0
end_of_record
SF:/Users/samcolak/Source Code/rust/distdb/distdb/serverlib/src/engine/database/inbuilt/datetime/datediff.rs
FN:16,_RNvXNtNtNtNtNtCsksqSOdb1Dlf_9serverlib6engine8database7inbuilt8datetime8datediffNtB2_15DateDiffCommandNtNtB6_7command20InbuiltServerCommand4name
FN:20,_RNvXNtNtNtNtNtCsksqSOdb1Dlf_9serverlib6engine8database7inbuilt8datetime8datediffNtB2_15DateDiffCommandNtNtB6_7command20InbuiltServerCommand8evaluate
FNDA:1,_RNvXNtNtNtNtNtCsksqSOdb1Dlf_9serverlib6engine8database7inbuilt8datetime8datediffNtB2_15DateDiffCommandNtNtB6_7command20InbuiltServerCommand4name
FNDA:1,_RNvXNtNtNtNtNtCsksqSOdb1Dlf_9serverlib6engine8database7inbuilt8datetime8datediffNtB2_15DateDiffCommandNtNtB6_7command20InbuiltServerCommand8evaluate
FNF:2
FNH:2
DA:16,1
DA:17,1
DA:18,1
DA:20,1
DA:22,1
DA:24,1
DA:26,1
DA:27,0
DA:30,1
DA:31,0
DA:34,1
DA:36,1
BRF:0
BRH:0
LF:12
LH:10
end_of_record
SF:/Users/samcolak/Source Code/rust/distdb/distdb/serverlib/src/engine/database/inbuilt/datetime/day.rs
FN:15,_RNvXNtNtNtNtNtCsksqSOdb1Dlf_9serverlib6engine8database7inbuilt8datetime3dayNtB2_10DayCommandNtNtB6_7command20InbuiltServerCommand4name
FN:19,_RNvXNtNtNtNtNtCsksqSOdb1Dlf_9serverlib6engine8database7inbuilt8datetime3dayNtB2_10DayCommandNtNtB6_7command20InbuiltServerCommand8evaluate
FNDA:1,_RNvXNtNtNtNtNtCsksqSOdb1Dlf_9serverlib6engine8database7inbuilt8datetime3dayNtB2_10DayCommandNtNtB6_7command20InbuiltServerCommand4name
FNDA:1,_RNvXNtNtNtNtNtCsksqSOdb1Dlf_9serverlib6engine8database7inbuilt8datetime3dayNtB2_10DayCommandNtNtB6_7command20InbuiltServerCommand8evaluate
FNF:2
FNH:2
DA:15,1
DA:16,1
DA:17,1
DA:19,1
DA:21,1
DA:23,1
DA:25,1
DA:26,0
DA:29,1
DA:31,1
BRF:0
BRH:0
LF:10
LH:9
end_of_record
SF:/Users/samcolak/Source Code/rust/distdb/distdb/serverlib/src/engine/database/inbuilt/datetime/dayname.rs
FN:15,_RNvXNtNtNtNtNtCsksqSOdb1Dlf_9serverlib6engine8database7inbuilt8datetime7daynameNtB2_14DayNameCommandNtNtB6_7command20InbuiltServerCommand4name
FN:19,_RNvXNtNtNtNtNtCsksqSOdb1Dlf_9serverlib6engine8database7inbuilt8datetime7daynameNtB2_14DayNameCommandNtNtB6_7command20InbuiltServerCommand8evaluate
FNDA:1,_RNvXNtNtNtNtNtCsksqSOdb1Dlf_9serverlib6engine8database7inbuilt8datetime7daynameNtB2_14DayNameCommandNtNtB6_7command20InbuiltServerCommand4name
FNDA:1,_RNvXNtNtNtNtNtCsksqSOdb1Dlf_9serverlib6engine8database7inbuilt8datetime7daynameNtB2_14DayNameCommandNtNtB6_7command20InbuiltServerCommand8evaluate
FNF:2
FNH:2
DA:15,1
DA:16,1
DA:17,1
DA:19,1
DA:21,1
DA:23,1
DA:25,1
DA:26,0
DA:29,1
DA:31,1
BRF:0
BRH:0
LF:10
LH:9
end_of_record
SF:/Users/samcolak/Source Code/rust/distdb/distdb/serverlib/src/engine/database/inbuilt/datetime/dayofmonth.rs
FN:15,_RNvXNtNtNtNtNtCsksqSOdb1Dlf_9serverlib6engine8database7inbuilt8datetime10dayofmonthNtB2_17DayOfMonthCommandNtNtB6_7command20InbuiltServerCommand4name
FN:19,_RNvXNtNtNtNtNtCsksqSOdb1Dlf_9serverlib6engine8database7inbuilt8datetime10dayofmonthNtB2_17DayOfMonthCommandNtNtB6_7command20InbuiltServerCommand8evaluate
FNDA:1,_RNvXNtNtNtNtNtCsksqSOdb1Dlf_9serverlib6engine8database7inbuilt8datetime10dayofmonthNtB2_17DayOfMonthCommandNtNtB6_7command20InbuiltServerCommand4name
FNDA:1,_RNvXNtNtNtNtNtCsksqSOdb1Dlf_9serverlib6engine8database7inbuilt8datetime10dayofmonthNtB2_17DayOfMonthCommandNtNtB6_7command20InbuiltServerCommand8evaluate
FNF:2
FNH:2
DA:15,1
DA:16,1
DA:17,1
DA:19,1
DA:21,1
DA:23,1
DA:25,1
DA:26,0
DA:29,1
DA:31,1
BRF:0
BRH:0
LF:10
LH:9
end_of_record
SF:/Users/samcolak/Source Code/rust/distdb/distdb/serverlib/src/engine/database/inbuilt/datetime/dayofweek.rs
FN:15,_RNvXNtNtNtNtNtCsksqSOdb1Dlf_9serverlib6engine8database7inbuilt8datetime9dayofweekNtB2_16DayOfWeekCommandNtNtB6_7command20InbuiltServerCommand4name
FN:19,_RNvXNtNtNtNtNtCsksqSOdb1Dlf_9serverlib6engine8database7inbuilt8datetime9dayofweekNtB2_16DayOfWeekCommandNtNtB6_7command20InbuiltServerCommand8evaluate
FNDA:1,_RNvXNtNtNtNtNtCsksqSOdb1Dlf_9serverlib6engine8database7inbuilt8datetime9dayofweekNtB2_16DayOfWeekCommandNtNtB6_7command20InbuiltServerCommand4name
FNDA:1,_RNvXNtNtNtNtNtCsksqSOdb1Dlf_9serverlib6engine8database7inbuilt8datetime9dayofweekNtB2_16DayOfWeekCommandNtNtB6_7command20InbuiltServerCommand8evaluate
FNF:2
FNH:2
DA:15,1
DA:16,1
DA:17,1
DA:19,1
DA:21,1
DA:23,1
DA:25,1
DA:26,0
DA:29,1
DA:31,1
BRF:0
BRH:0
LF:10
LH:9
end_of_record
SF:/Users/samcolak/Source Code/rust/distdb/distdb/serverlib/src/engine/database/inbuilt/datetime/dayofyear.rs
FN:15,_RNvXNtNtNtNtNtCsksqSOdb1Dlf_9serverlib6engine8database7inbuilt8datetime9dayofyearNtB2_16DayOfYearCommandNtNtB6_7command20InbuiltServerCommand4name
FN:19,_RNvXNtNtNtNtNtCsksqSOdb1Dlf_9serverlib6engine8database7inbuilt8datetime9dayofyearNtB2_16DayOfYearCommandNtNtB6_7command20InbuiltServerCommand8evaluate
FNDA:1,_RNvXNtNtNtNtNtCsksqSOdb1Dlf_9serverlib6engine8database7inbuilt8datetime9dayofyearNtB2_16DayOfYearCommandNtNtB6_7command20InbuiltServerCommand4name
FNDA:1,_RNvXNtNtNtNtNtCsksqSOdb1Dlf_9serverlib6engine8database7inbuilt8datetime9dayofyearNtB2_16DayOfYearCommandNtNtB6_7command20InbuiltServerCommand8evaluate
FNF:2
FNH:2
DA:15,1
DA:16,1
DA:17,1
DA:19,1
DA:21,1
DA:23,1
DA:25,1
DA:26,0
DA:29,1
DA:31,1
BRF:0
BRH:0
LF:10
LH:9
end_of_record
SF:/Users/samcolak/Source Code/rust/distdb/distdb/serverlib/src/engine/database/inbuilt/datetime/extract.rs
FN:31,_RNvXNtNtNtNtNtCsksqSOdb1Dlf_9serverlib6engine8database7inbuilt8datetime7extractNtB2_14ExtractCommandNtNtB6_7command20InbuiltServerCommand4name
FN:35,_RNvXNtNtNtNtNtCsksqSOdb1Dlf_9serverlib6engine8database7inbuilt8datetime7extractNtB2_14ExtractCommandNtNtB6_7command20InbuiltServerCommand8evaluate
FNDA:0,_RNvXNtNtNtNtNtCsksqSOdb1Dlf_9serverlib6engine8database7inbuilt8datetime7extractNtB2_14ExtractCommandNtNtB6_7command20InbuiltServerCommand4name
FNDA:0,_RNvXNtNtNtNtNtCsksqSOdb1Dlf_9serverlib6engine8database7inbuilt8datetime7extractNtB2_14ExtractCommandNtNtB6_7command20InbuiltServerCommand8evaluate
FNF:2
FNH:0
DA:31,0
DA:32,0
DA:33,0
DA:35,0
DA:37,0
DA:39,0
DA:41,0
DA:43,0
DA:45,0
DA:47,0
DA:48,0
DA:50,0
DA:54,0
DA:55,0
DA:58,0
DA:59,0
DA:60,0
DA:61,0
DA:62,0
DA:63,0
DA:64,0
DA:65,0
DA:66,0
DA:67,0
DA:68,0
DA:69,0
DA:70,0
DA:71,0
DA:72,0
DA:75,0
DA:77,0
BRF:0
BRH:0
LF:31
LH:0
end_of_record
SF:/Users/samcolak/Source Code/rust/distdb/distdb/serverlib/src/engine/database/inbuilt/datetime/from_days.rs
FN:16,_RNvXNtNtNtNtNtCsksqSOdb1Dlf_9serverlib6engine8database7inbuilt8datetime9from_daysNtB2_15FromDaysCommandNtNtB6_7command20InbuiltServerCommand4name
FN:20,_RNvXNtNtNtNtNtCsksqSOdb1Dlf_9serverlib6engine8database7inbuilt8datetime9from_daysNtB2_15FromDaysCommandNtNtB6_7command20InbuiltServerCommand8evaluate
FN:30,_RNCNvXNtNtNtNtNtCsksqSOdb1Dlf_9serverlib6engine8database7inbuilt8datetime9from_daysNtB4_15FromDaysCommandNtNtB8_7command20InbuiltServerCommand8evaluate0Be_
FNDA:1,_RNvXNtNtNtNtNtCsksqSOdb1Dlf_9serverlib6engine8database7inbuilt8datetime9from_daysNtB2_15FromDaysCommandNtNtB6_7command20InbuiltServerCommand4name
FNDA:1,_RNvXNtNtNtNtNtCsksqSOdb1Dlf_9serverlib6engine8database7inbuilt8datetime9from_daysNtB2_15FromDaysCommandNtNtB6_7command20InbuiltServerCommand8evaluate
FNDA:1,_RNCNvXNtNtNtNtNtCsksqSOdb1Dlf_9serverlib6engine8database7inbuilt8datetime9from_daysNtB4_15FromDaysCommandNtNtB8_7command20InbuiltServerCommand8evaluate0Be_
FNF:3
FNH:3
DA:16,1
DA:17,1
DA:18,1
DA:20,1
DA:22,1
DA:24,1
DA:26,1
DA:27,0
DA:30,1
DA:32,1
BRF:0
BRH:0
LF:11
LH:10
end_of_record
SF:/Users/samcolak/Source Code/rust/distdb/distdb/serverlib/src/engine/database/inbuilt/datetime/helpers.rs
FN:310,_RNCNCNCNvNtNtNtNtNtCsksqSOdb1Dlf_9serverlib6engine8database7inbuilt8datetime7helpers25normalize_datetime_strings_000Bh_
FN:319,_RNCNCNvNtNtNtNtNtCsksqSOdb1Dlf_9serverlib6engine8database7inbuilt8datetime7helpers14to_date_strings_00Bf_
FN:295,_RNCNCNvNtNtNtNtNtCsksqSOdb1Dlf_9serverlib6engine8database7inbuilt8datetime7helpers21normalize_time_strings0_00Bf_
FN:305,_RNCNCNvNtNtNtNtNtCsksqSOdb1Dlf_9serverlib6engine8database7inbuilt8datetime7helpers25normalize_datetime_string00Bf_
FN:309,_RNCNCNvNtNtNtNtNtCsksqSOdb1Dlf_9serverlib6engine8database7inbuilt8datetime7helpers25normalize_datetime_strings_00Bf_
FN:318,_RNCNvNtNtNtNtNtCsksqSOdb1Dlf_9serverlib6engine8database7inbuilt8datetime7helpers14to_date_string0Bd_
FN:319,_RNCNvNtNtNtNtNtCsksqSOdb1Dlf_9serverlib6engine8database7inbuilt8datetime7helpers14to_date_strings_0Bd_
FN:97,_RNCNvNtNtNtNtNtCsksqSOdb1Dlf_9serverlib6engine8database7inbuilt8datetime7helpers16evaluate_f64_arg0Bd_
FN:293,_RNCNvNtNtNtNtNtCsksqSOdb1Dlf_9serverlib6engine8database7inbuilt8datetime7helpers21normalize_time_string0Bd_
FN:295,_RNCNvNtNtNtNtNtCsksqSOdb1Dlf_9serverlib6engine8database7inbuilt8datetime7helpers21normalize_time_strings0_0Bd_
FN:294,_RNCNvNtNtNtNtNtCsksqSOdb1Dlf_9serverlib6engine8database7inbuilt8datetime7helpers21normalize_time_strings_0Bd_
FN:303,_RNCNvNtNtNtNtNtCsksqSOdb1Dlf_9serverlib6engine8database7inbuilt8datetime7helpers25normalize_datetime_string0Bd_
FN:308,_RNCNvNtNtNtNtNtCsksqSOdb1Dlf_9serverlib6engine8database7inbuilt8datetime7helpers25normalize_datetime_strings_0Bd_
FN:543,_RNCNvNtNtNtNtNtCsksqSOdb1Dlf_9serverlib6engine8database7inbuilt8datetime7helpers26datetime_from_unix_seconds0Bd_
FN:316,_RNvNtNtNtNtNtCsksqSOdb1Dlf_9serverlib6engine8database7inbuilt8datetime7helpers14to_date_string
FN:92,_RNvNtNtNtNtNtCsksqSOdb1Dlf_9serverlib6engine8database7inbuilt8datetime7helpers16evaluate_f64_arg
FN:489,_RNvNtNtNtNtNtCsksqSOdb1Dlf_9serverlib6engine8database7inbuilt8datetime7helpers18sub_days_from_date
FN:290,_RNvNtNtNtNtNtCsksqSOdb1Dlf_9serverlib6engine8database7inbuilt8datetime7helpers21normalize_time_string
FN:299,_RNvNtNtNtNtNtCsksqSOdb1Dlf_9serverlib6engine8database7inbuilt8datetime7helpers25normalize_datetime_string
FN:502,_RNvNtNtNtNtNtCsksqSOdb1Dlf_9serverlib6engine8database7inbuilt8datetime7helpers25sub_seconds_from_datetime
FN:540,_RNvNtNtNtNtNtCsksqSOdb1Dlf_9serverlib6engine8database7inbuilt8datetime7helpers26datetime_from_unix_seconds
FN:224,_RNvNtNtNtNtNtCsksqSOdb1Dlf_9serverlib6engine8database7inbuilt8datetime7helpers34format_datetime_with_mysql_pattern
FN:102,_RINvNtNtNtNtNtCsksqSOdb1Dlf_9serverlib6engine8database7inbuilt8datetime7helpers13number_resultNtNtCslDfkGcRelIg_5alloc6string6StringEBc_
FN:102,_RINvNtNtNtNtNtCsksqSOdb1Dlf_9serverlib6engine8database7inbuilt8datetime7helpers13number_resultxEBc_
FN:106,_RINvNtNtNtNtNtCsksqSOdb1Dlf_9serverlib6engine8database7inbuilt8datetime7helpers13string_resultNtNtCslDfkGcRelIg_5alloc6string6StringEBc_
FN:155,_RNCNCNCNvNtNtNtNtNtCsksqSOdb1Dlf_9serverlib6engine8database7inbuilt8datetime7helpers14parse_datetimes0_000Bh_
FN:337,_RNCNCNvNtNtNtNtNtCsksqSOdb1Dlf_9serverlib6engine8database7inbuilt8datetime7helpers11extract_days_00Bf_
FN:347,_RNCNCNvNtNtNtNtNtCsksqSOdb1Dlf_9serverlib6engine8database7inbuilt8datetime7helpers12extract_hours_00Bf_
FN:389,_RNCNCNvNtNtNtNtNtCsksqSOdb1Dlf_9serverlib6engine8database7inbuilt8datetime7helpers12extract_weeks_00Bf_
FN:325,_RNCNCNvNtNtNtNtNtCsksqSOdb1Dlf_9serverlib6engine8database7inbuilt8datetime7helpers12extract_years_00Bf_
FN:331,_RNCNCNvNtNtNtNtNtCsksqSOdb1Dlf_9serverlib6engine8database7inbuilt8datetime7helpers13extract_months_00Bf_
FN:353,_RNCNCNvNtNtNtNtNtCsksqSOdb1Dlf_9serverlib6engine8database7inbuilt8datetime7helpers14extract_minutes_00Bf_
FN:359,_RNCNCNvNtNtNtNtNtCsksqSOdb1Dlf_9serverlib6engine8database7inbuilt8datetime7helpers14extract_seconds_00Bf_
FN:155,_RNCNCNvNtNtNtNtNtCsksqSOdb1Dlf_9serverlib6engine8database7inbuilt8datetime7helpers14parse_datetimes0_00Bf_
FN:154,_RNCNCNvNtNtNtNtNtCsksqSOdb1Dlf_9serverlib6engine8database7inbuilt8datetime7helpers14parse_datetimes_00Bf_
FN:383,_RNCNCNvNtNtNtNtNtCsksqSOdb1Dlf_9serverlib6engine8database7inbuilt8datetime7helpers15extract_weekdays_00Bf_
FN:399,_RNCNCNvNtNtNtNtNtCsksqSOdb1Dlf_9serverlib6engine8database7inbuilt8datetime7helpers16extract_yearweeks_00Bf_
FN:377,_RNCNCNvNtNtNtNtNtCsksqSOdb1Dlf_9serverlib6engine8database7inbuilt8datetime7helpers19extract_day_of_weeks_00Bf_
FN:371,_RNCNCNvNtNtNtNtNtCsksqSOdb1Dlf_9serverlib6engine8database7inbuilt8datetime7helpers19extract_day_of_years_00Bf_
FN:365,_RNCNCNvNtNtNtNtNtCsksqSOdb1Dlf_9serverlib6engine8database7inbuilt8datetime7helpers19extract_microseconds_00Bf_
FN:270,_RNCNCNvNtNtNtNtNtCsksqSOdb1Dlf_9serverlib6engine8database7inbuilt8datetime7helpers23time_difference_secondss1_00Bf_
FN:266,_RNCNCNvNtNtNtNtNtCsksqSOdb1Dlf_9serverlib6engine8database7inbuilt8datetime7helpers23time_difference_secondss_00Bf_
FN:409,_RNCNCNvNtNtNtNtNtCsksqSOdb1Dlf_9serverlib6engine8database7inbuilt8datetime7helpers8day_names_00Bf_
FN:130,_RNCNvNtNtNtNtNtCsksqSOdb1Dlf_9serverlib6engine8database7inbuilt8datetime7helpers10parse_date0Bd_
FN:141,_RNCNvNtNtNtNtNtCsksqSOdb1Dlf_9serverlib6engine8database7inbuilt8datetime7helpers10parse_time0Bd_
FN:336,_RNCNvNtNtNtNtNtCsksqSOdb1Dlf_9serverlib6engine8database7inbuilt8datetime7helpers11extract_day0Bd_
FN:337,_RNCNvNtNtNtNtNtCsksqSOdb1Dlf_9serverlib6engine8database7inbuilt8datetime7helpers11extract_days_0Bd_
FN:346,_RNCNvNtNtNtNtNtCsksqSOdb1Dlf_9serverlib6engine8database7inbuilt8datetime7helpers12extract_hour0Bd_
FN:347,_RNCNvNtNtNtNtNtCsksqSOdb1Dlf_9serverlib6engine8database7inbuilt8datetime7helpers12extract_hours_0Bd_
FN:388,_RNCNvNtNtNtNtNtCsksqSOdb1Dlf_9serverlib6engine8database7inbuilt8datetime7helpers12extract_week0Bd_
FN:389,_RNCNvNtNtNtNtNtCsksqSOdb1Dlf_9serverlib6engine8database7inbuilt8datetime7helpers12extract_weeks_0Bd_
FN:324,_RNCNvNtNtNtNtNtCsksqSOdb1Dlf_9serverlib6engine8database7inbuilt8datetime7helpers12extract_year0Bd_
FN:325,_RNCNvNtNtNtNtNtCsksqSOdb1Dlf_9serverlib6engine8database7inbuilt8datetime7helpers12extract_years_0Bd_
FN:330,_RNCNvNtNtNtNtNtCsksqSOdb1Dlf_9serverlib6engine8database7inbuilt8datetime7helpers13extract_month0Bd_
FN:331,_RNCNvNtNtNtNtNtCsksqSOdb1Dlf_9serverlib6engine8database7inbuilt8datetime7helpers13extract_months_0Bd_
FN:352,_RNCNvNtNtNtNtNtCsksqSOdb1Dlf_9serverlib6engine8database7inbuilt8datetime7helpers14extract_minute0Bd_
FN:353,_RNCNvNtNtNtNtNtCsksqSOdb1Dlf_9serverlib6engine8database7inbuilt8datetime7helpers14extract_minutes_0Bd_
FN:358,_RNCNvNtNtNtNtNtCsksqSOdb1Dlf_9serverlib6engine8database7inbuilt8datetime7helpers14extract_second0Bd_
FN:359,_RNCNvNtNtNtNtNtCsksqSOdb1Dlf_9serverlib6engine8database7inbuilt8datetime7helpers14extract_seconds_0Bd_
FN:153,_RNCNvNtNtNtNtNtCsksqSOdb1Dlf_9serverlib6engine8database7inbuilt8datetime7helpers14parse_datetime0Bd_
FN:155,_RNCNvNtNtNtNtNtCsksqSOdb1Dlf_9serverlib6engine8database7inbuilt8datetime7helpers14parse_datetimes0_0Bd_
FN:154,_RNCNvNtNtNtNtNtCsksqSOdb1Dlf_9serverlib6engine8database7inbuilt8datetime7helpers14parse_datetimes_0Bd_
FN:341,_RNCNvNtNtNtNtNtCsksqSOdb1Dlf_9serverlib6engine8database7inbuilt8datetime7helpers15extract_quarter0Bd_
FN:382,_RNCNvNtNtNtNtNtCsksqSOdb1Dlf_9serverlib6engine8database7inbuilt8datetime7helpers15extract_weekday0Bd_
FN:383,_RNCNvNtNtNtNtNtCsksqSOdb1Dlf_9serverlib6engine8database7inbuilt8datetime7helpers15extract_weekdays_0Bd_
FN:87,_RNCNvNtNtNtNtNtCsksqSOdb1Dlf_9serverlib6engine8database7inbuilt8datetime7helpers16evaluate_i64_arg0Bd_
FN:394,_RNCNvNtNtNtNtNtCsksqSOdb1Dlf_9serverlib6engine8database7inbuilt8datetime7helpers16extract_yearweek0Bd_
FN:398,_RNCNvNtNtNtNtNtCsksqSOdb1Dlf_9serverlib6engine8database7inbuilt8datetime7helpers16extract_yearweeks_0Bd_
FN:484,_RNCNvNtNtNtNtNtCsksqSOdb1Dlf_9serverlib6engine8database7inbuilt8datetime7helpers17add_days_to_value0Bd_
FN:414,_RNCNvNtNtNtNtNtCsksqSOdb1Dlf_9serverlib6engine8database7inbuilt8datetime7helpers17last_day_of_month0Bd_
FN:415,_RNCNvNtNtNtNtNtCsksqSOdb1Dlf_9serverlib6engine8database7inbuilt8datetime7helpers17last_day_of_months_0Bd_
FN:45,_RNCNvNtNtNtNtNtCsksqSOdb1Dlf_9serverlib6engine8database7inbuilt8datetime7helpers17usage_for_clarity0Bd_
FN:57,_RNCNvNtNtNtNtNtCsksqSOdb1Dlf_9serverlib6engine8database7inbuilt8datetime7helpers17usage_for_claritys_0Bd_
FN:79,_RNCNvNtNtNtNtNtCsksqSOdb1Dlf_9serverlib6engine8database7inbuilt8datetime7helpers19evaluate_string_arg0Bd_
FN:376,_RNCNvNtNtNtNtNtCsksqSOdb1Dlf_9serverlib6engine8database7inbuilt8datetime7helpers19extract_day_of_week0Bd_
FN:377,_RNCNvNtNtNtNtNtCsksqSOdb1Dlf_9serverlib6engine8database7inbuilt8datetime7helpers19extract_day_of_weeks_0Bd_
FN:370,_RNCNvNtNtNtNtNtCsksqSOdb1Dlf_9serverlib6engine8database7inbuilt8datetime7helpers19extract_day_of_year0Bd_
FN:371,_RNCNvNtNtNtNtNtCsksqSOdb1Dlf_9serverlib6engine8database7inbuilt8datetime7helpers19extract_day_of_years_0Bd_
FN:364,_RNCNvNtNtNtNtNtCsksqSOdb1Dlf_9serverlib6engine8database7inbuilt8datetime7helpers19extract_microsecond0Bd_
FN:365,_RNCNvNtNtNtNtNtCsksqSOdb1Dlf_9serverlib6engine8database7inbuilt8datetime7helpers19extract_microseconds_0Bd_
FN:279,_RNCNvNtNtNtNtNtCsksqSOdb1Dlf_9serverlib6engine8database7inbuilt8datetime7helpers20date_difference_days0Bd_
FN:283,_RNCNvNtNtNtNtNtCsksqSOdb1Dlf_9serverlib6engine8database7inbuilt8datetime7helpers20date_difference_dayss0_0Bd_
FN:284,_RNCNvNtNtNtNtNtCsksqSOdb1Dlf_9serverlib6engine8database7inbuilt8datetime7helpers20date_difference_dayss1_0Bd_
FN:280,_RNCNvNtNtNtNtNtCsksqSOdb1Dlf_9serverlib6engine8database7inbuilt8datetime7helpers20date_difference_dayss_0Bd_
FN:265,_RNCNvNtNtNtNtNtCsksqSOdb1Dlf_9serverlib6engine8database7inbuilt8datetime7helpers23time_difference_seconds0Bd_
FN:269,_RNCNvNtNtNtNtNtCsksqSOdb1Dlf_9serverlib6engine8database7inbuilt8datetime7helpers23time_difference_secondss0_0Bd_
FN:270,_RNCNvNtNtNtNtNtCsksqSOdb1Dlf_9serverlib6engine8database7inbuilt8datetime7helpers23time_difference_secondss1_0Bd_
FN:266,_RNCNvNtNtNtNtNtCsksqSOdb1Dlf_9serverlib6engine8database7inbuilt8datetime7helpers23time_difference_secondss_0Bd_
FN:243,_RNCNvNtNtNtNtNtCsksqSOdb1Dlf_9serverlib6engine8database7inbuilt8datetime7helpers30str_to_date_with_mysql_pattern0Bd_
FN:244,_RNCNvNtNtNtNtNtCsksqSOdb1Dlf_9serverlib6engine8database7inbuilt8datetime7helpers30str_to_date_with_mysql_patterns_0Bd_
FN:408,_RNCNvNtNtNtNtNtCsksqSOdb1Dlf_9serverlib6engine8database7inbuilt8datetime7helpers8day_name0Bd_
FN:409,_RNCNvNtNtNtNtNtCsksqSOdb1Dlf_9serverlib6engine8database7inbuilt8datetime7helpers8day_names_0Bd_
FN:122,_RNvNtNtNtNtNtCsksqSOdb1Dlf_9serverlib6engine8database7inbuilt8datetime7helpers10parse_date
FN:133,_RNvNtNtNtNtNtCsksqSOdb1Dlf_9serverlib6engine8database7inbuilt8datetime7helpers10parse_time
FN:429,_RNvNtNtNtNtNtCsksqSOdb1Dlf_9serverlib6engine8database7inbuilt8datetime7helpers10period_add
FN:334,_RNvNtNtNtNtNtCsksqSOdb1Dlf_9serverlib6engine8database7inbuilt8datetime7helpers11extract_day
FN:446,_RNvNtNtNtNtNtCsksqSOdb1Dlf_9serverlib6engine8database7inbuilt8datetime7helpers11period_diff
FN:344,_RNvNtNtNtNtNtCsksqSOdb1Dlf_9serverlib6engine8database7inbuilt8datetime7helpers12extract_hour
FN:386,_RNvNtNtNtNtNtCsksqSOdb1Dlf_9serverlib6engine8database7inbuilt8datetime7helpers12extract_week
FN:322,_RNvNtNtNtNtNtCsksqSOdb1Dlf_9serverlib6engine8database7inbuilt8datetime7helpers12extract_year
FN:328,_RNvNtNtNtNtNtCsksqSOdb1Dlf_9serverlib6engine8database7inbuilt8datetime7helpers13extract_month
FN:158,_RNvNtNtNtNtNtCsksqSOdb1Dlf_9serverlib6engine8database7inbuilt8datetime7helpers14date_to_string
FN:350,_RNvNtNtNtNtNtCsksqSOdb1Dlf_9serverlib6engine8database7inbuilt8datetime7helpers14extract_minute
FN:356,_RNvNtNtNtNtNtCsksqSOdb1Dlf_9serverlib6engine8database7inbuilt8datetime7helpers14extract_second
FN:144,_RNvNtNtNtNtNtCsksqSOdb1Dlf_9serverlib6engine8database7inbuilt8datetime7helpers14parse_datetime
FN:162,_RNvNtNtNtNtNtCsksqSOdb1Dlf_9serverlib6engine8database7inbuilt8datetime7helpers14time_to_string
FN:340,_RNvNtNtNtNtNtCsksqSOdb1Dlf_9serverlib6engine8database7inbuilt8datetime7helpers15extract_quarter
FN:380,_RNvNtNtNtNtNtCsksqSOdb1Dlf_9serverlib6engine8database7inbuilt8datetime7helpers15extract_weekday
FN:469,_RNvNtNtNtNtNtCsksqSOdb1Dlf_9serverlib6engine8database7inbuilt8datetime7helpers16add_days_to_date
FN:82,_RNvNtNtNtNtNtCsksqSOdb1Dlf_9serverlib6engine8database7inbuilt8datetime7helpers16evaluate_i64_arg
FN:7,_RNvNtNtNtNtNtCsksqSOdb1Dlf_9serverlib6engine8database7inbuilt8datetime7helpers16expect_arg_count
FN:68,_RNvNtNtNtNtNtCsksqSOdb1Dlf_9serverlib6engine8database7inbuilt8datetime7helpers16expect_zero_args
FN:392,_RNvNtNtNtNtNtCsksqSOdb1Dlf_9serverlib6engine8database7inbuilt8datetime7helpers16extract_yearweek
FN:255,_RNvNtNtNtNtNtCsksqSOdb1Dlf_9serverlib6engine8database7inbuilt8datetime7helpers16make_time_string
FN:477,_RNvNtNtNtNtNtCsksqSOdb1Dlf_9serverlib6engine8database7inbuilt8datetime7helpers17add_days_to_value
FN:412,_RNvNtNtNtNtNtCsksqSOdb1Dlf_9serverlib6engine8database7inbuilt8datetime7helpers17last_day_of_month
FN:522,_RNvNtNtNtNtNtCsksqSOdb1Dlf_9serverlib6engine8database7inbuilt8datetime7helpers17time_from_seconds
FN:37,_RNvNtNtNtNtNtCsksqSOdb1Dlf_9serverlib6engine8database7inbuilt8datetime7helpers17usage_for_clarity
FN:166,_RNvNtNtNtNtNtCsksqSOdb1Dlf_9serverlib6engine8database7inbuilt8datetime7helpers18datetime_to_string
FN:72,_RNvNtNtNtNtNtCsksqSOdb1Dlf_9serverlib6engine8database7inbuilt8datetime7helpers18evaluate_bytes_arg
FN:77,_RNvNtNtNtNtNtCsksqSOdb1Dlf_9serverlib6engine8database7inbuilt8datetime7helpers19evaluate_string_arg
FN:374,_RNvNtNtNtNtNtCsksqSOdb1Dlf_9serverlib6engine8database7inbuilt8datetime7helpers19extract_day_of_week
FN:368,_RNvNtNtNtNtNtCsksqSOdb1Dlf_9serverlib6engine8database7inbuilt8datetime7helpers19extract_day_of_year
FN:362,_RNvNtNtNtNtNtCsksqSOdb1Dlf_9serverlib6engine8database7inbuilt8datetime7helpers19extract_microsecond
FN:493,_RNvNtNtNtNtNtCsksqSOdb1Dlf_9serverlib6engine8database7inbuilt8datetime7helpers19sub_days_from_value
FN:110,_RNvNtNtNtNtNtCsksqSOdb1Dlf_9serverlib6engine8database7inbuilt8datetime7helpers19utc_now_date_string
FN:114,_RNvNtNtNtNtNtCsksqSOdb1Dlf_9serverlib6engine8database7inbuilt8datetime7helpers19utc_now_time_string
FN:473,_RNvNtNtNtNtNtCsksqSOdb1Dlf_9serverlib6engine8database7inbuilt8datetime7helpers20add_days_to_datetime
FN:276,_RNvNtNtNtNtNtCsksqSOdb1Dlf_9serverlib6engine8database7inbuilt8datetime7helpers20date_difference_days
FN:465,_RNvNtNtNtNtNtCsksqSOdb1Dlf_9serverlib6engine8database7inbuilt8datetime7helpers20date_from_mysql_days
FN:249,_RNvNtNtNtNtNtCsksqSOdb1Dlf_9serverlib6engine8database7inbuilt8datetime7helpers22date_from_year_and_day
FN:461,_RNvNtNtNtNtNtCsksqSOdb1Dlf_9serverlib6engine8database7inbuilt8datetime7helpers22days_from_mysql_origin
FN:170,_RNvNtNtNtNtNtCsksqSOdb1Dlf_9serverlib6engine8database7inbuilt8datetime7helpers22mysql_format_to_chrono
FN:498,_RNvNtNtNtNtNtCsksqSOdb1Dlf_9serverlib6engine8database7inbuilt8datetime7helpers23add_seconds_to_datetime
FN:262,_RNvNtNtNtNtNtCsksqSOdb1Dlf_9serverlib6engine8database7inbuilt8datetime7helpers23time_difference_seconds
FN:506,_RNvNtNtNtNtNtCsksqSOdb1Dlf_9serverlib6engine8database7inbuilt8datetime7helpers23time_seconds_from_value
FN:118,_RNvNtNtNtNtNtCsksqSOdb1Dlf_9serverlib6engine8database7inbuilt8datetime7helpers23utc_now_datetime_string
FN:228,_RNvNtNtNtNtNtCsksqSOdb1Dlf_9serverlib6engine8database7inbuilt8datetime7helpers30format_date_with_mysql_pattern
FN:232,_RNvNtNtNtNtNtCsksqSOdb1Dlf_9serverlib6engine8database7inbuilt8datetime7helpers30format_time_with_mysql_pattern
FN:236,_RNvNtNtNtNtNtCsksqSOdb1Dlf_9serverlib6engine8database7inbuilt8datetime7helpers30str_to_date_with_mysql_pattern
FN:406,_RNvNtNtNtNtNtCsksqSOdb1Dlf_9serverlib6engine8database7inbuilt8datetime7helpers8day_name
FNDA:0,_RNCNCNCNvNtNtNtNtNtCsksqSOdb1Dlf_9serverlib6engine8database7inbuilt8datetime7helpers25normalize_datetime_strings_000Bh_
FNDA:0,_RNCNCNvNtNtNtNtNtCsksqSOdb1Dlf_9serverlib6engine8database7inbuilt8datetime7helpers14to_date_strings_00Bf_
FNDA:0,_RNCNCNvNtNtNtNtNtCsksqSOdb1Dlf_9serverlib6engine8database7inbuilt8datetime7helpers21normalize_time_strings0_00Bf_
FNDA:0,_RNCNCNvNtNtNtNtNtCsksqSOdb1Dlf_9serverlib6engine8database7inbuilt8datetime7helpers25normalize_datetime_string00Bf_
FNDA:0,_RNCNCNvNtNtNtNtNtCsksqSOdb1Dlf_9serverlib6engine8database7inbuilt8datetime7helpers25normalize_datetime_strings_00Bf_
FNDA:0,_RNCNvNtNtNtNtNtCsksqSOdb1Dlf_9serverlib6engine8database7inbuilt8datetime7helpers14to_date_string0Bd_
FNDA:0,_RNCNvNtNtNtNtNtCsksqSOdb1Dlf_9serverlib6engine8database7inbuilt8datetime7helpers14to_date_strings_0Bd_
FNDA:0,_RNCNvNtNtNtNtNtCsksqSOdb1Dlf_9serverlib6engine8database7inbuilt8datetime7helpers16evaluate_f64_arg0Bd_
FNDA:0,_RNCNvNtNtNtNtNtCsksqSOdb1Dlf_9serverlib6engine8database7inbuilt8datetime7helpers21normalize_time_string0Bd_
FNDA:0,_RNCNvNtNtNtNtNtCsksqSOdb1Dlf_9serverlib6engine8database7inbuilt8datetime7helpers21normalize_time_strings0_0Bd_
FNDA:0,_RNCNvNtNtNtNtNtCsksqSOdb1Dlf_9serverlib6engine8database7inbuilt8datetime7helpers21normalize_time_strings_0Bd_
FNDA:0,_RNCNvNtNtNtNtNtCsksqSOdb1Dlf_9serverlib6engine8database7inbuilt8datetime7helpers25normalize_datetime_string0Bd_
FNDA:0,_RNCNvNtNtNtNtNtCsksqSOdb1Dlf_9serverlib6engine8database7inbuilt8datetime7helpers25normalize_datetime_strings_0Bd_
FNDA:0,_RNCNvNtNtNtNtNtCsksqSOdb1Dlf_9serverlib6engine8database7inbuilt8datetime7helpers26datetime_from_unix_seconds0Bd_
FNDA:0,_RNvNtNtNtNtNtCsksqSOdb1Dlf_9serverlib6engine8database7inbuilt8datetime7helpers14to_date_string
FNDA:0,_RNvNtNtNtNtNtCsksqSOdb1Dlf_9serverlib6engine8database7inbuilt8datetime7helpers16evaluate_f64_arg
FNDA:0,_RNvNtNtNtNtNtCsksqSOdb1Dlf_9serverlib6engine8database7inbuilt8datetime7helpers18sub_days_from_date
FNDA:0,_RNvNtNtNtNtNtCsksqSOdb1Dlf_9serverlib6engine8database7inbuilt8datetime7helpers21normalize_time_string
FNDA:0,_RNvNtNtNtNtNtCsksqSOdb1Dlf_9serverlib6engine8database7inbuilt8datetime7helpers25normalize_datetime_string
FNDA:0,_RNvNtNtNtNtNtCsksqSOdb1Dlf_9serverlib6engine8database7inbuilt8datetime7helpers25sub_seconds_from_datetime
FNDA:0,_RNvNtNtNtNtNtCsksqSOdb1Dlf_9serverlib6engine8database7inbuilt8datetime7helpers26datetime_from_unix_seconds
FNDA:0,_RNvNtNtNtNtNtCsksqSOdb1Dlf_9serverlib6engine8database7inbuilt8datetime7helpers34format_datetime_with_mysql_pattern
FNDA:1,_RINvNtNtNtNtNtCsksqSOdb1Dlf_9serverlib6engine8database7inbuilt8datetime7helpers13number_resultNtNtCslDfkGcRelIg_5alloc6string6StringEBc_
FNDA:21,_RINvNtNtNtNtNtCsksqSOdb1Dlf_9serverlib6engine8database7inbuilt8datetime7helpers13number_resultxEBc_
FNDA:2,_RINvNtNtNtNtNtCsksqSOdb1Dlf_9serverlib6engine8database7inbuilt8datetime7helpers13string_resultNtNtCslDfkGcRelIg_5alloc6string6StringEBc_
FNDA:10,_RNCNCNCNvNtNtNtNtNtCsksqSOdb1Dlf_9serverlib6engine8database7inbuilt8datetime7helpers14parse_datetimes0_000Bh_
FNDA:0,_RNCNCNvNtNtNtNtNtCsksqSOdb1Dlf_9serverlib6engine8database7inbuilt8datetime7helpers11extract_days_00Bf_
FNDA:0,_RNCNCNvNtNtNtNtNtCsksqSOdb1Dlf_9serverlib6engine8database7inbuilt8datetime7helpers12extract_hours_00Bf_
FNDA:0,_RNCNCNvNtNtNtNtNtCsksqSOdb1Dlf_9serverlib6engine8database7inbuilt8datetime7helpers12extract_weeks_00Bf_
FNDA:0,_RNCNCNvNtNtNtNtNtCsksqSOdb1Dlf_9serverlib6engine8database7inbuilt8datetime7helpers12extract_years_00Bf_
FNDA:0,_RNCNCNvNtNtNtNtNtCsksqSOdb1Dlf_9serverlib6engine8database7inbuilt8datetime7helpers13extract_months_00Bf_
FNDA:0,_RNCNCNvNtNtNtNtNtCsksqSOdb1Dlf_9serverlib6engine8database7inbuilt8datetime7helpers14extract_minutes_00Bf_
FNDA:0,_RNCNCNvNtNtNtNtNtCsksqSOdb1Dlf_9serverlib6engine8database7inbuilt8datetime7helpers14extract_seconds_00Bf_
FNDA:10,_RNCNCNvNtNtNtNtNtCsksqSOdb1Dlf_9serverlib6engine8database7inbuilt8datetime7helpers14parse_datetimes0_00Bf_
FNDA:21,_RNCNCNvNtNtNtNtNtCsksqSOdb1Dlf_9serverlib6engine8database7inbuilt8datetime7helpers14parse_datetimes_00Bf_
FNDA:0,_RNCNCNvNtNtNtNtNtCsksqSOdb1Dlf_9serverlib6engine8database7inbuilt8datetime7helpers15extract_weekdays_00Bf_
FNDA:0,_RNCNCNvNtNtNtNtNtCsksqSOdb1Dlf_9serverlib6engine8database7inbuilt8datetime7helpers16extract_yearweeks_00Bf_
FNDA:0,_RNCNCNvNtNtNtNtNtCsksqSOdb1Dlf_9serverlib6engine8database7inbuilt8datetime7helpers19extract_day_of_weeks_00Bf_
FNDA:0,_RNCNCNvNtNtNtNtNtCsksqSOdb1Dlf_9serverlib6engine8database7inbuilt8datetime7helpers19extract_day_of_years_00Bf_
FNDA:0,_RNCNCNvNtNtNtNtNtCsksqSOdb1Dlf_9serverlib6engine8database7inbuilt8datetime7helpers19extract_microseconds_00Bf_
FNDA:0,_RNCNCNvNtNtNtNtNtCsksqSOdb1Dlf_9serverlib6engine8database7inbuilt8datetime7helpers23time_difference_secondss1_00Bf_
FNDA:0,_RNCNCNvNtNtNtNtNtCsksqSOdb1Dlf_9serverlib6engine8database7inbuilt8datetime7helpers23time_difference_secondss_00Bf_
FNDA:0,_RNCNCNvNtNtNtNtNtCsksqSOdb1Dlf_9serverlib6engine8database7inbuilt8datetime7helpers8day_names_00Bf_
FNDA:54,_RNCNvNtNtNtNtNtCsksqSOdb1Dlf_9serverlib6engine8database7inbuilt8datetime7helpers10parse_date0Bd_
FNDA:13,_RNCNvNtNtNtNtNtCsksqSOdb1Dlf_9serverlib6engine8database7inbuilt8datetime7helpers10parse_time0Bd_
FNDA:2,_RNCNvNtNtNtNtNtCsksqSOdb1Dlf_9serverlib6engine8database7inbuilt8datetime7helpers11extract_day0Bd_
FNDA:0,_RNCNvNtNtNtNtNtCsksqSOdb1Dlf_9serverlib6engine8database7inbuilt8datetime7helpers11extract_days_0Bd_
FNDA:1,_RNCNvNtNtNtNtNtCsksqSOdb1Dlf_9serverlib6engine8database7inbuilt8datetime7helpers12extract_hour0Bd_
FNDA:0,_RNCNvNtNtNtNtNtCsksqSOdb1Dlf_9serverlib6engine8database7inbuilt8datetime7helpers12extract_hours_0Bd_
FNDA:2,_RNCNvNtNtNtNtNtCsksqSOdb1Dlf_9serverlib6engine8database7inbuilt8datetime7helpers12extract_week0Bd_
FNDA:0,_RNCNvNtNtNtNtNtCsksqSOdb1Dlf_9serverlib6engine8database7inbuilt8datetime7helpers12extract_weeks_0Bd_
FNDA:1,_RNCNvNtNtNtNtNtCsksqSOdb1Dlf_9serverlib6engine8database7inbuilt8datetime7helpers12extract_year0Bd_
FNDA:0,_RNCNvNtNtNtNtNtCsksqSOdb1Dlf_9serverlib6engine8database7inbuilt8datetime7helpers12extract_years_0Bd_
FNDA:2,_RNCNvNtNtNtNtNtCsksqSOdb1Dlf_9serverlib6engine8database7inbuilt8datetime7helpers13extract_month0Bd_
FNDA:0,_RNCNvNtNtNtNtNtCsksqSOdb1Dlf_9serverlib6engine8database7inbuilt8datetime7helpers13extract_months_0Bd_
FNDA:1,_RNCNvNtNtNtNtNtCsksqSOdb1Dlf_9serverlib6engine8database7inbuilt8datetime7helpers14extract_minute0Bd_
FNDA:0,_RNCNvNtNtNtNtNtCsksqSOdb1Dlf_9serverlib6engine8database7inbuilt8datetime7helpers14extract_minutes_0Bd_
FNDA:1,_RNCNvNtNtNtNtNtCsksqSOdb1Dlf_9serverlib6engine8database7inbuilt8datetime7helpers14extract_second0Bd_
FNDA:0,_RNCNvNtNtNtNtNtCsksqSOdb1Dlf_9serverlib6engine8database7inbuilt8datetime7helpers14extract_seconds_0Bd_
FNDA:126,_RNCNvNtNtNtNtNtCsksqSOdb1Dlf_9serverlib6engine8database7inbuilt8datetime7helpers14parse_datetime0Bd_
FNDA:10,_RNCNvNtNtNtNtNtCsksqSOdb1Dlf_9serverlib6engine8database7inbuilt8datetime7helpers14parse_datetimes0_0Bd_
FNDA:31,_RNCNvNtNtNtNtNtCsksqSOdb1Dlf_9serverlib6engine8database7inbuilt8datetime7helpers14parse_datetimes_0Bd_
FNDA:1,_RNCNvNtNtNtNtNtCsksqSOdb1Dlf_9serverlib6engine8database7inbuilt8datetime7helpers15extract_quarter0Bd_
FNDA:1,_RNCNvNtNtNtNtNtCsksqSOdb1Dlf_9serverlib6engine8database7inbuilt8datetime7helpers15extract_weekday0Bd_
FNDA:0,_RNCNvNtNtNtNtNtCsksqSOdb1Dlf_9serverlib6engine8database7inbuilt8datetime7helpers15extract_weekdays_0Bd_
FNDA:0,_RNCNvNtNtNtNtNtCsksqSOdb1Dlf_9serverlib6engine8database7inbuilt8datetime7helpers16evaluate_i64_arg0Bd_
FNDA:1,_RNCNvNtNtNtNtNtCsksqSOdb1Dlf_9serverlib6engine8database7inbuilt8datetime7helpers16extract_yearweek0Bd_
FNDA:0,_RNCNvNtNtNtNtNtCsksqSOdb1Dlf_9serverlib6engine8database7inbuilt8datetime7helpers16extract_yearweeks_0Bd_
FNDA:0,_RNCNvNtNtNtNtNtCsksqSOdb1Dlf_9serverlib6engine8database7inbuilt8datetime7helpers17add_days_to_value0Bd_
FNDA:1,_RNCNvNtNtNtNtNtCsksqSOdb1Dlf_9serverlib6engine8database7inbuilt8datetime7helpers17last_day_of_month0Bd_
FNDA:0,_RNCNvNtNtNtNtNtCsksqSOdb1Dlf_9serverlib6engine8database7inbuilt8datetime7helpers17last_day_of_months_0Bd_
FNDA:0,_RNCNvNtNtNtNtNtCsksqSOdb1Dlf_9serverlib6engine8database7inbuilt8datetime7helpers17usage_for_clarity0Bd_
FNDA:0,_RNCNvNtNtNtNtNtCsksqSOdb1Dlf_9serverlib6engine8database7inbuilt8datetime7helpers17usage_for_claritys_0Bd_
FNDA:56,_RNCNvNtNtNtNtNtCsksqSOdb1Dlf_9serverlib6engine8database7inbuilt8datetime7helpers19evaluate_string_arg0Bd_
FNDA:1,_RNCNvNtNtNtNtNtCsksqSOdb1Dlf_9serverlib6engine8database7inbuilt8datetime7helpers19extract_day_of_week0Bd_
FNDA:0,_RNCNvNtNtNtNtNtCsksqSOdb1Dlf_9serverlib6engine8database7inbuilt8datetime7helpers19extract_day_of_weeks_0Bd_
FNDA:1,_RNCNvNtNtNtNtNtCsksqSOdb1Dlf_9serverlib6engine8database7inbuilt8datetime7helpers19extract_day_of_year0Bd_
FNDA:0,_RNCNvNtNtNtNtNtCsksqSOdb1Dlf_9serverlib6engine8database7inbuilt8datetime7helpers19extract_day_of_years_0Bd_
FNDA:1,_RNCNvNtNtNtNtNtCsksqSOdb1Dlf_9serverlib6engine8database7inbuilt8datetime7helpers19extract_microsecond0Bd_
FNDA:0,_RNCNvNtNtNtNtNtCsksqSOdb1Dlf_9serverlib6engine8database7inbuilt8datetime7helpers19extract_microseconds_0Bd_
FNDA:1,_RNCNvNtNtNtNtNtCsksqSOdb1Dlf_9serverlib6engine8database7inbuilt8datetime7helpers20date_difference_days0Bd_
FNDA:1,_RNCNvNtNtNtNtNtCsksqSOdb1Dlf_9serverlib6engine8database7inbuilt8datetime7helpers20date_difference_dayss0_0Bd_
FNDA:0,_RNCNvNtNtNtNtNtCsksqSOdb1Dlf_9serverlib6engine8database7inbuilt8datetime7helpers20date_difference_dayss1_0Bd_
FNDA:0,_RNCNvNtNtNtNtNtCsksqSOdb1Dlf_9serverlib6engine8database7inbuilt8datetime7helpers20date_difference_dayss_0Bd_
FNDA:1,_RNCNvNtNtNtNtNtCsksqSOdb1Dlf_9serverlib6engine8database7inbuilt8datetime7helpers23time_difference_seconds0Bd_
FNDA:1,_RNCNvNtNtNtNtNtCsksqSOdb1Dlf_9serverlib6engine8database7inbuilt8datetime7helpers23time_difference_secondss0_0Bd_
FNDA:0,_RNCNvNtNtNtNtNtCsksqSOdb1Dlf_9serverlib6engine8database7inbuilt8datetime7helpers23time_difference_secondss1_0Bd_
FNDA:0,_RNCNvNtNtNtNtNtCsksqSOdb1Dlf_9serverlib6engine8database7inbuilt8datetime7helpers23time_difference_secondss_0Bd_
FNDA:1,_RNCNvNtNtNtNtNtCsksqSOdb1Dlf_9serverlib6engine8database7inbuilt8datetime7helpers30str_to_date_with_mysql_pattern0Bd_
FNDA:0,_RNCNvNtNtNtNtNtCsksqSOdb1Dlf_9serverlib6engine8database7inbuilt8datetime7helpers30str_to_date_with_mysql_patterns_0Bd_
FNDA:1,_RNCNvNtNtNtNtNtCsksqSOdb1Dlf_9serverlib6engine8database7inbuilt8datetime7helpers8day_name0Bd_
FNDA:0,_RNCNvNtNtNtNtNtCsksqSOdb1Dlf_9serverlib6engine8database7inbuilt8datetime7helpers8day_names_0Bd_
FNDA:32,_RNvNtNtNtNtNtCsksqSOdb1Dlf_9serverlib6engine8database7inbuilt8datetime7helpers10parse_date
FNDA:13,_RNvNtNtNtNtNtCsksqSOdb1Dlf_9serverlib6engine8database7inbuilt8datetime7helpers10parse_time
FNDA:1,_RNvNtNtNtNtNtCsksqSOdb1Dlf_9serverlib6engine8database7inbuilt8datetime7helpers10period_add
FNDA:2,_RNvNtNtNtNtNtCsksqSOdb1Dlf_9serverlib6engine8database7inbuilt8datetime7helpers11extract_day
FNDA:1,_RNvNtNtNtNtNtCsksqSOdb1Dlf_9serverlib6engine8database7inbuilt8datetime7helpers11period_diff
FNDA:1,_RNvNtNtNtNtNtCsksqSOdb1Dlf_9serverlib6engine8database7inbuilt8datetime7helpers12extract_hour
FNDA:2,_RNvNtNtNtNtNtCsksqSOdb1Dlf_9serverlib6engine8database7inbuilt8datetime7helpers12extract_week
FNDA:1,_RNvNtNtNtNtNtCsksqSOdb1Dlf_9serverlib6engine8database7inbuilt8datetime7helpers12extract_year
FNDA:2,_RNvNtNtNtNtNtCsksqSOdb1Dlf_9serverlib6engine8database7inbuilt8datetime7helpers13extract_month
FNDA:2,_RNvNtNtNtNtNtCsksqSOdb1Dlf_9serverlib6engine8database7inbuilt8datetime7helpers14date_to_string
FNDA:1,_RNvNtNtNtNtNtCsksqSOdb1Dlf_9serverlib6engine8database7inbuilt8datetime7helpers14extract_minute
FNDA:1,_RNvNtNtNtNtNtCsksqSOdb1Dlf_9serverlib6engine8database7inbuilt8datetime7helpers14extract_second
FNDA:33,_RNvNtNtNtNtNtCsksqSOdb1Dlf_9serverlib6engine8database7inbuilt8datetime7helpers14parse_datetime
FNDA:1,_RNvNtNtNtNtNtCsksqSOdb1Dlf_9serverlib6engine8database7inbuilt8datetime7helpers14time_to_string
FNDA:1,_RNvNtNtNtNtNtCsksqSOdb1Dlf_9serverlib6engine8database7inbuilt8datetime7helpers15extract_quarter
FNDA:1,_RNvNtNtNtNtNtCsksqSOdb1Dlf_9serverlib6engine8database7inbuilt8datetime7helpers15extract_weekday
FNDA:0,_RNvNtNtNtNtNtCsksqSOdb1Dlf_9serverlib6engine8database7inbuilt8datetime7helpers16add_days_to_date
FNDA:15,_RNvNtNtNtNtNtCsksqSOdb1Dlf_9serverlib6engine8database7inbuilt8datetime7helpers16evaluate_i64_arg
FNDA:47,_RNvNtNtNtNtNtCsksqSOdb1Dlf_9serverlib6engine8database7inbuilt8datetime7helpers16expect_arg_count
FNDA:8,_RNvNtNtNtNtNtCsksqSOdb1Dlf_9serverlib6engine8database7inbuilt8datetime7helpers16expect_zero_args
FNDA:1,_RNvNtNtNtNtNtCsksqSOdb1Dlf_9serverlib6engine8database7inbuilt8datetime7helpers16extract_yearweek
FNDA:1,_RNvNtNtNtNtNtCsksqSOdb1Dlf_9serverlib6engine8database7inbuilt8datetime7helpers16make_time_string
FNDA:4,_RNvNtNtNtNtNtCsksqSOdb1Dlf_9serverlib6engine8database7inbuilt8datetime7helpers17add_days_to_value
FNDA:1,_RNvNtNtNtNtNtCsksqSOdb1Dlf_9serverlib6engine8database7inbuilt8datetime7helpers17last_day_of_month
FNDA:2,_RNvNtNtNtNtNtCsksqSOdb1Dlf_9serverlib6engine8database7inbuilt8datetime7helpers17time_from_seconds
FNDA:0,_RNvNtNtNtNtNtCsksqSOdb1Dlf_9serverlib6engine8database7inbuilt8datetime7helpers17usage_for_clarity
FNDA:7,_RNvNtNtNtNtNtCsksqSOdb1Dlf_9serverlib6engine8database7inbuilt8datetime7helpers18datetime_to_string
FNDA:56,_RNvNtNtNtNtNtCsksqSOdb1Dlf_9serverlib6engine8database7inbuilt8datetime7helpers18evaluate_bytes_arg
FNDA:56,_RNvNtNtNtNtNtCsksqSOdb1Dlf_9serverlib6engine8database7inbuilt8datetime7helpers19evaluate_string_arg
FNDA:1,_RNvNtNtNtNtNtCsksqSOdb1Dlf_9serverlib6engine8database7inbuilt8datetime7helpers19extract_day_of_week
FNDA:1,_RNvNtNtNtNtNtCsksqSOdb1Dlf_9serverlib6engine8database7inbuilt8datetime7helpers19extract_day_of_year
FNDA:1,_RNvNtNtNtNtNtCsksqSOdb1Dlf_9serverlib6engine8database7inbuilt8datetime7helpers19extract_microsecond
FNDA:2,_RNvNtNtNtNtNtCsksqSOdb1Dlf_9serverlib6engine8database7inbuilt8datetime7helpers19sub_days_from_value
FNDA:2,_RNvNtNtNtNtNtCsksqSOdb1Dlf_9serverlib6engine8database7inbuilt8datetime7helpers19utc_now_date_string
FNDA:2,_RNvNtNtNtNtNtCsksqSOdb1Dlf_9serverlib6engine8database7inbuilt8datetime7helpers19utc_now_time_string
FNDA:4,_RNvNtNtNtNtNtCsksqSOdb1Dlf_9serverlib6engine8database7inbuilt8datetime7helpers20add_days_to_datetime
FNDA:1,_RNvNtNtNtNtNtCsksqSOdb1Dlf_9serverlib6engine8database7inbuilt8datetime7helpers20date_difference_days
FNDA:1,_RNvNtNtNtNtNtCsksqSOdb1Dlf_9serverlib6engine8database7inbuilt8datetime7helpers20date_from_mysql_days
FNDA:1,_RNvNtNtNtNtNtCsksqSOdb1Dlf_9serverlib6engine8database7inbuilt8datetime7helpers22date_from_year_and_day
FNDA:1,_RNvNtNtNtNtNtCsksqSOdb1Dlf_9serverlib6engine8database7inbuilt8datetime7helpers22days_from_mysql_origin
FNDA:2,_RNvNtNtNtNtNtCsksqSOdb1Dlf_9serverlib6engine8database7inbuilt8datetime7helpers22mysql_format_to_chrono
FNDA:2,_RNvNtNtNtNtNtCsksqSOdb1Dlf_9serverlib6engine8database7inbuilt8datetime7helpers23add_seconds_to_datetime
FNDA:1,_RNvNtNtNtNtNtCsksqSOdb1Dlf_9serverlib6engine8database7inbuilt8datetime7helpers23time_difference_seconds
FNDA:2,_RNvNtNtNtNtNtCsksqSOdb1Dlf_9serverlib6engine8database7inbuilt8datetime7helpers23time_seconds_from_value
FNDA:4,_RNvNtNtNtNtNtCsksqSOdb1Dlf_9serverlib6engine8database7inbuilt8datetime7helpers23utc_now_datetime_string
FNDA:0,_RNvNtNtNtNtNtCsksqSOdb1Dlf_9serverlib6engine8database7inbuilt8datetime7helpers30format_date_with_mysql_pattern
FNDA:1,_RNvNtNtNtNtNtCsksqSOdb1Dlf_9serverlib6engine8database7inbuilt8datetime7helpers30format_time_with_mysql_pattern
FNDA:1,_RNvNtNtNtNtNtCsksqSOdb1Dlf_9serverlib6engine8database7inbuilt8datetime7helpers30str_to_date_with_mysql_pattern
FNDA:1,_RNvNtNtNtNtNtCsksqSOdb1Dlf_9serverlib6engine8database7inbuilt8datetime7helpers8day_name
FNF:140
FNH:77
DA:7,47
DA:8,47
DA:9,47
DA:10,47
DA:11,47
DA:12,47
DA:14,47
DA:15,0
DA:16,0
DA:17,0
DA:18,0
DA:19,0
DA:20,0
DA:21,0
DA:22,0
DA:23,0
DA:24,0
DA:25,0
DA:26,0
DA:27,0
DA:28,0
DA:29,0
DA:30,0
DA:31,47
DA:33,47
DA:35,47
DA:37,0
DA:39,0
DA:40,0
DA:41,0
DA:43,0
DA:44,0
DA:45,0
DA:46,0
DA:47,0
DA:48,0
DA:49,0
DA:51,0
DA:52,0
DA:53,0
DA:54,0
DA:56,0
DA:57,0
DA:58,0
DA:59,0
DA:60,0
DA:61,0
DA:62,0
DA:64,0
DA:66,0
DA:68,8
DA:69,8
DA:70,8
DA:72,56
DA:73,56
DA:74,56
DA:75,56
DA:77,56
DA:78,56
DA:79,56
DA:80,56
DA:82,15
DA:83,15
DA:84,0
DA:87,15
DA:88,0
DA:89,0
DA:90,15
DA:92,0
DA:93,0
DA:94,0
DA:97,0
DA:98,0
DA:99,0
DA:100,0
DA:102,22
DA:103,22
DA:104,22
DA:106,2
DA:107,2
DA:108,2
DA:110,2
DA:111,2
DA:112,2
DA:114,2
DA:115,2
DA:116,2
DA:118,4
DA:119,4
DA:120,4
DA:122,32
DA:123,32
DA:124,32
DA:125,32
DA:126,32
DA:127,32
DA:128,32
DA:129,32
DA:130,54
DA:131,32
DA:133,13
DA:134,13
DA:135,13
DA:136,13
DA:137,13
DA:138,13
DA:139,13
DA:140,13
DA:141,13
DA:142,13
DA:144,33
DA:145,33
DA:146,33
DA:147,33
DA:148,33
DA:149,33
DA:150,33
DA:151,33
DA:152,33
DA:153,126
DA:154,33
DA:155,33
DA:156,33
DA:158,2
DA:159,2
DA:160,2
DA:162,1
DA:163,1
DA:164,1
DA:166,7
DA:167,7
DA:168,7
DA:170,2
DA:172,2
DA:173,2
DA:175,10
DA:177,8
DA:178,3
DA:179,3
DA:180,5
DA:182,5
DA:183,0
DA:184,0
DA:187,5
DA:189,0
DA:190,1
DA:191,0
DA:192,1
DA:193,0
DA:194,1
DA:195,0
DA:196,1
DA:197,0
DA:198,0
DA:199,0
DA:200,1
DA:201,0
DA:202,0
DA:203,0
DA:204,0
DA:205,0
DA:206,0
DA:207,0
DA:208,0
DA:209,0
DA:210,0
DA:211,0
DA:212,0
DA:213,0
DA:214,0
DA:220,2
DA:222,2
DA:224,0
DA:225,0
DA:226,0
DA:228,0
DA:229,0
DA:230,0
DA:232,1
DA:233,1
DA:234,1
DA:236,1
DA:238,1
DA:239,1
DA:241,1
DA:242,1
DA:243,1
DA:244,1
DA:245,1
DA:247,1
DA:249,1
DA:250,1
DA:251,1
DA:253,1
DA:255,1
DA:256,1
DA:257,1
DA:258,1
DA:260,1
DA:262,1
DA:264,1
DA:265,1
DA:266,1
DA:268,1
DA:269,1
DA:270,1
DA:272,1
DA:274,1
DA:276,1
DA:278,1
DA:279,1
DA:280,1
DA:282,1
DA:283,1
DA:284,1
DA:286,1
DA:288,1
DA:290,0
DA:292,0
DA:293,0
DA:294,0
DA:295,0
DA:297,0
DA:299,0
DA:301,0
DA:302,0
DA:303,0
DA:304,0
DA:305,0
DA:306,0
DA:307,0
DA:308,0
DA:309,0
DA:310,0
DA:311,0
DA:312,0
DA:314,0
DA:316,0
DA:317,0
DA:318,0
DA:319,0
DA:320,0
DA:322,1
DA:323,1
DA:324,1
DA:325,1
DA:326,1
DA:328,2
DA:329,2
DA:330,2
DA:331,2
DA:332,2
DA:334,2
DA:335,2
DA:336,2
DA:337,2
DA:338,2
DA:340,1
DA:341,1
DA:342,1
DA:344,1
DA:345,1
DA:346,1
DA:347,1
DA:348,1
DA:350,1
DA:351,1
DA:352,1
DA:353,1
DA:354,1
DA:356,1
DA:357,1
DA:358,1
DA:359,1
DA:360,1
DA:362,1
DA:363,1
DA:364,1
DA:365,1
DA:366,1
DA:368,1
DA:369,1
DA:370,1
DA:371,1
DA:372,1
DA:374,1
DA:375,1
DA:376,1
DA:377,1
DA:378,1
DA:380,1
DA:381,1
DA:382,1
DA:383,1
DA:384,1
DA:386,2
DA:387,2
DA:388,2
DA:389,2
DA:390,2
DA:392,1
DA:393,1
DA:394,1
DA:395,1
DA:396,1
DA:397,1
DA:398,1
DA:399,0
DA:400,0
DA:401,0
DA:402,0
DA:403,0
DA:404,1
DA:406,1
DA:407,1
DA:408,1
DA:409,1
DA:410,1
DA:412,1
DA:414,1
DA:415,1
DA:417,1
DA:418,0
DA:420,1
DA:423,1
DA:425,1
DA:427,1
DA:429,1
DA:431,1
DA:432,1
DA:434,1
DA:435,0
DA:436,1
DA:438,1
DA:439,1
DA:440,1
DA:442,1
DA:444,1
DA:446,1
DA:448,1
DA:449,1
DA:450,1
DA:451,1
DA:453,1
DA:454,0
DA:455,1
DA:457,1
DA:459,1
DA:461,1
DA:462,1
DA:463,1
DA:465,1
DA:466,1
DA:467,1
DA:469,0
DA:470,0
DA:471,0
DA:473,4
DA:474,4
DA:475,4
DA:477,4
DA:479,4
DA:480,4
DA:481,0
DA:483,0
DA:484,0
DA:485,0
DA:487,4
DA:489,0
DA:490,0
DA:491,0
DA:493,2
DA:494,2
DA:496,2
DA:498,2
DA:499,2
DA:500,2
DA:502,0
DA:503,0
DA:504,0
DA:506,2
DA:508,2
DA:509,2
DA:510,2
DA:512,2
DA:513,2
DA:515,0
DA:518,2
DA:520,2
DA:522,2
DA:524,2
DA:525,2
DA:526,2
DA:527,2
DA:528,2
DA:530,2
DA:532,2
DA:538,2
DA:540,0
DA:542,0
DA:543,0
DA:545,0
BRF:0
BRH:0
LF:483
LH:301
end_of_record
SF:/Users/samcolak/Source Code/rust/distdb/distdb/serverlib/src/engine/database/inbuilt/datetime/hour.rs
FN:15,_RNvXNtNtNtNtNtCsksqSOdb1Dlf_9serverlib6engine8database7inbuilt8datetime4hourNtB2_11HourCommandNtNtB6_7command20InbuiltServerCommand4name
FN:19,_RNvXNtNtNtNtNtCsksqSOdb1Dlf_9serverlib6engine8database7inbuilt8datetime4hourNtB2_11HourCommandNtNtB6_7command20InbuiltServerCommand8evaluate
FNDA:1,_RNvXNtNtNtNtNtCsksqSOdb1Dlf_9serverlib6engine8database7inbuilt8datetime4hourNtB2_11HourCommandNtNtB6_7command20InbuiltServerCommand4name
FNDA:1,_RNvXNtNtNtNtNtCsksqSOdb1Dlf_9serverlib6engine8database7inbuilt8datetime4hourNtB2_11HourCommandNtNtB6_7command20InbuiltServerCommand8evaluate
FNF:2
FNH:2
DA:15,1
DA:16,1
DA:17,1
DA:19,1
DA:21,1
DA:23,1
DA:25,1
DA:26,0
DA:29,1
DA:31,1
BRF:0
BRH:0
LF:10
LH:9
end_of_record
SF:/Users/samcolak/Source Code/rust/distdb/distdb/serverlib/src/engine/database/inbuilt/datetime/last_day.rs
FN:15,_RNvXNtNtNtNtNtCsksqSOdb1Dlf_9serverlib6engine8database7inbuilt8datetime8last_dayNtB2_14LastDayCommandNtNtB6_7command20InbuiltServerCommand4name
FN:19,_RNvXNtNtNtNtNtCsksqSOdb1Dlf_9serverlib6engine8database7inbuilt8datetime8last_dayNtB2_14LastDayCommandNtNtB6_7command20InbuiltServerCommand8evaluate
FNDA:1,_RNvXNtNtNtNtNtCsksqSOdb1Dlf_9serverlib6engine8database7inbuilt8datetime8last_dayNtB2_14LastDayCommandNtNtB6_7command20InbuiltServerCommand4name
FNDA:1,_RNvXNtNtNtNtNtCsksqSOdb1Dlf_9serverlib6engine8database7inbuilt8datetime8last_dayNtB2_14LastDayCommandNtNtB6_7command20InbuiltServerCommand8evaluate
FNF:2
FNH:2
DA:15,1
DA:16,1
DA:17,1
DA:19,1
DA:21,1
DA:23,1
DA:25,1
DA:26,0
DA:29,1
DA:31,1
BRF:0
BRH:0
LF:10
LH:9
end_of_record
SF:/Users/samcolak/Source Code/rust/distdb/distdb/serverlib/src/engine/database/inbuilt/datetime/localtime.rs
FN:16,_RNvXNtNtNtNtNtCsksqSOdb1Dlf_9serverlib6engine8database7inbuilt8datetime9localtimeNtB2_16LocalTimeCommandNtNtB6_7command20InbuiltServerCommand4name
FN:20,_RNvXNtNtNtNtNtCsksqSOdb1Dlf_9serverlib6engine8database7inbuilt8datetime9localtimeNtB2_16LocalTimeCommandNtNtB6_7command20InbuiltServerCommand8evaluate
FNDA:1,_RNvXNtNtNtNtNtCsksqSOdb1Dlf_9serverlib6engine8database7inbuilt8datetime9localtimeNtB2_16LocalTimeCommandNtNtB6_7command20InbuiltServerCommand4name
FNDA:1,_RNvXNtNtNtNtNtCsksqSOdb1Dlf_9serverlib6engine8database7inbuilt8datetime9localtimeNtB2_16LocalTimeCommandNtNtB6_7command20InbuiltServerCommand8evaluate
FNF:2
FNH:2
DA:16,1
DA:17,1
DA:18,1
DA:20,1
DA:22,1
DA:24,1
DA:26,1
DA:28,1
BRF:0
BRH:0
LF:8
LH:8
end_of_record
SF:/Users/samcolak/Source Code/rust/distdb/distdb/serverlib/src/engine/database/inbuilt/datetime/localtimestamp.rs
FN:16,_RNvXNtNtNtNtNtCsksqSOdb1Dlf_9serverlib6engine8database7inbuilt8datetime14localtimestampNtB2_21LocalTimestampCommandNtNtB6_7command20InbuiltServerCommand4name
FN:20,_RNvXNtNtNtNtNtCsksqSOdb1Dlf_9serverlib6engine8database7inbuilt8datetime14localtimestampNtB2_21LocalTimestampCommandNtNtB6_7command20InbuiltServerCommand8evaluate
FNDA:1,_RNvXNtNtNtNtNtCsksqSOdb1Dlf_9serverlib6engine8database7inbuilt8datetime14localtimestampNtB2_21LocalTimestampCommandNtNtB6_7command20InbuiltServerCommand4name
FNDA:1,_RNvXNtNtNtNtNtCsksqSOdb1Dlf_9serverlib6engine8database7inbuilt8datetime14localtimestampNtB2_21LocalTimestampCommandNtNtB6_7command20InbuiltServerCommand8evaluate
FNF:2
FNH:2
DA:16,1
DA:17,1
DA:18,1
DA:20,1
DA:22,1
DA:24,1
DA:26,1
DA:28,1
BRF:0
BRH:0
LF:8
LH:8
end_of_record
SF:/Users/samcolak/Source Code/rust/distdb/distdb/serverlib/src/engine/database/inbuilt/datetime/makedate.rs
FN:16,_RNvXNtNtNtNtNtCsksqSOdb1Dlf_9serverlib6engine8database7inbuilt8datetime8makedateNtB2_15MakeDateCommandNtNtB6_7command20InbuiltServerCommand4name
FN:20,_RNvXNtNtNtNtNtCsksqSOdb1Dlf_9serverlib6engine8database7inbuilt8datetime8makedateNtB2_15MakeDateCommandNtNtB6_7command20InbuiltServerCommand8evaluate
FN:34,_RNCNvXNtNtNtNtNtCsksqSOdb1Dlf_9serverlib6engine8database7inbuilt8datetime8makedateNtB4_15MakeDateCommandNtNtB8_7command20InbuiltServerCommand8evaluate0Be_
FNDA:1,_RNvXNtNtNtNtNtCsksqSOdb1Dlf_9serverlib6engine8database7inbuilt8datetime8makedateNtB2_15MakeDateCommandNtNtB6_7command20InbuiltServerCommand4name
FNDA:1,_RNvXNtNtNtNtNtCsksqSOdb1Dlf_9serverlib6engine8database7inbuilt8datetime8makedateNtB2_15MakeDateCommandNtNtB6_7command20InbuiltServerCommand8evaluate
FNDA:1,_RNCNvXNtNtNtNtNtCsksqSOdb1Dlf_9serverlib6engine8database7inbuilt8datetime8makedateNtB4_15MakeDateCommandNtNtB8_7command20InbuiltServerCommand8evaluate0Be_
FNF:3
FNH:3
DA:16,1
DA:17,1
DA:18,1
DA:20,1
DA:22,1
DA:24,1
DA:26,1
DA:27,0
DA:30,1
DA:31,0
DA:34,1
DA:36,1
BRF:0
BRH:0
LF:13
LH:11
end_of_record
SF:/Users/samcolak/Source Code/rust/distdb/distdb/serverlib/src/engine/database/inbuilt/datetime/maketime.rs
FN:16,_RNvXNtNtNtNtNtCsksqSOdb1Dlf_9serverlib6engine8database7inbuilt8datetime8maketimeNtB2_15MakeTimeCommandNtNtB6_7command20InbuiltServerCommand4name
FN:20,_RNvXNtNtNtNtNtCsksqSOdb1Dlf_9serverlib6engine8database7inbuilt8datetime8maketimeNtB2_15MakeTimeCommandNtNtB6_7command20InbuiltServerCommand8evaluate
FN:38,_RNCNvXNtNtNtNtNtCsksqSOdb1Dlf_9serverlib6engine8database7inbuilt8datetime8maketimeNtB4_15MakeTimeCommandNtNtB8_7command20InbuiltServerCommand8evaluate0Be_
FNDA:1,_RNvXNtNtNtNtNtCsksqSOdb1Dlf_9serverlib6engine8database7inbuilt8datetime8maketimeNtB2_15MakeTimeCommandNtNtB6_7command20InbuiltServerCommand4name
FNDA:1,_RNvXNtNtNtNtNtCsksqSOdb1Dlf_9serverlib6engine8database7inbuilt8datetime8maketimeNtB2_15MakeTimeCommandNtNtB6_7command20InbuiltServerCommand8evaluate
FNDA:1,_RNCNvXNtNtNtNtNtCsksqSOdb1Dlf_9serverlib6engine8database7inbuilt8datetime8maketimeNtB4_15MakeTimeCommandNtNtB8_7command20InbuiltServerCommand8evaluate0Be_
FNF:3
FNH:3
DA:16,1
DA:17,1
DA:18,1
DA:20,1
DA:22,1
DA:24,1
DA:26,1
DA:27,0
DA:30,1
DA:31,0
DA:34,1
DA:35,0
DA:38,1
DA:40,1
BRF:0
BRH:0
LF:15
LH:12
end_of_record
SF:/Users/samcolak/Source Code/rust/distdb/distdb/serverlib/src/engine/database/inbuilt/datetime/microsecond.rs
FN:16,_RNvXNtNtNtNtNtCsksqSOdb1Dlf_9serverlib6engine8database7inbuilt8datetime11microsecondNtB2_18MicrosecondCommandNtNtB6_7command20InbuiltServerCommand4name
FN:20,_RNvXNtNtNtNtNtCsksqSOdb1Dlf_9serverlib6engine8database7inbuilt8datetime11microsecondNtB2_18MicrosecondCommandNtNtB6_7command20InbuiltServerCommand8evaluate
FNDA:1,_RNvXNtNtNtNtNtCsksqSOdb1Dlf_9serverlib6engine8database7inbuilt8datetime11microsecondNtB2_18MicrosecondCommandNtNtB6_7command20InbuiltServerCommand4name
FNDA:1,_RNvXNtNtNtNtNtCsksqSOdb1Dlf_9serverlib6engine8database7inbuilt8datetime11microsecondNtB2_18MicrosecondCommandNtNtB6_7command20InbuiltServerCommand8evaluate
FNF:2
FNH:2
DA:16,1
DA:17,1
DA:18,1
DA:20,1
DA:22,1
DA:24,1
DA:26,1
DA:27,0
DA:30,1
DA:32,1
BRF:0
BRH:0
LF:10
LH:9
end_of_record
SF:/Users/samcolak/Source Code/rust/distdb/distdb/serverlib/src/engine/database/inbuilt/datetime/minute.rs
FN:15,_RNvXNtNtNtNtNtCsksqSOdb1Dlf_9serverlib6engine8database7inbuilt8datetime6minuteNtB2_13MinuteCommandNtNtB6_7command20InbuiltServerCommand4name
FN:19,_RNvXNtNtNtNtNtCsksqSOdb1Dlf_9serverlib6engine8database7inbuilt8datetime6minuteNtB2_13MinuteCommandNtNtB6_7command20InbuiltServerCommand8evaluate
FNDA:1,_RNvXNtNtNtNtNtCsksqSOdb1Dlf_9serverlib6engine8database7inbuilt8datetime6minuteNtB2_13MinuteCommandNtNtB6_7command20InbuiltServerCommand4name
FNDA:1,_RNvXNtNtNtNtNtCsksqSOdb1Dlf_9serverlib6engine8database7inbuilt8datetime6minuteNtB2_13MinuteCommandNtNtB6_7command20InbuiltServerCommand8evaluate
FNF:2
FNH:2
DA:15,1
DA:16,1
DA:17,1
DA:19,1
DA:21,1
DA:23,1
DA:25,1
DA:26,0
DA:29,1
DA:31,1
BRF:0
BRH:0
LF:10
LH:9
end_of_record
SF:/Users/samcolak/Source Code/rust/distdb/distdb/serverlib/src/engine/database/inbuilt/datetime/mod.rs
FN:84,_RNCNvNtNtNtNtNtCsksqSOdb1Dlf_9serverlib6engine8database7inbuilt8datetime5tests19evaluate_expression0Bd_
FN:62,_RNvNtNtNtNtNtCsksqSOdb1Dlf_9serverlib6engine8database7inbuilt8datetime5tests19evaluate_expression
FN:205,_RNvNtNtNtNtNtCsksqSOdb1Dlf_9serverlib6engine8database7inbuilt8datetime5testss_40current_datetime_functions_return_values
FN:88,_RNvNtNtNtNtNtCsksqSOdb1Dlf_9serverlib6engine8database7inbuilt8datetime5testss_53datetime_function_registry_exposes_expected_functions
FN:147,_RNvNtNtNtNtNtCsksqSOdb1Dlf_9serverlib6engine8database7inbuilt8datetime5testss_59datetime_functions_match_expected_outputs_for_stable_inputs
FNDA:47,_RNCNvNtNtNtNtNtCsksqSOdb1Dlf_9serverlib6engine8database7inbuilt8datetime5tests19evaluate_expression0Bd_
FNDA:48,_RNvNtNtNtNtNtCsksqSOdb1Dlf_9serverlib6engine8database7inbuilt8datetime5tests19evaluate_expression
FNDA:1,_RNvNtNtNtNtNtCsksqSOdb1Dlf_9serverlib6engine8database7inbuilt8datetime5testss_40current_datetime_functions_return_values
FNDA:1,_RNvNtNtNtNtNtCsksqSOdb1Dlf_9serverlib6engine8database7inbuilt8datetime5testss_53datetime_function_registry_exposes_expected_functions
FNDA:1,_RNvNtNtNtNtNtCsksqSOdb1Dlf_9serverlib6engine8database7inbuilt8datetime5testss_59datetime_functions_match_expected_outputs_for_stable_inputs
FNF:5
FNH:5
DA:62,48
DA:63,48
DA:64,48
DA:66,48
DA:67,0
DA:70,48
DA:71,0
DA:74,48
DA:75,0
DA:78,48
DA:79,0
DA:82,48
DA:83,48
DA:84,48
DA:85,48
DA:88,1
DA:90,49
DA:91,1
DA:92,1
DA:93,1
DA:94,1
DA:95,1
DA:96,1
DA:97,1
DA:98,1
DA:99,1
DA:100,1
DA:101,1
DA:102,1
DA:103,1
DA:104,1
DA:105,1
DA:106,1
DA:107,1
DA:108,1
DA:109,1
DA:110,1
DA:111,1
DA:112,1
DA:113,1
DA:114,1
DA:115,1
DA:116,1
DA:117,1
DA:118,1
DA:119,1
DA:120,1
DA:121,1
DA:122,1
DA:123,1
DA:124,1
DA:125,1
DA:126,1
DA:127,1
DA:128,1
DA:129,1
DA:130,1
DA:131,1
DA:132,1
DA:133,1
DA:134,1
DA:135,1
DA:136,1
DA:137,1
DA:138,1
DA:139,1
DA:140,1
DA:141,49
DA:144,1
DA:147,1
DA:149,1
DA:150,1
DA:151,1
DA:152,1
DA:153,1
DA:154,1
DA:155,1
DA:156,1
DA:157,1
DA:158,1
DA:159,1
DA:160,1
DA:161,1
DA:162,1
DA:163,1
DA:164,1
DA:165,1
DA:166,1
DA:167,1
DA:168,1
DA:169,1
DA:171,19
DA:172,19
DA:175,1
DA:176,1
DA:177,1
DA:178,1
DA:179,1
DA:180,1
DA:181,1
DA:182,1
DA:183,1
DA:184,1
DA:185,1
DA:186,1
DA:187,1
DA:188,1
DA:189,1
DA:190,1
DA:191,1
DA:192,1
DA:193,1
DA:194,1
DA:195,1
DA:196,1
DA:198,20
DA:199,20
DA:200,20
DA:202,1
DA:205,1
DA:207,9
DA:208,1
DA:209,1
DA:210,1
DA:211,1
DA:212,1
DA:213,1
DA:214,1
DA:215,1
DA:216,1
DA:217,1
DA:218,9
DA:221,1
BRF:0
BRH:0
LF:134
LH:130
end_of_record
SF:/Users/samcolak/Source Code/rust/distdb/distdb/serverlib/src/engine/database/inbuilt/datetime/month.rs
FN:15,_RNvXNtNtNtNtNtCsksqSOdb1Dlf_9serverlib6engine8database7inbuilt8datetime5monthNtB2_12MonthCommandNtNtB6_7command20InbuiltServerCommand4name
FN:19,_RNvXNtNtNtNtNtCsksqSOdb1Dlf_9serverlib6engine8database7inbuilt8datetime5monthNtB2_12MonthCommandNtNtB6_7command20InbuiltServerCommand8evaluate
FNDA:1,_RNvXNtNtNtNtNtCsksqSOdb1Dlf_9serverlib6engine8database7inbuilt8datetime5monthNtB2_12MonthCommandNtNtB6_7command20InbuiltServerCommand4name
FNDA:1,_RNvXNtNtNtNtNtCsksqSOdb1Dlf_9serverlib6engine8database7inbuilt8datetime5monthNtB2_12MonthCommandNtNtB6_7command20InbuiltServerCommand8evaluate
FNF:2
FNH:2
DA:15,1
DA:16,1
DA:17,1
DA:19,1
DA:21,1
DA:23,1
DA:25,1
DA:26,0
DA:29,1
DA:31,1
BRF:0
BRH:0
LF:10
LH:9
end_of_record
SF:/Users/samcolak/Source Code/rust/distdb/distdb/serverlib/src/engine/database/inbuilt/datetime/now.rs
FN:16,_RNvXNtNtNtNtNtCsksqSOdb1Dlf_9serverlib6engine8database7inbuilt8datetime3nowNtB2_10NowCommandNtNtB6_7command20InbuiltServerCommand4name
FN:20,_RNvXNtNtNtNtNtCsksqSOdb1Dlf_9serverlib6engine8database7inbuilt8datetime3nowNtB2_10NowCommandNtNtB6_7command20InbuiltServerCommand8evaluate
FNDA:1,_RNvXNtNtNtNtNtCsksqSOdb1Dlf_9serverlib6engine8database7inbuilt8datetime3nowNtB2_10NowCommandNtNtB6_7command20InbuiltServerCommand4name
FNDA:1,_RNvXNtNtNtNtNtCsksqSOdb1Dlf_9serverlib6engine8database7inbuilt8datetime3nowNtB2_10NowCommandNtNtB6_7command20InbuiltServerCommand8evaluate
FNF:2
FNH:2
DA:16,1
DA:17,1
DA:18,1
DA:20,1
DA:22,1
DA:24,1
DA:26,1
DA:28,1
BRF:0
BRH:0
LF:8
LH:8
end_of_record
SF:/Users/samcolak/Source Code/rust/distdb/distdb/serverlib/src/engine/database/inbuilt/datetime/period_add.rs
FN:16,_RNvXNtNtNtNtNtCsksqSOdb1Dlf_9serverlib6engine8database7inbuilt8datetime10period_addNtB2_16PeriodAddCommandNtNtB6_7command20InbuiltServerCommand4name
FN:20,_RNvXNtNtNtNtNtCsksqSOdb1Dlf_9serverlib6engine8database7inbuilt8datetime10period_addNtB2_16PeriodAddCommandNtNtB6_7command20InbuiltServerCommand8evaluate
FNDA:1,_RNvXNtNtNtNtNtCsksqSOdb1Dlf_9serverlib6engine8database7inbuilt8datetime10period_addNtB2_16PeriodAddCommandNtNtB6_7command20InbuiltServerCommand4name
FNDA:1,_RNvXNtNtNtNtNtCsksqSOdb1Dlf_9serverlib6engine8database7inbuilt8datetime10period_addNtB2_16PeriodAddCommandNtNtB6_7command20InbuiltServerCommand8evaluate
FNF:2
FNH:2
DA:16,1
DA:17,1
DA:18,1
DA:20,1
DA:22,1
DA:24,1
DA:26,1
DA:27,0
DA:30,1
DA:31,0
DA:34,1
DA:36,1
BRF:0
BRH:0
LF:12
LH:10
end_of_record
SF:/Users/samcolak/Source Code/rust/distdb/distdb/serverlib/src/engine/database/inbuilt/datetime/period_diff.rs
FN:16,_RNvXNtNtNtNtNtCsksqSOdb1Dlf_9serverlib6engine8database7inbuilt8datetime11period_diffNtB2_17PeriodDiffCommandNtNtB6_7command20InbuiltServerCommand4name
FN:20,_RNvXNtNtNtNtNtCsksqSOdb1Dlf_9serverlib6engine8database7inbuilt8datetime11period_diffNtB2_17PeriodDiffCommandNtNtB6_7command20InbuiltServerCommand8evaluate
FNDA:1,_RNvXNtNtNtNtNtCsksqSOdb1Dlf_9serverlib6engine8database7inbuilt8datetime11period_diffNtB2_17PeriodDiffCommandNtNtB6_7command20InbuiltServerCommand4name
FNDA:1,_RNvXNtNtNtNtNtCsksqSOdb1Dlf_9serverlib6engine8database7inbuilt8datetime11period_diffNtB2_17PeriodDiffCommandNtNtB6_7command20InbuiltServerCommand8evaluate
FNF:2
FNH:2
DA:16,1
DA:17,1
DA:18,1
DA:20,1
DA:22,1
DA:24,1
DA:26,1
DA:27,0
DA:30,1
DA:31,0
DA:34,1
DA:36,1
BRF:0
BRH:0
LF:12
LH:10
end_of_record
SF:/Users/samcolak/Source Code/rust/distdb/distdb/serverlib/src/engine/database/inbuilt/datetime/quarter.rs
FN:15,_RNvXNtNtNtNtNtCsksqSOdb1Dlf_9serverlib6engine8database7inbuilt8datetime7quarterNtB2_14QuarterCommandNtNtB6_7command20InbuiltServerCommand4name
FN:19,_RNvXNtNtNtNtNtCsksqSOdb1Dlf_9serverlib6engine8database7inbuilt8datetime7quarterNtB2_14QuarterCommandNtNtB6_7command20InbuiltServerCommand8evaluate
FNDA:1,_RNvXNtNtNtNtNtCsksqSOdb1Dlf_9serverlib6engine8database7inbuilt8datetime7quarterNtB2_14QuarterCommandNtNtB6_7command20InbuiltServerCommand4name
FNDA:1,_RNvXNtNtNtNtNtCsksqSOdb1Dlf_9serverlib6engine8database7inbuilt8datetime7quarterNtB2_14QuarterCommandNtNtB6_7command20InbuiltServerCommand8evaluate
FNF:2
FNH:2
DA:15,1
DA:16,1
DA:17,1
DA:19,1
DA:21,1
DA:23,1
DA:25,1
DA:26,0
DA:29,1
DA:31,1
BRF:0
BRH:0
LF:10
LH:9
end_of_record
SF:/Users/samcolak/Source Code/rust/distdb/distdb/serverlib/src/engine/database/inbuilt/datetime/sec_to_time.rs
FN:16,_RNvXNtNtNtNtNtCsksqSOdb1Dlf_9serverlib6engine8database7inbuilt8datetime11sec_to_timeNtB2_16SecToTimeCommandNtNtB6_7command20InbuiltServerCommand4name
FN:20,_RNvXNtNtNtNtNtCsksqSOdb1Dlf_9serverlib6engine8database7inbuilt8datetime11sec_to_timeNtB2_16SecToTimeCommandNtNtB6_7command20InbuiltServerCommand8evaluate
FNDA:1,_RNvXNtNtNtNtNtCsksqSOdb1Dlf_9serverlib6engine8database7inbuilt8datetime11sec_to_timeNtB2_16SecToTimeCommandNtNtB6_7command20InbuiltServerCommand4name
FNDA:1,_RNvXNtNtNtNtNtCsksqSOdb1Dlf_9serverlib6engine8database7inbuilt8datetime11sec_to_timeNtB2_16SecToTimeCommandNtNtB6_7command20InbuiltServerCommand8evaluate
FNF:2
FNH:2
DA:16,1
DA:17,1
DA:18,1
DA:20,1
DA:22,1
DA:24,1
DA:26,1
DA:27,0
DA:30,1
DA:32,1
BRF:0
BRH:0
LF:10
LH:9
end_of_record
SF:/Users/samcolak/Source Code/rust/distdb/distdb/serverlib/src/engine/database/inbuilt/datetime/second.rs
FN:15,_RNvXNtNtNtNtNtCsksqSOdb1Dlf_9serverlib6engine8database7inbuilt8datetime6secondNtB2_13SecondCommandNtNtB6_7command20InbuiltServerCommand4name
FN:19,_RNvXNtNtNtNtNtCsksqSOdb1Dlf_9serverlib6engine8database7inbuilt8datetime6secondNtB2_13SecondCommandNtNtB6_7command20InbuiltServerCommand8evaluate
FNDA:1,_RNvXNtNtNtNtNtCsksqSOdb1Dlf_9serverlib6engine8database7inbuilt8datetime6secondNtB2_13SecondCommandNtNtB6_7command20InbuiltServerCommand4name
FNDA:1,_RNvXNtNtNtNtNtCsksqSOdb1Dlf_9serverlib6engine8database7inbuilt8datetime6secondNtB2_13SecondCommandNtNtB6_7command20InbuiltServerCommand8evaluate
FNF:2
FNH:2
DA:15,1
DA:16,1
DA:17,1
DA:19,1
DA:21,1
DA:23,1
DA:25,1
DA:26,0
DA:29,1
DA:31,1
BRF:0
BRH:0
LF:10
LH:9
end_of_record
SF:/Users/samcolak/Source Code/rust/distdb/distdb/serverlib/src/engine/database/inbuilt/datetime/str_to_date.rs
FN:34,_RNCNvXNtNtNtNtNtCsksqSOdb1Dlf_9serverlib6engine8database7inbuilt8datetime11str_to_dateNtB4_16StrToDateCommandNtNtB8_7command20InbuiltServerCommand8evaluate0Be_
FN:16,_RNvXNtNtNtNtNtCsksqSOdb1Dlf_9serverlib6engine8database7inbuilt8datetime11str_to_dateNtB2_16StrToDateCommandNtNtB6_7command20InbuiltServerCommand4name
FN:20,_RNvXNtNtNtNtNtCsksqSOdb1Dlf_9serverlib6engine8database7inbuilt8datetime11str_to_dateNtB2_16StrToDateCommandNtNtB6_7command20InbuiltServerCommand8evaluate
FNDA:1,_RNCNvXNtNtNtNtNtCsksqSOdb1Dlf_9serverlib6engine8database7inbuilt8datetime11str_to_dateNtB4_16StrToDateCommandNtNtB8_7command20InbuiltServerCommand8evaluate0Be_
FNDA:1,_RNvXNtNtNtNtNtCsksqSOdb1Dlf_9serverlib6engine8database7inbuilt8datetime11str_to_dateNtB2_16StrToDateCommandNtNtB6_7command20InbuiltServerCommand4name
FNDA:1,_RNvXNtNtNtNtNtCsksqSOdb1Dlf_9serverlib6engine8database7inbuilt8datetime11str_to_dateNtB2_16StrToDateCommandNtNtB6_7command20InbuiltServerCommand8evaluate
FNF:3
FNH:3
DA:16,1
DA:17,1
DA:18,1
DA:20,1
DA:22,1
DA:24,1
DA:26,1
DA:27,0
DA:30,1
DA:31,0
DA:34,1
DA:36,1
BRF:0
BRH:0
LF:13
LH:11
end_of_record
SF:/Users/samcolak/Source Code/rust/distdb/distdb/serverlib/src/engine/database/inbuilt/datetime/subdate.rs
FN:16,_RNvXNtNtNtNtNtCsksqSOdb1Dlf_9serverlib6engine8database7inbuilt8datetime7subdateNtB2_14SubDateCommandNtNtB6_7command20InbuiltServerCommand4name
FN:20,_RNvXNtNtNtNtNtCsksqSOdb1Dlf_9serverlib6engine8database7inbuilt8datetime7subdateNtB2_14SubDateCommandNtNtB6_7command20InbuiltServerCommand8evaluate
FN:34,_RNCNvXNtNtNtNtNtCsksqSOdb1Dlf_9serverlib6engine8database7inbuilt8datetime7subdateNtB4_14SubDateCommandNtNtB8_7command20InbuiltServerCommand8evaluate0Be_
FNDA:2,_RNvXNtNtNtNtNtCsksqSOdb1Dlf_9serverlib6engine8database7inbuilt8datetime7subdateNtB2_14SubDateCommandNtNtB6_7command20InbuiltServerCommand4name
FNDA:2,_RNvXNtNtNtNtNtCsksqSOdb1Dlf_9serverlib6engine8database7inbuilt8datetime7subdateNtB2_14SubDateCommandNtNtB6_7command20InbuiltServerCommand8evaluate
FNDA:2,_RNCNvXNtNtNtNtNtCsksqSOdb1Dlf_9serverlib6engine8database7inbuilt8datetime7subdateNtB4_14SubDateCommandNtNtB8_7command20InbuiltServerCommand8evaluate0Be_
FNF:3
FNH:3
DA:16,2
DA:17,2
DA:18,2
DA:20,2
DA:22,2
DA:24,2
DA:26,2
DA:27,0
DA:30,2
DA:31,0
DA:34,2
DA:36,2
BRF:0
BRH:0
LF:13
LH:11
end_of_record
SF:/Users/samcolak/Source Code/rust/distdb/distdb/serverlib/src/engine/database/inbuilt/datetime/subtime.rs
FN:27,_RNvXNtNtNtNtNtCsksqSOdb1Dlf_9serverlib6engine8database7inbuilt8datetime7subtimeNtB2_14SubTimeCommandNtNtB6_7command20InbuiltServerCommand4name
FN:31,_RNvXNtNtNtNtNtCsksqSOdb1Dlf_9serverlib6engine8database7inbuilt8datetime7subtimeNtB2_14SubTimeCommandNtNtB6_7command20InbuiltServerCommand8evaluate
FN:52,_RNCNvXNtNtNtNtNtCsksqSOdb1Dlf_9serverlib6engine8database7inbuilt8datetime7subtimeNtB4_14SubTimeCommandNtNtB8_7command20InbuiltServerCommand8evaluate0Be_
FN:61,_RNCNvXNtNtNtNtNtCsksqSOdb1Dlf_9serverlib6engine8database7inbuilt8datetime7subtimeNtB4_14SubTimeCommandNtNtB8_7command20InbuiltServerCommand8evaluates_0Be_
FNDA:1,_RNvXNtNtNtNtNtCsksqSOdb1Dlf_9serverlib6engine8database7inbuilt8datetime7subtimeNtB2_14SubTimeCommandNtNtB6_7command20InbuiltServerCommand4name
FNDA:1,_RNvXNtNtNtNtNtCsksqSOdb1Dlf_9serverlib6engine8database7inbuilt8datetime7subtimeNtB2_14SubTimeCommandNtNtB6_7command20InbuiltServerCommand8evaluate
FNDA:1,_RNCNvXNtNtNtNtNtCsksqSOdb1Dlf_9serverlib6engine8database7inbuilt8datetime7subtimeNtB4_14SubTimeCommandNtNtB8_7command20InbuiltServerCommand8evaluate0Be_
FNDA:0,_RNCNvXNtNtNtNtNtCsksqSOdb1Dlf_9serverlib6engine8database7inbuilt8datetime7subtimeNtB4_14SubTimeCommandNtNtB8_7command20InbuiltServerCommand8evaluates_0Be_
FNF:4
FNH:3
DA:27,1
DA:28,1
DA:29,1
DA:31,1
DA:33,1
DA:35,1
DA:37,1
DA:38,0
DA:41,1
DA:42,0
DA:45,1
DA:46,0
DA:49,1
DA:50,1
DA:51,1
DA:52,1
DA:53,0
DA:55,0
DA:56,0
DA:59,0
DA:61,0
DA:63,1
BRF:0
BRH:0
LF:24
LH:15
end_of_record
SF:/Users/samcolak/Source Code/rust/distdb/distdb/serverlib/src/engine/database/inbuilt/datetime/sysdate.rs
FN:16,_RNvXNtNtNtNtNtCsksqSOdb1Dlf_9serverlib6engine8database7inbuilt8datetime7sysdateNtB2_14SysDateCommandNtNtB6_7command20InbuiltServerCommand4name
FN:20,_RNvXNtNtNtNtNtCsksqSOdb1Dlf_9serverlib6engine8database7inbuilt8datetime7sysdateNtB2_14SysDateCommandNtNtB6_7command20InbuiltServerCommand8evaluate
FNDA:1,_RNvXNtNtNtNtNtCsksqSOdb1Dlf_9serverlib6engine8database7inbuilt8datetime7sysdateNtB2_14SysDateCommandNtNtB6_7command20InbuiltServerCommand4name
FNDA:1,_RNvXNtNtNtNtNtCsksqSOdb1Dlf_9serverlib6engine8database7inbuilt8datetime7sysdateNtB2_14SysDateCommandNtNtB6_7command20InbuiltServerCommand8evaluate
FNF:2
FNH:2
DA:16,1
DA:17,1
DA:18,1
DA:20,1
DA:22,1
DA:24,1
DA:26,1
DA:28,1
BRF:0
BRH:0
LF:8
LH:8
end_of_record
SF:/Users/samcolak/Source Code/rust/distdb/distdb/serverlib/src/engine/database/inbuilt/datetime/time.rs
FN:33,_RNCNCNvXNtNtNtNtNtCsksqSOdb1Dlf_9serverlib6engine8database7inbuilt8datetime4timeNtB6_11TimeCommandNtNtBa_7command20InbuiltServerCommand8evaluates0_00Bg_
FN:31,_RNCNvXNtNtNtNtNtCsksqSOdb1Dlf_9serverlib6engine8database7inbuilt8datetime4timeNtB4_11TimeCommandNtNtB8_7command20InbuiltServerCommand8evaluate0Be_
FN:33,_RNCNvXNtNtNtNtNtCsksqSOdb1Dlf_9serverlib6engine8database7inbuilt8datetime4timeNtB4_11TimeCommandNtNtB8_7command20InbuiltServerCommand8evaluates0_0Be_
FN:35,_RNCNvXNtNtNtNtNtCsksqSOdb1Dlf_9serverlib6engine8database7inbuilt8datetime4timeNtB4_11TimeCommandNtNtB8_7command20InbuiltServerCommand8evaluates1_0Be_
FN:32,_RNCNvXNtNtNtNtNtCsksqSOdb1Dlf_9serverlib6engine8database7inbuilt8datetime4timeNtB4_11TimeCommandNtNtB8_7command20InbuiltServerCommand8evaluates_0Be_
FN:16,_RNvXNtNtNtNtNtCsksqSOdb1Dlf_9serverlib6engine8database7inbuilt8datetime4timeNtB2_11TimeCommandNtNtB6_7command20InbuiltServerCommand4name
FN:20,_RNvXNtNtNtNtNtCsksqSOdb1Dlf_9serverlib6engine8database7inbuilt8datetime4timeNtB2_11TimeCommandNtNtB6_7command20InbuiltServerCommand8evaluate
FNDA:0,_RNCNCNvXNtNtNtNtNtCsksqSOdb1Dlf_9serverlib6engine8database7inbuilt8datetime4timeNtB6_11TimeCommandNtNtBa_7command20InbuiltServerCommand8evaluates0_00Bg_
FNDA:1,_RNCNvXNtNtNtNtNtCsksqSOdb1Dlf_9serverlib6engine8database7inbuilt8datetime4timeNtB4_11TimeCommandNtNtB8_7command20InbuiltServerCommand8evaluate0Be_
FNDA:0,_RNCNvXNtNtNtNtNtCsksqSOdb1Dlf_9serverlib6engine8database7inbuilt8datetime4timeNtB4_11TimeCommandNtNtB8_7command20InbuiltServerCommand8evaluates0_0Be_
FNDA:1,_RNCNvXNtNtNtNtNtCsksqSOdb1Dlf_9serverlib6engine8database7inbuilt8datetime4timeNtB4_11TimeCommandNtNtB8_7command20InbuiltServerCommand8evaluates1_0Be_
FNDA:0,_RNCNvXNtNtNtNtNtCsksqSOdb1Dlf_9serverlib6engine8database7inbuilt8datetime4timeNtB4_11TimeCommandNtNtB8_7command20InbuiltServerCommand8evaluates_0Be_
FNDA:1,_RNvXNtNtNtNtNtCsksqSOdb1Dlf_9serverlib6engine8database7inbuilt8datetime4timeNtB2_11TimeCommandNtNtB6_7command20InbuiltServerCommand4name
FNDA:1,_RNvXNtNtNtNtNtCsksqSOdb1Dlf_9serverlib6engine8database7inbuilt8datetime4timeNtB2_11TimeCommandNtNtB6_7command20InbuiltServerCommand8evaluate
FNF:7
FNH:4
DA:16,1
DA:17,1
DA:18,1
DA:20,1
DA:22,1
DA:24,1
DA:26,1
DA:27,0
DA:30,1
DA:31,1
DA:32,1
DA:33,1
DA:35,1
DA:37,1
BRF:0
BRH:0
LF:19
LH:15
end_of_record
SF:/Users/samcolak/Source Code/rust/distdb/distdb/serverlib/src/engine/database/inbuilt/datetime/time_format.rs
FN:34,_RNCNvXNtNtNtNtNtCsksqSOdb1Dlf_9serverlib6engine8database7inbuilt8datetime11time_formatNtB4_17TimeFormatCommandNtNtB8_7command20InbuiltServerCommand8evaluate0Be_
FN:16,_RNvXNtNtNtNtNtCsksqSOdb1Dlf_9serverlib6engine8database7inbuilt8datetime11time_formatNtB2_17TimeFormatCommandNtNtB6_7command20InbuiltServerCommand4name
FN:20,_RNvXNtNtNtNtNtCsksqSOdb1Dlf_9serverlib6engine8database7inbuilt8datetime11time_formatNtB2_17TimeFormatCommandNtNtB6_7command20InbuiltServerCommand8evaluate
FNDA:1,_RNCNvXNtNtNtNtNtCsksqSOdb1Dlf_9serverlib6engine8database7inbuilt8datetime11time_formatNtB4_17TimeFormatCommandNtNtB8_7command20InbuiltServerCommand8evaluate0Be_
FNDA:1,_RNvXNtNtNtNtNtCsksqSOdb1Dlf_9serverlib6engine8database7inbuilt8datetime11time_formatNtB2_17TimeFormatCommandNtNtB6_7command20InbuiltServerCommand4name
FNDA:1,_RNvXNtNtNtNtNtCsksqSOdb1Dlf_9serverlib6engine8database7inbuilt8datetime11time_formatNtB2_17TimeFormatCommandNtNtB6_7command20InbuiltServerCommand8evaluate
FNF:3
FNH:3
DA:16,1
DA:17,1
DA:18,1
DA:20,1
DA:22,1
DA:24,1
DA:26,1
DA:27,0
DA:30,1
DA:31,0
DA:34,1
DA:36,1
BRF:0
BRH:0
LF:13
LH:11
end_of_record
SF:/Users/samcolak/Source Code/rust/distdb/distdb/serverlib/src/engine/database/inbuilt/datetime/time_to_sec.rs
FN:18,_RNvXNtNtNtNtNtCsksqSOdb1Dlf_9serverlib6engine8database7inbuilt8datetime11time_to_secNtB2_16TimeToSecCommandNtNtB6_7command20InbuiltServerCommand4name
FN:22,_RNvXNtNtNtNtNtCsksqSOdb1Dlf_9serverlib6engine8database7inbuilt8datetime11time_to_secNtB2_16TimeToSecCommandNtNtB6_7command20InbuiltServerCommand8evaluate
FN:34,_RNCNCNvXNtNtNtNtNtCsksqSOdb1Dlf_9serverlib6engine8database7inbuilt8datetime11time_to_secNtB6_16TimeToSecCommandNtNtBa_7command20InbuiltServerCommand8evaluates_00Bg_
FN:33,_RNCNvXNtNtNtNtNtCsksqSOdb1Dlf_9serverlib6engine8database7inbuilt8datetime11time_to_secNtB4_16TimeToSecCommandNtNtB8_7command20InbuiltServerCommand8evaluate0Be_
FN:34,_RNCNvXNtNtNtNtNtCsksqSOdb1Dlf_9serverlib6engine8database7inbuilt8datetime11time_to_secNtB4_16TimeToSecCommandNtNtB8_7command20InbuiltServerCommand8evaluates_0Be_
FNDA:1,_RNvXNtNtNtNtNtCsksqSOdb1Dlf_9serverlib6engine8database7inbuilt8datetime11time_to_secNtB2_16TimeToSecCommandNtNtB6_7command20InbuiltServerCommand4name
FNDA:1,_RNvXNtNtNtNtNtCsksqSOdb1Dlf_9serverlib6engine8database7inbuilt8datetime11time_to_secNtB2_16TimeToSecCommandNtNtB6_7command20InbuiltServerCommand8evaluate
FNDA:0,_RNCNCNvXNtNtNtNtNtCsksqSOdb1Dlf_9serverlib6engine8database7inbuilt8datetime11time_to_secNtB6_16TimeToSecCommandNtNtBa_7command20InbuiltServerCommand8evaluates_00Bg_
FNDA:1,_RNCNvXNtNtNtNtNtCsksqSOdb1Dlf_9serverlib6engine8database7inbuilt8datetime11time_to_secNtB4_16TimeToSecCommandNtNtB8_7command20InbuiltServerCommand8evaluate0Be_
FNDA:0,_RNCNvXNtNtNtNtNtCsksqSOdb1Dlf_9serverlib6engine8database7inbuilt8datetime11time_to_secNtB4_16TimeToSecCommandNtNtB8_7command20InbuiltServerCommand8evaluates_0Be_
FNF:5
FNH:3
DA:18,1
DA:19,1
DA:20,1
DA:22,1
DA:24,1
DA:26,1
DA:28,1
DA:29,0
DA:32,1
DA:33,1
DA:34,1
DA:36,1
DA:38,1
BRF:0
BRH:0
LF:16
LH:13
end_of_record
SF:/Users/samcolak/Source Code/rust/distdb/distdb/serverlib/src/engine/database/inbuilt/datetime/timediff.rs
FN:16,_RNvXNtNtNtNtNtCsksqSOdb1Dlf_9serverlib6engine8database7inbuilt8datetime8timediffNtB2_15TimeDiffCommandNtNtB6_7command20InbuiltServerCommand4name
FN:20,_RNvXNtNtNtNtNtCsksqSOdb1Dlf_9serverlib6engine8database7inbuilt8datetime8timediffNtB2_15TimeDiffCommandNtNtB6_7command20InbuiltServerCommand8evaluate
FNDA:1,_RNvXNtNtNtNtNtCsksqSOdb1Dlf_9serverlib6engine8database7inbuilt8datetime8timediffNtB2_15TimeDiffCommandNtNtB6_7command20InbuiltServerCommand4name
FNDA:1,_RNvXNtNtNtNtNtCsksqSOdb1Dlf_9serverlib6engine8database7inbuilt8datetime8timediffNtB2_15TimeDiffCommandNtNtB6_7command20InbuiltServerCommand8evaluate
FNF:2
FNH:2
DA:16,1
DA:17,1
DA:18,1
DA:20,1
DA:22,1
DA:24,1
DA:26,1
DA:27,0
DA:30,1
DA:31,0
DA:34,1
DA:36,1
BRF:0
BRH:0
LF:12
LH:10
end_of_record
SF:/Users/samcolak/Source Code/rust/distdb/distdb/serverlib/src/engine/database/inbuilt/datetime/timestamp.rs
FN:16,_RNvXNtNtNtNtNtCsksqSOdb1Dlf_9serverlib6engine8database7inbuilt8datetime9timestampNtB2_16TimestampCommandNtNtB6_7command20InbuiltServerCommand4name
FN:20,_RNvXNtNtNtNtNtCsksqSOdb1Dlf_9serverlib6engine8database7inbuilt8datetime9timestampNtB2_16TimestampCommandNtNtB6_7command20InbuiltServerCommand8evaluate
FN:37,_RNCNCNvXNtNtNtNtNtCsksqSOdb1Dlf_9serverlib6engine8database7inbuilt8datetime9timestampNtB6_16TimestampCommandNtNtBa_7command20InbuiltServerCommand8evaluate00Bg_
FN:49,_RNCNCNvXNtNtNtNtNtCsksqSOdb1Dlf_9serverlib6engine8database7inbuilt8datetime9timestampNtB6_16TimestampCommandNtNtBa_7command20InbuiltServerCommand8evaluates3_00Bg_
FN:38,_RNCNCNvXNtNtNtNtNtCsksqSOdb1Dlf_9serverlib6engine8database7inbuilt8datetime9timestampNtB6_16TimestampCommandNtNtBa_7command20InbuiltServerCommand8evaluates_00Bg_
FN:37,_RNCNvXNtNtNtNtNtCsksqSOdb1Dlf_9serverlib6engine8database7inbuilt8datetime9timestampNtB4_16TimestampCommandNtNtB8_7command20InbuiltServerCommand8evaluate0Be_
FN:39,_RNCNvXNtNtNtNtNtCsksqSOdb1Dlf_9serverlib6engine8database7inbuilt8datetime9timestampNtB4_16TimestampCommandNtNtB8_7command20InbuiltServerCommand8evaluates0_0Be_
FN:47,_RNCNvXNtNtNtNtNtCsksqSOdb1Dlf_9serverlib6engine8database7inbuilt8datetime9timestampNtB4_16TimestampCommandNtNtB8_7command20InbuiltServerCommand8evaluates1_0Be_
FN:48,_RNCNvXNtNtNtNtNtCsksqSOdb1Dlf_9serverlib6engine8database7inbuilt8datetime9timestampNtB4_16TimestampCommandNtNtB8_7command20InbuiltServerCommand8evaluates2_0Be_
FN:49,_RNCNvXNtNtNtNtNtCsksqSOdb1Dlf_9serverlib6engine8database7inbuilt8datetime9timestampNtB4_16TimestampCommandNtNtB8_7command20InbuiltServerCommand8evaluates3_0Be_
FN:52,_RNCNvXNtNtNtNtNtCsksqSOdb1Dlf_9serverlib6engine8database7inbuilt8datetime9timestampNtB4_16TimestampCommandNtNtB8_7command20InbuiltServerCommand8evaluates4_0Be_
FN:53,_RNCNvXNtNtNtNtNtCsksqSOdb1Dlf_9serverlib6engine8database7inbuilt8datetime9timestampNtB4_16TimestampCommandNtNtB8_7command20InbuiltServerCommand8evaluates5_0Be_
FN:38,_RNCNvXNtNtNtNtNtCsksqSOdb1Dlf_9serverlib6engine8database7inbuilt8datetime9timestampNtB4_16TimestampCommandNtNtB8_7command20InbuiltServerCommand8evaluates_0Be_
FNDA:1,_RNvXNtNtNtNtNtCsksqSOdb1Dlf_9serverlib6engine8database7inbuilt8datetime9timestampNtB2_16TimestampCommandNtNtB6_7command20InbuiltServerCommand4name
FNDA:1,_RNvXNtNtNtNtNtCsksqSOdb1Dlf_9serverlib6engine8database7inbuilt8datetime9timestampNtB2_16TimestampCommandNtNtB6_7command20InbuiltServerCommand8evaluate
FNDA:0,_RNCNCNvXNtNtNtNtNtCsksqSOdb1Dlf_9serverlib6engine8database7inbuilt8datetime9timestampNtB6_16TimestampCommandNtNtBa_7command20InbuiltServerCommand8evaluate00Bg_
FNDA:0,_RNCNCNvXNtNtNtNtNtCsksqSOdb1Dlf_9serverlib6engine8database7inbuilt8datetime9timestampNtB6_16TimestampCommandNtNtBa_7command20InbuiltServerCommand8evaluates3_00Bg_
FNDA:0,_RNCNCNvXNtNtNtNtNtCsksqSOdb1Dlf_9serverlib6engine8database7inbuilt8datetime9timestampNtB6_16TimestampCommandNtNtBa_7command20InbuiltServerCommand8evaluates_00Bg_
FNDA:0,_RNCNvXNtNtNtNtNtCsksqSOdb1Dlf_9serverlib6engine8database7inbuilt8datetime9timestampNtB4_16TimestampCommandNtNtB8_7command20InbuiltServerCommand8evaluate0Be_
FNDA:0,_RNCNvXNtNtNtNtNtCsksqSOdb1Dlf_9serverlib6engine8database7inbuilt8datetime9timestampNtB4_16TimestampCommandNtNtB8_7command20InbuiltServerCommand8evaluates0_0Be_
FNDA:1,_RNCNvXNtNtNtNtNtCsksqSOdb1Dlf_9serverlib6engine8database7inbuilt8datetime9timestampNtB4_16TimestampCommandNtNtB8_7command20InbuiltServerCommand8evaluates1_0Be_
FNDA:0,_RNCNvXNtNtNtNtNtCsksqSOdb1Dlf_9serverlib6engine8database7inbuilt8datetime9timestampNtB4_16TimestampCommandNtNtB8_7command20InbuiltServerCommand8evaluates2_0Be_
FNDA:0,_RNCNvXNtNtNtNtNtCsksqSOdb1Dlf_9serverlib6engine8database7inbuilt8datetime9timestampNtB4_16TimestampCommandNtNtB8_7command20InbuiltServerCommand8evaluates3_0Be_
FNDA:1,_RNCNvXNtNtNtNtNtCsksqSOdb1Dlf_9serverlib6engine8database7inbuilt8datetime9timestampNtB4_16TimestampCommandNtNtB8_7command20InbuiltServerCommand8evaluates4_0Be_
FNDA:0,_RNCNvXNtNtNtNtNtCsksqSOdb1Dlf_9serverlib6engine8database7inbuilt8datetime9timestampNtB4_16TimestampCommandNtNtB8_7command20InbuiltServerCommand8evaluates5_0Be_
FNDA:0,_RNCNvXNtNtNtNtNtCsksqSOdb1Dlf_9serverlib6engine8database7inbuilt8datetime9timestampNtB4_16TimestampCommandNtNtB8_7command20InbuiltServerCommand8evaluates_0Be_
FNF:13
FNH:4
DA:16,1
DA:17,1
DA:18,1
DA:20,1
DA:22,1
DA:24,1
DA:26,1
DA:27,0
DA:28,1
DA:30,1
DA:31,0
DA:34,1
DA:35,0
DA:36,0
DA:37,0
DA:38,0
DA:39,0
DA:40,1
DA:42,1
DA:43,0
DA:46,1
DA:47,1
DA:48,1
DA:49,1
DA:51,1
DA:52,1
DA:53,1
DA:55,1
DA:56,1
DA:57,0
DA:60,1
BRF:0
BRH:0
LF:42
LH:24
end_of_record
SF:/Users/samcolak/Source Code/rust/distdb/distdb/serverlib/src/engine/database/inbuilt/datetime/to_days.rs
FN:30,_RNCNvXNtNtNtNtNtCsksqSOdb1Dlf_9serverlib6engine8database7inbuilt8datetime7to_daysNtB4_13ToDaysCommandNtNtB8_7command20InbuiltServerCommand8evaluate0Be_
FN:31,_RNCNvXNtNtNtNtNtCsksqSOdb1Dlf_9serverlib6engine8database7inbuilt8datetime7to_daysNtB4_13ToDaysCommandNtNtB8_7command20InbuiltServerCommand8evaluates_0Be_
FN:15,_RNvXNtNtNtNtNtCsksqSOdb1Dlf_9serverlib6engine8database7inbuilt8datetime7to_daysNtB2_13ToDaysCommandNtNtB6_7command20InbuiltServerCommand4name
FN:19,_RNvXNtNtNtNtNtCsksqSOdb1Dlf_9serverlib6engine8database7inbuilt8datetime7to_daysNtB2_13ToDaysCommandNtNtB6_7command20InbuiltServerCommand8evaluate
FNDA:1,_RNCNvXNtNtNtNtNtCsksqSOdb1Dlf_9serverlib6engine8database7inbuilt8datetime7to_daysNtB4_13ToDaysCommandNtNtB8_7command20InbuiltServerCommand8evaluate0Be_
FNDA:0,_RNCNvXNtNtNtNtNtCsksqSOdb1Dlf_9serverlib6engine8database7inbuilt8datetime7to_daysNtB4_13ToDaysCommandNtNtB8_7command20InbuiltServerCommand8evaluates_0Be_
FNDA:1,_RNvXNtNtNtNtNtCsksqSOdb1Dlf_9serverlib6engine8database7inbuilt8datetime7to_daysNtB2_13ToDaysCommandNtNtB6_7command20InbuiltServerCommand4name
FNDA:1,_RNvXNtNtNtNtNtCsksqSOdb1Dlf_9serverlib6engine8database7inbuilt8datetime7to_daysNtB2_13ToDaysCommandNtNtB6_7command20InbuiltServerCommand8evaluate
FNF:4
FNH:3
DA:15,1
DA:16,1
DA:17,1
DA:19,1
DA:21,1
DA:23,1
DA:25,1
DA:26,0
DA:29,1
DA:30,1
DA:31,1
DA:33,1
DA:35,1
BRF:0
BRH:0
LF:15
LH:13
end_of_record
SF:/Users/samcolak/Source Code/rust/distdb/distdb/serverlib/src/engine/database/inbuilt/datetime/unixtimestamp.rs
FN:12,_RNvXNtNtNtNtNtCsksqSOdb1Dlf_9serverlib6engine8database7inbuilt8datetime13unixtimestampNtB2_20UnixTimestampCommandNtNtB6_7command20InbuiltServerCommand4name
FN:16,_RNvXNtNtNtNtNtCsksqSOdb1Dlf_9serverlib6engine8database7inbuilt8datetime13unixtimestampNtB2_20UnixTimestampCommandNtNtB6_7command20InbuiltServerCommand8evaluate
FN:27,_RNCNvXNtNtNtNtNtCsksqSOdb1Dlf_9serverlib6engine8database7inbuilt8datetime13unixtimestampNtB4_20UnixTimestampCommandNtNtB8_7command20InbuiltServerCommand8evaluate0Be_
FNDA:0,_RNvXNtNtNtNtNtCsksqSOdb1Dlf_9serverlib6engine8database7inbuilt8datetime13unixtimestampNtB2_20UnixTimestampCommandNtNtB6_7command20InbuiltServerCommand4name
FNDA:3,_RNvXNtNtNtNtNtCsksqSOdb1Dlf_9serverlib6engine8database7inbuilt8datetime13unixtimestampNtB2_20UnixTimestampCommandNtNtB6_7command20InbuiltServerCommand8evaluate
FNDA:0,_RNCNvXNtNtNtNtNtCsksqSOdb1Dlf_9serverlib6engine8database7inbuilt8datetime13unixtimestampNtB4_20UnixTimestampCommandNtNtB8_7command20InbuiltServerCommand8evaluate0Be_
FNF:3
FNH:1
DA:12,0
DA:13,0
DA:14,0
DA:16,3
DA:18,3
DA:19,0
DA:20,0
DA:21,0
DA:22,0
DA:23,3
DA:25,3
DA:26,3
DA:27,3
DA:28,3
DA:30,3
DA:32,3
BRF:0
BRH:0
LF:17
LH:9
end_of_record
SF:/Users/samcolak/Source Code/rust/distdb/distdb/serverlib/src/engine/database/inbuilt/datetime/week.rs
FN:15,_RNvXNtNtNtNtNtCsksqSOdb1Dlf_9serverlib6engine8database7inbuilt8datetime4weekNtB2_11WeekCommandNtNtB6_7command20InbuiltServerCommand4name
FN:19,_RNvXNtNtNtNtNtCsksqSOdb1Dlf_9serverlib6engine8database7inbuilt8datetime4weekNtB2_11WeekCommandNtNtB6_7command20InbuiltServerCommand8evaluate
FNDA:1,_RNvXNtNtNtNtNtCsksqSOdb1Dlf_9serverlib6engine8database7inbuilt8datetime4weekNtB2_11WeekCommandNtNtB6_7command20InbuiltServerCommand4name
FNDA:1,_RNvXNtNtNtNtNtCsksqSOdb1Dlf_9serverlib6engine8database7inbuilt8datetime4weekNtB2_11WeekCommandNtNtB6_7command20InbuiltServerCommand8evaluate
FNF:2
FNH:2
DA:15,1
DA:16,1
DA:17,1
DA:19,1
DA:21,1
DA:23,1
DA:25,1
DA:26,0
DA:29,1
DA:31,1
BRF:0
BRH:0
LF:10
LH:9
end_of_record
SF:/Users/samcolak/Source Code/rust/distdb/distdb/serverlib/src/engine/database/inbuilt/datetime/weekday.rs
FN:15,_RNvXNtNtNtNtNtCsksqSOdb1Dlf_9serverlib6engine8database7inbuilt8datetime7weekdayNtB2_14WeekdayCommandNtNtB6_7command20InbuiltServerCommand4name
FN:19,_RNvXNtNtNtNtNtCsksqSOdb1Dlf_9serverlib6engine8database7inbuilt8datetime7weekdayNtB2_14WeekdayCommandNtNtB6_7command20InbuiltServerCommand8evaluate
FNDA:1,_RNvXNtNtNtNtNtCsksqSOdb1Dlf_9serverlib6engine8database7inbuilt8datetime7weekdayNtB2_14WeekdayCommandNtNtB6_7command20InbuiltServerCommand4name
FNDA:1,_RNvXNtNtNtNtNtCsksqSOdb1Dlf_9serverlib6engine8database7inbuilt8datetime7weekdayNtB2_14WeekdayCommandNtNtB6_7command20InbuiltServerCommand8evaluate
FNF:2
FNH:2
DA:15,1
DA:16,1
DA:17,1
DA:19,1
DA:21,1
DA:23,1
DA:25,1
DA:26,0
DA:29,1
DA:31,1
BRF:0
BRH:0
LF:10
LH:9
end_of_record
SF:/Users/samcolak/Source Code/rust/distdb/distdb/serverlib/src/engine/database/inbuilt/datetime/weekofyear.rs
FN:15,_RNvXNtNtNtNtNtCsksqSOdb1Dlf_9serverlib6engine8database7inbuilt8datetime10weekofyearNtB2_17WeekOfYearCommandNtNtB6_7command20InbuiltServerCommand4name
FN:19,_RNvXNtNtNtNtNtCsksqSOdb1Dlf_9serverlib6engine8database7inbuilt8datetime10weekofyearNtB2_17WeekOfYearCommandNtNtB6_7command20InbuiltServerCommand8evaluate
FNDA:1,_RNvXNtNtNtNtNtCsksqSOdb1Dlf_9serverlib6engine8database7inbuilt8datetime10weekofyearNtB2_17WeekOfYearCommandNtNtB6_7command20InbuiltServerCommand4name
FNDA:1,_RNvXNtNtNtNtNtCsksqSOdb1Dlf_9serverlib6engine8database7inbuilt8datetime10weekofyearNtB2_17WeekOfYearCommandNtNtB6_7command20InbuiltServerCommand8evaluate
FNF:2
FNH:2
DA:15,1
DA:16,1
DA:17,1
DA:19,1
DA:21,1
DA:23,1
DA:25,1
DA:26,0
DA:29,1
DA:31,1
BRF:0
BRH:0
LF:10
LH:9
end_of_record
SF:/Users/samcolak/Source Code/rust/distdb/distdb/serverlib/src/engine/database/inbuilt/datetime/year.rs
FN:15,_RNvXNtNtNtNtNtCsksqSOdb1Dlf_9serverlib6engine8database7inbuilt8datetime4yearNtB2_11YearCommandNtNtB6_7command20InbuiltServerCommand4name
FN:19,_RNvXNtNtNtNtNtCsksqSOdb1Dlf_9serverlib6engine8database7inbuilt8datetime4yearNtB2_11YearCommandNtNtB6_7command20InbuiltServerCommand8evaluate
FNDA:1,_RNvXNtNtNtNtNtCsksqSOdb1Dlf_9serverlib6engine8database7inbuilt8datetime4yearNtB2_11YearCommandNtNtB6_7command20InbuiltServerCommand4name
FNDA:1,_RNvXNtNtNtNtNtCsksqSOdb1Dlf_9serverlib6engine8database7inbuilt8datetime4yearNtB2_11YearCommandNtNtB6_7command20InbuiltServerCommand8evaluate
FNF:2
FNH:2
DA:15,1
DA:16,1
DA:17,1
DA:19,1
DA:21,1
DA:23,1
DA:25,1
DA:26,0
DA:29,1
DA:31,1
BRF:0
BRH:0
LF:10
LH:9
end_of_record
SF:/Users/samcolak/Source Code/rust/distdb/distdb/serverlib/src/engine/database/inbuilt/datetime/yearweek.rs
FN:15,_RNvXNtNtNtNtNtCsksqSOdb1Dlf_9serverlib6engine8database7inbuilt8datetime8yearweekNtB2_15YearWeekCommandNtNtB6_7command20InbuiltServerCommand4name
FN:19,_RNvXNtNtNtNtNtCsksqSOdb1Dlf_9serverlib6engine8database7inbuilt8datetime8yearweekNtB2_15YearWeekCommandNtNtB6_7command20InbuiltServerCommand8evaluate
FNDA:1,_RNvXNtNtNtNtNtCsksqSOdb1Dlf_9serverlib6engine8database7inbuilt8datetime8yearweekNtB2_15YearWeekCommandNtNtB6_7command20InbuiltServerCommand4name
FNDA:1,_RNvXNtNtNtNtNtCsksqSOdb1Dlf_9serverlib6engine8database7inbuilt8datetime8yearweekNtB2_15YearWeekCommandNtNtB6_7command20InbuiltServerCommand8evaluate
FNF:2
FNH:2
DA:15,1
DA:16,1
DA:17,1
DA:19,1
DA:21,1
DA:23,1
DA:25,1
DA:26,0
DA:29,1
DA:31,1
BRF:0
BRH:0
LF:10
LH:9
end_of_record
SF:/Users/samcolak/Source Code/rust/distdb/distdb/serverlib/src/engine/database/inbuilt/geo/distance.rs
FN:79,_RNvNtNtNtNtNtNtCsksqSOdb1Dlf_9serverlib6engine8database7inbuilt3geo8distance5tests19evaluate_expression
FN:128,_RNvNtNtNtNtNtNtCsksqSOdb1Dlf_9serverlib6engine8database7inbuilt3geo8distance5testss_38distance_handles_antimeridian_crossing
FN:107,_RNvNtNtNtNtNtNtCsksqSOdb1Dlf_9serverlib6engine8database7inbuilt3geo8distance5testss_42distance_returns_zero_for_identical_points
FN:117,_RNvNtNtNtNtNtNtCsksqSOdb1Dlf_9serverlib6engine8database7inbuilt3geo8distance5testss_49distance_returns_expected_meters_for_known_points
FN:12,_RNvNtNtNtNtNtCsksqSOdb1Dlf_9serverlib6engine8database7inbuilt3geo8distance33normalize_longitude_delta_degrees
FN:21,_RNvXNtNtNtNtNtCsksqSOdb1Dlf_9serverlib6engine8database7inbuilt3geo8distanceNtB2_15DistanceCommandNtNtB6_7command20InbuiltServerCommand4name
FN:25,_RNvXNtNtNtNtNtCsksqSOdb1Dlf_9serverlib6engine8database7inbuilt3geo8distanceNtB2_15DistanceCommandNtNtB6_7command20InbuiltServerCommand8evaluate
FN:102,_RNCNvNtNtNtNtNtNtCsksqSOdb1Dlf_9serverlib6engine8database7inbuilt3geo8distance5tests19evaluate_expression0Bf_
FNDA:3,_RNvNtNtNtNtNtNtCsksqSOdb1Dlf_9serverlib6engine8database7inbuilt3geo8distance5tests19evaluate_expression
FNDA:1,_RNvNtNtNtNtNtNtCsksqSOdb1Dlf_9serverlib6engine8database7inbuilt3geo8distance5testss_38distance_handles_antimeridian_crossing
FNDA:1,_RNvNtNtNtNtNtNtCsksqSOdb1Dlf_9serverlib6engine8database7inbuilt3geo8distance5testss_42distance_returns_zero_for_identical_points
FNDA:1,_RNvNtNtNtNtNtNtCsksqSOdb1Dlf_9serverlib6engine8database7inbuilt3geo8distance5testss_49distance_returns_expected_meters_for_known_points
FNDA:3,_RNvNtNtNtNtNtCsksqSOdb1Dlf_9serverlib6engine8database7inbuilt3geo8distance33normalize_longitude_delta_degrees
FNDA:3,_RNvXNtNtNtNtNtCsksqSOdb1Dlf_9serverlib6engine8database7inbuilt3geo8distanceNtB2_15DistanceCommandNtNtB6_7command20InbuiltServerCommand4name
FNDA:3,_RNvXNtNtNtNtNtCsksqSOdb1Dlf_9serverlib6engine8database7inbuilt3geo8distanceNtB2_15DistanceCommandNtNtB6_7command20InbuiltServerCommand8evaluate
FNDA:3,_RNCNvNtNtNtNtNtNtCsksqSOdb1Dlf_9serverlib6engine8database7inbuilt3geo8distance5tests19evaluate_expression0Bf_
FNF:8
FNH:8
DA:12,3
DA:14,3
DA:15,3
DA:21,3
DA:22,3
DA:23,3
DA:25,3
DA:27,3
DA:29,3
DA:31,3
DA:32,0
DA:35,3
DA:36,0
DA:39,3
DA:40,0
DA:43,3
DA:44,0
DA:48,3
DA:50,3
DA:51,3
DA:52,3
DA:53,3
DA:55,3
DA:56,3
DA:58,3
DA:59,3
DA:60,3
DA:62,3
DA:64,3
DA:66,3
DA:79,3
DA:81,3
DA:82,3
DA:84,3
DA:85,0
DA:88,3
DA:89,0
DA:92,3
DA:93,0
DA:96,3
DA:97,0
DA:100,3
DA:101,3
DA:102,3
DA:104,3
DA:107,1
DA:108,1
DA:109,1
DA:110,1
DA:111,1
DA:113,1
DA:114,1
DA:117,1
DA:118,1
DA:119,1
DA:120,1
DA:121,1
DA:124,1
DA:125,1
DA:128,1
DA:129,1
DA:130,1
DA:131,1
DA:132,1
DA:135,1
DA:136,1
BRF:0
BRH:0
LF:67
LH:59
end_of_record
SF:/Users/samcolak/Source Code/rust/distdb/distdb/serverlib/src/engine/database/inbuilt/geo/mod.rs
FN:10,_RNvNtNtNtNtNtCsksqSOdb1Dlf_9serverlib6engine8database7inbuilt3geo5testss_48geo_function_registry_exposes_expected_functions
FNDA:1,_RNvNtNtNtNtNtCsksqSOdb1Dlf_9serverlib6engine8database7inbuilt3geo5testss_48geo_function_registry_exposes_expected_functions
FNF:1
FNH:1
DA:10,1
DA:11,1
DA:12,1
BRF:0
BRH:0
LF:3
LH:3
end_of_record
SF:/Users/samcolak/Source Code/rust/distdb/distdb/serverlib/src/engine/database/inbuilt/indexer.rs
FN:258,_RNvNtNtNtNtCsksqSOdb1Dlf_9serverlib6engine8database7inbuilt7indexer13function_args
FN:433,_RNvNtNtNtNtCsksqSOdb1Dlf_9serverlib6engine8database7inbuilt7indexer14normalize_name
FN:462,_RNvNtNtNtNtCsksqSOdb1Dlf_9serverlib6engine8database7inbuilt7indexer14value_to_bytes
FN:270,_RNvNtNtNtNtCsksqSOdb1Dlf_9serverlib6engine8database7inbuilt7indexer15resolve_command
FN:73,_RNvNtNtNtNtCsksqSOdb1Dlf_9serverlib6engine8database7inbuilt7indexer19is_inbuilt_function
FN:227,_RNvNtNtNtNtCsksqSOdb1Dlf_9serverlib6engine8database7inbuilt7indexer20format_number_result
FN:248,_RNvNtNtNtNtCsksqSOdb1Dlf_9serverlib6engine8database7inbuilt7indexer22function_argument_expr
FN:212,_RNvNtNtNtNtCsksqSOdb1Dlf_9serverlib6engine8database7inbuilt7indexer27evaluate_numeric_expression
FN:61,_RNvNtNtNtNtCsksqSOdb1Dlf_9serverlib6engine8database7inbuilt7indexer27inbuilt_sql_runtime_context
FN:103,_RNvNtNtNtNtCsksqSOdb1Dlf_9serverlib6engine8database7inbuilt7indexer28evaluate_argument_expression
FN:77,_RNvNtNtNtNtCsksqSOdb1Dlf_9serverlib6engine8database7inbuilt7indexer29evaluate_inbuilt_sql_function
FN:96,_RNvNtNtNtNtCsksqSOdb1Dlf_9serverlib6engine8database7inbuilt7indexer42evaluate_inbuilt_sql_function_with_context
FN:42,_RINvNtNtNtNtCsksqSOdb1Dlf_9serverlib6engine8database7inbuilt7indexer32with_inbuilt_sql_runtime_contextINtNtCsfOyy81DYK0U_4core6result6ResultINtNtB1H_6option6OptionINtNtCslDfkGcRelIg_5alloc3vec3VechEENtNtB2G_6string6StringENCNvB2_42evaluate_inbuilt_sql_function_with_context0EBa_
FN:47,_RNCINvNtNtNtNtCsksqSOdb1Dlf_9serverlib6engine8database7inbuilt7indexer32with_inbuilt_sql_runtime_contextINtNtCsfOyy81DYK0U_4core6result6ResultINtNtB1J_6option6OptionINtNtCslDfkGcRelIg_5alloc3vec3VechEENtNtB2I_6string6StringENCNvB4_42evaluate_inbuilt_sql_function_with_context0E0Bc_
FN:53,_RNCINvNtNtNtNtCsksqSOdb1Dlf_9serverlib6engine8database7inbuilt7indexer32with_inbuilt_sql_runtime_contextINtNtCsfOyy81DYK0U_4core6result6ResultINtNtB1J_6option6OptionINtNtCslDfkGcRelIg_5alloc3vec3VechEENtNtB2I_6string6StringENCNvB4_42evaluate_inbuilt_sql_function_with_context0Es_0Bc_
FN:438,_RNCNvNtNtNtNtCsksqSOdb1Dlf_9serverlib6engine8database7inbuilt7indexer14normalize_name0Bb_
FN:443,_RNCNvNtNtNtNtCsksqSOdb1Dlf_9serverlib6engine8database7inbuilt7indexer14normalize_names_0Bb_
FN:223,_RNCNvNtNtNtNtCsksqSOdb1Dlf_9serverlib6engine8database7inbuilt7indexer27evaluate_numeric_expression0Bb_
FN:63,_RNCNvNtNtNtNtCsksqSOdb1Dlf_9serverlib6engine8database7inbuilt7indexer27inbuilt_sql_runtime_context0Bb_
FN:86,_RNCNvNtNtNtNtCsksqSOdb1Dlf_9serverlib6engine8database7inbuilt7indexer29evaluate_inbuilt_sql_function0Bb_
FN:100,_RNCNvNtNtNtNtCsksqSOdb1Dlf_9serverlib6engine8database7inbuilt7indexer42evaluate_inbuilt_sql_function_with_context0Bb_
FNDA:170,_RNvNtNtNtNtCsksqSOdb1Dlf_9serverlib6engine8database7inbuilt7indexer13function_args
FNDA:282,_RNvNtNtNtNtCsksqSOdb1Dlf_9serverlib6engine8database7inbuilt7indexer14normalize_name
FNDA:221,_RNvNtNtNtNtCsksqSOdb1Dlf_9serverlib6engine8database7inbuilt7indexer14value_to_bytes
FNDA:282,_RNvNtNtNtNtCsksqSOdb1Dlf_9serverlib6engine8database7inbuilt7indexer15resolve_command
FNDA:112,_RNvNtNtNtNtCsksqSOdb1Dlf_9serverlib6engine8database7inbuilt7indexer19is_inbuilt_function
FNDA:1,_RNvNtNtNtNtCsksqSOdb1Dlf_9serverlib6engine8database7inbuilt7indexer20format_number_result
FNDA:248,_RNvNtNtNtNtCsksqSOdb1Dlf_9serverlib6engine8database7inbuilt7indexer22function_argument_expr
FNDA:2,_RNvNtNtNtNtCsksqSOdb1Dlf_9serverlib6engine8database7inbuilt7indexer27evaluate_numeric_expression
FNDA:20,_RNvNtNtNtNtCsksqSOdb1Dlf_9serverlib6engine8database7inbuilt7indexer27inbuilt_sql_runtime_context
FNDA:250,_RNvNtNtNtNtCsksqSOdb1Dlf_9serverlib6engine8database7inbuilt7indexer28evaluate_argument_expression
FNDA:170,_RNvNtNtNtNtCsksqSOdb1Dlf_9serverlib6engine8database7inbuilt7indexer29evaluate_inbuilt_sql_function
FNDA:28,_RNvNtNtNtNtCsksqSOdb1Dlf_9serverlib6engine8database7inbuilt7indexer42evaluate_inbuilt_sql_function_with_context
FNDA:28,_RINvNtNtNtNtCsksqSOdb1Dlf_9serverlib6engine8database7inbuilt7indexer32with_inbuilt_sql_runtime_contextINtNtCsfOyy81DYK0U_4core6result6ResultINtNtB1H_6option6OptionINtNtCslDfkGcRelIg_5alloc3vec3VechEENtNtB2G_6string6StringENCNvB2_42evaluate_inbuilt_sql_function_with_context0EBa_
FNDA:28,_RNCINvNtNtNtNtCsksqSOdb1Dlf_9serverlib6engine8database7inbuilt7indexer32with_inbuilt_sql_runtime_contextINtNtCsfOyy81DYK0U_4core6result6ResultINtNtB1J_6option6OptionINtNtCslDfkGcRelIg_5alloc3vec3VechEENtNtB2I_6string6StringENCNvB4_42evaluate_inbuilt_sql_function_with_context0E0Bc_
FNDA:28,_RNCINvNtNtNtNtCsksqSOdb1Dlf_9serverlib6engine8database7inbuilt7indexer32with_inbuilt_sql_runtime_contextINtNtCsfOyy81DYK0U_4core6result6ResultINtNtB1J_6option6OptionINtNtCslDfkGcRelIg_5alloc3vec3VechEENtNtB2I_6string6StringENCNvB4_42evaluate_inbuilt_sql_function_with_context0Es_0Bc_
FNDA:1828,_RNCNvNtNtNtNtCsksqSOdb1Dlf_9serverlib6engine8database7inbuilt7indexer14normalize_name0Bb_
FNDA:1812,_RNCNvNtNtNtNtCsksqSOdb1Dlf_9serverlib6engine8database7inbuilt7indexer14normalize_names_0Bb_
FNDA:0,_RNCNvNtNtNtNtCsksqSOdb1Dlf_9serverlib6engine8database7inbuilt7indexer27evaluate_numeric_expression0Bb_
FNDA:20,_RNCNvNtNtNtNtCsksqSOdb1Dlf_9serverlib6engine8database7inbuilt7indexer27inbuilt_sql_runtime_context0Bb_
FNDA:0,_RNCNvNtNtNtNtCsksqSOdb1Dlf_9serverlib6engine8database7inbuilt7indexer29evaluate_inbuilt_sql_function0Bb_
FNDA:28,_RNCNvNtNtNtNtCsksqSOdb1Dlf_9serverlib6engine8database7inbuilt7indexer42evaluate_inbuilt_sql_function_with_context0Bb_
FNF:21
FNH:19
DA:42,28
DA:43,28
DA:44,28
DA:45,28
DA:47,28
DA:48,28
DA:49,28
DA:51,28
DA:53,28
DA:54,28
DA:55,28
DA:57,28
DA:59,28
DA:61,20
DA:63,20
DA:64,20
DA:65,20
DA:66,20
DA:67,20
DA:68,20
DA:69,20
DA:71,20
DA:73,112
DA:74,112
DA:75,112
DA:77,170
DA:79,170
DA:80,170
DA:81,0
DA:84,170
DA:85,170
DA:86,170
DA:87,0
DA:88,0
DA:90,0
DA:92,0
DA:94,170
DA:96,28
DA:97,28
DA:98,28
DA:99,28
DA:100,28
DA:101,28
DA:103,250
DA:105,250
DA:107,0
DA:109,221
DA:111,0
DA:112,0
DA:113,0
DA:115,0
DA:118,3
DA:119,3
DA:120,0
DA:121,0
DA:122,0
DA:123,0
DA:124,3
DA:126,3
DA:128,3
DA:129,3
DA:132,3
DA:134,3
DA:135,3
DA:136,0
DA:138,0
DA:139,0
DA:140,0
DA:141,0
DA:144,15
DA:146,0
DA:147,0
DA:150,15
DA:151,15
DA:154,0
DA:155,0
DA:156,0
DA:158,0
DA:161,0
DA:162,0
DA:163,0
DA:165,0
DA:168,0
DA:172,1
DA:174,1
DA:175,0
DA:178,1
DA:179,0
DA:182,1
DA:183,0
DA:184,0
DA:185,0
DA:186,1
DA:187,0
DA:189,0
DA:190,0
DA:191,0
DA:192,0
DA:196,1
DA:197,0
DA:198,1
DA:200,1
DA:204,10
DA:206,0
DA:210,250
DA:212,2
DA:214,2
DA:215,0
DA:218,2
DA:220,2
DA:221,2
DA:222,2
DA:223,2
DA:225,2
DA:227,1
DA:229,1
DA:230,0
DA:232,1
DA:235,1
DA:236,1
DA:237,0
DA:238,0
DA:239,1
DA:240,0
DA:241,1
DA:242,0
DA:244,1
DA:246,1
DA:248,248
DA:250,0
DA:251,248
DA:252,0
DA:253,0
DA:256,248
DA:258,170
DA:260,170
DA:261,0
DA:262,170
DA:264,0
DA:268,170
DA:270,282
DA:272,282
DA:277,282
DA:281,282
DA:285,278
DA:286,277
DA:287,276
DA:288,256
DA:289,253
DA:290,252
DA:291,250
DA:292,249
DA:293,248
DA:294,247
DA:295,246
DA:296,245
DA:297,244
DA:298,243
DA:299,242
DA:300,241
DA:301,239
DA:302,238
DA:303,236
DA:304,234
DA:305,232
DA:306,230
DA:307,229
DA:308,228
DA:309,227
DA:310,220
DA:311,212
DA:312,211
DA:316,211
DA:317,209
DA:318,207
DA:319,203
DA:320,199
DA:321,197
DA:322,195
DA:323,193
DA:324,191
DA:325,189
DA:326,187
DA:327,185
DA:328,183
DA:329,181
DA:330,180
DA:331,178
DA:332,176
DA:333,174
DA:334,172
DA:335,170
DA:336,168
DA:337,166
DA:338,164
DA:339,162
DA:340,160
DA:341,156
DA:342,154
DA:343,152
DA:344,150
DA:345,148
DA:346,146
DA:347,144
DA:348,142
DA:349,140
DA:350,138
DA:351,136
DA:352,134
DA:353,132
DA:354,130
DA:355,128
DA:356,126
DA:357,124
DA:358,118
DA:359,116
DA:360,114
DA:361,112
DA:362,110
DA:366,108
DA:367,97
DA:368,95
DA:369,94
DA:370,93
DA:371,91
DA:372,90
DA:373,89
DA:374,88
DA:375,84
DA:376,83
DA:377,82
DA:378,80
DA:379,78
DA:380,78
DA:381,75
DA:382,73
DA:383,72
DA:384,71
DA:385,70
DA:386,68
DA:387,67
DA:388,66
DA:389,64
DA:390,61
DA:391,59
DA:392,58
DA:393,54
DA:394,46
DA:395,45
DA:396,44
DA:397,42
DA:398,41
DA:399,40
DA:403,38
DA:404,36
DA:405,34
DA:406,32
DA:407,30
DA:408,28
DA:409,26
DA:410,24
DA:411,22
DA:412,20
DA:413,18
DA:414,16
DA:415,14
DA:416,12
DA:417,10
DA:418,8
DA:419,6
DA:420,4
DA:421,2
DA:425,0
DA:427,0
DA:431,282
DA:433,282
DA:435,282
DA:436,282
DA:437,282
DA:438,1828
DA:440,282
DA:441,282
DA:442,282
DA:443,1812
DA:445,282
DA:446,275
DA:447,7
DA:449,7
DA:451,59
DA:452,59
DA:453,6
DA:454,53
DA:455,53
DA:458,7
DA:460,282
DA:462,221
DA:464,221
DA:466,14
DA:468,0
DA:470,96
DA:472,111
DA:473,0
DA:474,0
DA:475,0
DA:476,0
DA:477,0
DA:478,0
DA:479,0
DA:480,0
DA:481,0
DA:482,0
DA:483,0
DA:484,0
DA:485,0
DA:486,0
DA:487,111
DA:489,0
DA:491,0
DA:492,0
DA:493,0
DA:494,0
DA:498,221
BRF:0
BRH:0
LF:330
LH:253
end_of_record
SF:/Users/samcolak/Source Code/rust/distdb/distdb/serverlib/src/engine/database/inbuilt/numeric/abs.rs
FN:16,_RNvXNtNtNtNtNtCsksqSOdb1Dlf_9serverlib6engine8database7inbuilt7numeric3absNtB2_10AbsCommandNtNtB6_7command20InbuiltServerCommand4name
FN:20,_RNvXNtNtNtNtNtCsksqSOdb1Dlf_9serverlib6engine8database7inbuilt7numeric3absNtB2_10AbsCommandNtNtB6_7command20InbuiltServerCommand8evaluate
FNDA:7,_RNvXNtNtNtNtNtCsksqSOdb1Dlf_9serverlib6engine8database7inbuilt7numeric3absNtB2_10AbsCommandNtNtB6_7command20InbuiltServerCommand4name
FNDA:7,_RNvXNtNtNtNtNtCsksqSOdb1Dlf_9serverlib6engine8database7inbuilt7numeric3absNtB2_10AbsCommandNtNtB6_7command20InbuiltServerCommand8evaluate
FNF:2
FNH:2
DA:16,7
DA:17,7
DA:18,7
DA:20,7
DA:22,7
DA:24,7
DA:26,7
DA:27,1
DA:30,6
DA:32,7
BRF:0
BRH:0
LF:10
LH:10
end_of_record
SF:/Users/samcolak/Source Code/rust/distdb/distdb/serverlib/src/engine/database/inbuilt/numeric/acos.rs
FN:16,_RNvXNtNtNtNtNtCsksqSOdb1Dlf_9serverlib6engine8database7inbuilt7numeric4acosNtB2_11AcosCommandNtNtB6_7command20InbuiltServerCommand4name
FN:20,_RNvXNtNtNtNtNtCsksqSOdb1Dlf_9serverlib6engine8database7inbuilt7numeric4acosNtB2_11AcosCommandNtNtB6_7command20InbuiltServerCommand8evaluate
FNDA:2,_RNvXNtNtNtNtNtCsksqSOdb1Dlf_9serverlib6engine8database7inbuilt7numeric4acosNtB2_11AcosCommandNtNtB6_7command20InbuiltServerCommand4name
FNDA:2,_RNvXNtNtNtNtNtCsksqSOdb1Dlf_9serverlib6engine8database7inbuilt7numeric4acosNtB2_11AcosCommandNtNtB6_7command20InbuiltServerCommand8evaluate
FNF:2
FNH:2
DA:16,2
DA:17,2
DA:18,2
DA:20,2
DA:22,2
DA:24,2
DA:26,2
DA:27,0
DA:29,2
DA:30,1
DA:31,1
DA:33,1
DA:35,2
BRF:0
BRH:0
LF:13
LH:12
end_of_record
SF:/Users/samcolak/Source Code/rust/distdb/distdb/serverlib/src/engine/database/inbuilt/numeric/asin.rs
FN:16,_RNvXNtNtNtNtNtCsksqSOdb1Dlf_9serverlib6engine8database7inbuilt7numeric4asinNtB2_11AsinCommandNtNtB6_7command20InbuiltServerCommand4name
FN:20,_RNvXNtNtNtNtNtCsksqSOdb1Dlf_9serverlib6engine8database7inbuilt7numeric4asinNtB2_11AsinCommandNtNtB6_7command20InbuiltServerCommand8evaluate
FNDA:1,_RNvXNtNtNtNtNtCsksqSOdb1Dlf_9serverlib6engine8database7inbuilt7numeric4asinNtB2_11AsinCommandNtNtB6_7command20InbuiltServerCommand4name
FNDA:1,_RNvXNtNtNtNtNtCsksqSOdb1Dlf_9serverlib6engine8database7inbuilt7numeric4asinNtB2_11AsinCommandNtNtB6_7command20InbuiltServerCommand8evaluate
FNF:2
FNH:2
DA:16,1
DA:17,1
DA:18,1
DA:20,1
DA:22,1
DA:24,1
DA:26,1
DA:27,0
DA:29,1
DA:30,0
DA:31,1
DA:33,1
DA:35,1
BRF:0
BRH:0
LF:13
LH:11
end_of_record
SF:/Users/samcolak/Source Code/rust/distdb/distdb/serverlib/src/engine/database/inbuilt/numeric/atan.rs
FN:16,_RNvXNtNtNtNtNtCsksqSOdb1Dlf_9serverlib6engine8database7inbuilt7numeric4atanNtB2_11AtanCommandNtNtB6_7command20InbuiltServerCommand4name
FN:20,_RNvXNtNtNtNtNtCsksqSOdb1Dlf_9serverlib6engine8database7inbuilt7numeric4atanNtB2_11AtanCommandNtNtB6_7command20InbuiltServerCommand8evaluate
FNDA:1,_RNvXNtNtNtNtNtCsksqSOdb1Dlf_9serverlib6engine8database7inbuilt7numeric4atanNtB2_11AtanCommandNtNtB6_7command20InbuiltServerCommand4name
FNDA:1,_RNvXNtNtNtNtNtCsksqSOdb1Dlf_9serverlib6engine8database7inbuilt7numeric4atanNtB2_11AtanCommandNtNtB6_7command20InbuiltServerCommand8evaluate
FNF:2
FNH:2
DA:16,1
DA:17,1
DA:18,1
DA:20,1
DA:22,1
DA:24,1
DA:26,1
DA:27,0
DA:30,1
DA:32,1
BRF:0
BRH:0
LF:10
LH:9
end_of_record
SF:/Users/samcolak/Source Code/rust/distdb/distdb/serverlib/src/engine/database/inbuilt/numeric/atan2.rs
FN:16,_RNvXNtNtNtNtNtCsksqSOdb1Dlf_9serverlib6engine8database7inbuilt7numeric5atan2NtB2_12Atan2CommandNtNtB6_7command20InbuiltServerCommand4name
FN:20,_RNvXNtNtNtNtNtCsksqSOdb1Dlf_9serverlib6engine8database7inbuilt7numeric5atan2NtB2_12Atan2CommandNtNtB6_7command20InbuiltServerCommand8evaluate
FNDA:1,_RNvXNtNtNtNtNtCsksqSOdb1Dlf_9serverlib6engine8database7inbuilt7numeric5atan2NtB2_12Atan2CommandNtNtB6_7command20InbuiltServerCommand4name
FNDA:1,_RNvXNtNtNtNtNtCsksqSOdb1Dlf_9serverlib6engine8database7inbuilt7numeric5atan2NtB2_12Atan2CommandNtNtB6_7command20InbuiltServerCommand8evaluate
FNF:2
FNH:2
DA:16,1
DA:17,1
DA:18,1
DA:20,1
DA:22,1
DA:24,1
DA:26,1
DA:27,0
DA:29,1
DA:30,0
DA:33,1
DA:35,1
BRF:0
BRH:0
LF:12
LH:10
end_of_record
SF:/Users/samcolak/Source Code/rust/distdb/distdb/serverlib/src/engine/database/inbuilt/numeric/avg.rs
FN:16,_RNvXNtNtNtNtNtCsksqSOdb1Dlf_9serverlib6engine8database7inbuilt7numeric3avgNtB2_10AvgCommandNtNtB6_7command20InbuiltServerCommand4name
FN:20,_RNvXNtNtNtNtNtCsksqSOdb1Dlf_9serverlib6engine8database7inbuilt7numeric3avgNtB2_10AvgCommandNtNtB6_7command20InbuiltServerCommand8evaluate
FNDA:1,_RNvXNtNtNtNtNtCsksqSOdb1Dlf_9serverlib6engine8database7inbuilt7numeric3avgNtB2_10AvgCommandNtNtB6_7command20InbuiltServerCommand4name
FNDA:1,_RNvXNtNtNtNtNtCsksqSOdb1Dlf_9serverlib6engine8database7inbuilt7numeric3avgNtB2_10AvgCommandNtNtB6_7command20InbuiltServerCommand8evaluate
FNF:2
FNH:2
DA:16,1
DA:17,1
DA:18,1
DA:20,1
DA:22,1
DA:24,1
DA:26,1
DA:27,1
DA:29,1
DA:30,0
DA:31,1
DA:33,1
DA:35,1
DA:37,1
BRF:0
BRH:0
LF:14
LH:13
end_of_record
SF:/Users/samcolak/Source Code/rust/distdb/distdb/serverlib/src/engine/database/inbuilt/numeric/ceil.rs
FN:16,_RNvXNtNtNtNtNtCsksqSOdb1Dlf_9serverlib6engine8database7inbuilt7numeric4ceilNtB2_11CeilCommandNtNtB6_7command20InbuiltServerCommand4name
FN:20,_RNvXNtNtNtNtNtCsksqSOdb1Dlf_9serverlib6engine8database7inbuilt7numeric4ceilNtB2_11CeilCommandNtNtB6_7command20InbuiltServerCommand8evaluate
FNDA:0,_RNvXNtNtNtNtNtCsksqSOdb1Dlf_9serverlib6engine8database7inbuilt7numeric4ceilNtB2_11CeilCommandNtNtB6_7command20InbuiltServerCommand4name
FNDA:0,_RNvXNtNtNtNtNtCsksqSOdb1Dlf_9serverlib6engine8database7inbuilt7numeric4ceilNtB2_11CeilCommandNtNtB6_7command20InbuiltServerCommand8evaluate
FNF:2
FNH:0
DA:16,0
DA:17,0
DA:18,0
DA:20,0
DA:22,0
DA:24,0
DA:26,0
DA:27,0
DA:30,0
DA:32,0
BRF:0
BRH:0
LF:10
LH:0
end_of_record
SF:/Users/samcolak/Source Code/rust/distdb/distdb/serverlib/src/engine/database/inbuilt/numeric/cos.rs
FN:16,_RNvXNtNtNtNtNtCsksqSOdb1Dlf_9serverlib6engine8database7inbuilt7numeric3cosNtB2_10CosCommandNtNtB6_7command20InbuiltServerCommand4name
FN:20,_RNvXNtNtNtNtNtCsksqSOdb1Dlf_9serverlib6engine8database7inbuilt7numeric3cosNtB2_10CosCommandNtNtB6_7command20InbuiltServerCommand8evaluate
FNDA:1,_RNvXNtNtNtNtNtCsksqSOdb1Dlf_9serverlib6engine8database7inbuilt7numeric3cosNtB2_10CosCommandNtNtB6_7command20InbuiltServerCommand4name
FNDA:1,_RNvXNtNtNtNtNtCsksqSOdb1Dlf_9serverlib6engine8database7inbuilt7numeric3cosNtB2_10CosCommandNtNtB6_7command20InbuiltServerCommand8evaluate
FNF:2
FNH:2
DA:16,1
DA:17,1
DA:18,1
DA:20,1
DA:22,1
DA:24,1
DA:26,1
DA:27,0
DA:30,1
DA:32,1
BRF:0
BRH:0
LF:10
LH:9
end_of_record
SF:/Users/samcolak/Source Code/rust/distdb/distdb/serverlib/src/engine/database/inbuilt/numeric/cot.rs
FN:16,_RNvXNtNtNtNtNtCsksqSOdb1Dlf_9serverlib6engine8database7inbuilt7numeric3cotNtB2_10CotCommandNtNtB6_7command20InbuiltServerCommand4name
FN:20,_RNvXNtNtNtNtNtCsksqSOdb1Dlf_9serverlib6engine8database7inbuilt7numeric3cotNtB2_10CotCommandNtNtB6_7command20InbuiltServerCommand8evaluate
FNDA:1,_RNvXNtNtNtNtNtCsksqSOdb1Dlf_9serverlib6engine8database7inbuilt7numeric3cotNtB2_10CotCommandNtNtB6_7command20InbuiltServerCommand4name
FNDA:1,_RNvXNtNtNtNtNtCsksqSOdb1Dlf_9serverlib6engine8database7inbuilt7numeric3cotNtB2_10CotCommandNtNtB6_7command20InbuiltServerCommand8evaluate
FNF:2
FNH:2
DA:16,1
DA:17,1
DA:18,1
DA:20,1
DA:22,1
DA:24,1
DA:26,1
DA:27,0
DA:30,1
DA:32,1
DA:33,0
DA:34,1
DA:36,1
DA:38,1
BRF:0
BRH:0
LF:14
LH:12
end_of_record
SF:/Users/samcolak/Source Code/rust/distdb/distdb/serverlib/src/engine/database/inbuilt/numeric/count.rs
FN:17,_RNvXNtNtNtNtNtCsksqSOdb1Dlf_9serverlib6engine8database7inbuilt7numeric5countNtB2_12CountCommandNtNtB6_7command20InbuiltServerCommand4name
FN:21,_RNvXNtNtNtNtNtCsksqSOdb1Dlf_9serverlib6engine8database7inbuilt7numeric5countNtB2_12CountCommandNtNtB6_7command20InbuiltServerCommand8evaluate
FN:29,_RNCNvXNtNtNtNtNtCsksqSOdb1Dlf_9serverlib6engine8database7inbuilt7numeric5countNtB4_12CountCommandNtNtB8_7command20InbuiltServerCommand8evaluate0Be_
FNDA:1,_RNvXNtNtNtNtNtCsksqSOdb1Dlf_9serverlib6engine8database7inbuilt7numeric5countNtB2_12CountCommandNtNtB6_7command20InbuiltServerCommand4name
FNDA:1,_RNvXNtNtNtNtNtCsksqSOdb1Dlf_9serverlib6engine8database7inbuilt7numeric5countNtB2_12CountCommandNtNtB6_7command20InbuiltServerCommand8evaluate
FNDA:3,_RNCNvXNtNtNtNtNtCsksqSOdb1Dlf_9serverlib6engine8database7inbuilt7numeric5countNtB4_12CountCommandNtNtB8_7command20InbuiltServerCommand8evaluate0Be_
FNF:3
FNH:3
DA:17,1
DA:18,1
DA:19,1
DA:21,1
DA:23,1
DA:25,1
DA:27,1
DA:28,1
DA:29,3
DA:30,1
DA:32,1
DA:34,1
BRF:0
BRH:0
LF:13
LH:13
end_of_record
SF:/Users/samcolak/Source Code/rust/distdb/distdb/serverlib/src/engine/database/inbuilt/numeric/degrees.rs
FN:16,_RNvXNtNtNtNtNtCsksqSOdb1Dlf_9serverlib6engine8database7inbuilt7numeric7degreesNtB2_14DegreesCommandNtNtB6_7command20InbuiltServerCommand4name
FN:20,_RNvXNtNtNtNtNtCsksqSOdb1Dlf_9serverlib6engine8database7inbuilt7numeric7degreesNtB2_14DegreesCommandNtNtB6_7command20InbuiltServerCommand8evaluate
FNDA:1,_RNvXNtNtNtNtNtCsksqSOdb1Dlf_9serverlib6engine8database7inbuilt7numeric7degreesNtB2_14DegreesCommandNtNtB6_7command20InbuiltServerCommand4name
FNDA:1,_RNvXNtNtNtNtNtCsksqSOdb1Dlf_9serverlib6engine8database7inbuilt7numeric7degreesNtB2_14DegreesCommandNtNtB6_7command20InbuiltServerCommand8evaluate
FNF:2
FNH:2
DA:16,1
DA:17,1
DA:18,1
DA:20,1
DA:22,1
DA:24,1
DA:26,1
DA:27,0
DA:30,1
DA:32,1
BRF:0
BRH:0
LF:10
LH:9
end_of_record
SF:/Users/samcolak/Source Code/rust/distdb/distdb/serverlib/src/engine/database/inbuilt/numeric/div.rs
FN:16,_RNvXNtNtNtNtNtCsksqSOdb1Dlf_9serverlib6engine8database7inbuilt7numeric3divNtB2_10DivCommandNtNtB6_7command20InbuiltServerCommand4name
FN:20,_RNvXNtNtNtNtNtCsksqSOdb1Dlf_9serverlib6engine8database7inbuilt7numeric3divNtB2_10DivCommandNtNtB6_7command20InbuiltServerCommand8evaluate
FNDA:1,_RNvXNtNtNtNtNtCsksqSOdb1Dlf_9serverlib6engine8database7inbuilt7numeric3divNtB2_10DivCommandNtNtB6_7command20InbuiltServerCommand4name
FNDA:1,_RNvXNtNtNtNtNtCsksqSOdb1Dlf_9serverlib6engine8database7inbuilt7numeric3divNtB2_10DivCommandNtNtB6_7command20InbuiltServerCommand8evaluate
FNF:2
FNH:2
DA:16,1
DA:17,1
DA:18,1
DA:20,1
DA:22,1
DA:24,1
DA:26,1
DA:27,0
DA:30,1
DA:31,0
DA:34,1
DA:35,0
DA:36,1
DA:38,1
DA:40,1
BRF:0
BRH:0
LF:15
LH:12
end_of_record
SF:/Users/samcolak/Source Code/rust/distdb/distdb/serverlib/src/engine/database/inbuilt/numeric/exp.rs
FN:16,_RNvXNtNtNtNtNtCsksqSOdb1Dlf_9serverlib6engine8database7inbuilt7numeric3expNtB2_10ExpCommandNtNtB6_7command20InbuiltServerCommand4name
FN:20,_RNvXNtNtNtNtNtCsksqSOdb1Dlf_9serverlib6engine8database7inbuilt7numeric3expNtB2_10ExpCommandNtNtB6_7command20InbuiltServerCommand8evaluate
FNDA:2,_RNvXNtNtNtNtNtCsksqSOdb1Dlf_9serverlib6engine8database7inbuilt7numeric3expNtB2_10ExpCommandNtNtB6_7command20InbuiltServerCommand4name
FNDA:2,_RNvXNtNtNtNtNtCsksqSOdb1Dlf_9serverlib6engine8database7inbuilt7numeric3expNtB2_10ExpCommandNtNtB6_7command20InbuiltServerCommand8evaluate
FNF:2
FNH:2
DA:16,2
DA:17,2
DA:18,2
DA:20,2
DA:22,2
DA:24,2
DA:26,2
DA:27,0
DA:30,2
DA:32,2
BRF:0
BRH:0
LF:10
LH:9
end_of_record
SF:/Users/samcolak/Source Code/rust/distdb/distdb/serverlib/src/engine/database/inbuilt/numeric/floor.rs
FN:16,_RNvXNtNtNtNtNtCsksqSOdb1Dlf_9serverlib6engine8database7inbuilt7numeric5floorNtB2_12FloorCommandNtNtB6_7command20InbuiltServerCommand4name
FN:20,_RNvXNtNtNtNtNtCsksqSOdb1Dlf_9serverlib6engine8database7inbuilt7numeric5floorNtB2_12FloorCommandNtNtB6_7command20InbuiltServerCommand8evaluate
FNDA:0,_RNvXNtNtNtNtNtCsksqSOdb1Dlf_9serverlib6engine8database7inbuilt7numeric5floorNtB2_12FloorCommandNtNtB6_7command20InbuiltServerCommand4name
FNDA:0,_RNvXNtNtNtNtNtCsksqSOdb1Dlf_9serverlib6engine8database7inbuilt7numeric5floorNtB2_12FloorCommandNtNtB6_7command20InbuiltServerCommand8evaluate
FNF:2
FNH:0
DA:16,0
DA:17,0
DA:18,0
DA:20,0
DA:22,0
DA:24,0
DA:26,0
DA:27,0
DA:30,0
DA:32,0
BRF:0
BRH:0
LF:10
LH:0
end_of_record
SF:/Users/samcolak/Source Code/rust/distdb/distdb/serverlib/src/engine/database/inbuilt/numeric/greatest.rs
FN:28,_RNCNvXNtNtNtNtNtCsksqSOdb1Dlf_9serverlib6engine8database7inbuilt7numeric8greatestNtB4_15GreatestCommandNtNtB8_7command20InbuiltServerCommand8evaluate0Be_
FN:16,_RNvXNtNtNtNtNtCsksqSOdb1Dlf_9serverlib6engine8database7inbuilt7numeric8greatestNtB2_15GreatestCommandNtNtB6_7command20InbuiltServerCommand4name
FN:20,_RNvXNtNtNtNtNtCsksqSOdb1Dlf_9serverlib6engine8database7inbuilt7numeric8greatestNtB2_15GreatestCommandNtNtB6_7command20InbuiltServerCommand8evaluate
FNDA:5,_RNCNvXNtNtNtNtNtCsksqSOdb1Dlf_9serverlib6engine8database7inbuilt7numeric8greatestNtB4_15GreatestCommandNtNtB8_7command20InbuiltServerCommand8evaluate0Be_
FNDA:2,_RNvXNtNtNtNtNtCsksqSOdb1Dlf_9serverlib6engine8database7inbuilt7numeric8greatestNtB2_15GreatestCommandNtNtB6_7command20InbuiltServerCommand4name
FNDA:2,_RNvXNtNtNtNtNtCsksqSOdb1Dlf_9serverlib6engine8database7inbuilt7numeric8greatestNtB2_15GreatestCommandNtNtB6_7command20InbuiltServerCommand8evaluate
FNF:3
FNH:3
DA:16,2
DA:17,2
DA:18,2
DA:20,2
DA:22,2
DA:24,2
DA:26,2
DA:28,5
DA:29,1
DA:30,1
DA:32,1
DA:33,1
DA:34,1
DA:35,1
DA:36,1
DA:38,1
DA:40,2
BRF:0
BRH:0
LF:18
LH:18
end_of_record
SF:/Users/samcolak/Source Code/rust/distdb/distdb/serverlib/src/engine/database/inbuilt/numeric/least.rs
FN:28,_RNCNvXNtNtNtNtNtCsksqSOdb1Dlf_9serverlib6engine8database7inbuilt7numeric5leastNtB4_12LeastCommandNtNtB8_7command20InbuiltServerCommand8evaluate0Be_
FN:16,_RNvXNtNtNtNtNtCsksqSOdb1Dlf_9serverlib6engine8database7inbuilt7numeric5leastNtB2_12LeastCommandNtNtB6_7command20InbuiltServerCommand4name
FN:20,_RNvXNtNtNtNtNtCsksqSOdb1Dlf_9serverlib6engine8database7inbuilt7numeric5leastNtB2_12LeastCommandNtNtB6_7command20InbuiltServerCommand8evaluate
FNDA:3,_RNCNvXNtNtNtNtNtCsksqSOdb1Dlf_9serverlib6engine8database7inbuilt7numeric5leastNtB4_12LeastCommandNtNtB8_7command20InbuiltServerCommand8evaluate0Be_
FNDA:1,_RNvXNtNtNtNtNtCsksqSOdb1Dlf_9serverlib6engine8database7inbuilt7numeric5leastNtB2_12LeastCommandNtNtB6_7command20InbuiltServerCommand4name
FNDA:1,_RNvXNtNtNtNtNtCsksqSOdb1Dlf_9serverlib6engine8database7inbuilt7numeric5leastNtB2_12LeastCommandNtNtB6_7command20InbuiltServerCommand8evaluate
FNF:3
FNH:3
DA:16,1
DA:17,1
DA:18,1
DA:20,1
DA:22,1
DA:24,1
DA:26,1
DA:28,3
DA:29,0
DA:30,1
DA:32,1
DA:33,1
DA:34,1
DA:35,1
DA:36,1
DA:38,1
DA:40,1
BRF:0
BRH:0
LF:18
LH:17
end_of_record
SF:/Users/samcolak/Source Code/rust/distdb/distdb/serverlib/src/engine/database/inbuilt/numeric/ln.rs
FN:16,_RNvXNtNtNtNtNtCsksqSOdb1Dlf_9serverlib6engine8database7inbuilt7numeric2lnNtB2_9LnCommandNtNtB6_7command20InbuiltServerCommand4name
FN:20,_RNvXNtNtNtNtNtCsksqSOdb1Dlf_9serverlib6engine8database7inbuilt7numeric2lnNtB2_9LnCommandNtNtB6_7command20InbuiltServerCommand8evaluate
FNDA:1,_RNvXNtNtNtNtNtCsksqSOdb1Dlf_9serverlib6engine8database7inbuilt7numeric2lnNtB2_9LnCommandNtNtB6_7command20InbuiltServerCommand4name
FNDA:1,_RNvXNtNtNtNtNtCsksqSOdb1Dlf_9serverlib6engine8database7inbuilt7numeric2lnNtB2_9LnCommandNtNtB6_7command20InbuiltServerCommand8evaluate
FNF:2
FNH:2
DA:16,1
DA:17,1
DA:18,1
DA:20,1
DA:22,1
DA:24,1
DA:26,1
DA:27,0
DA:30,1
DA:31,0
DA:32,1
DA:34,1
DA:36,1
BRF:0
BRH:0
LF:13
LH:11
end_of_record
SF:/Users/samcolak/Source Code/rust/distdb/distdb/serverlib/src/engine/database/inbuilt/numeric/log.rs
FN:16,_RNvXNtNtNtNtNtCsksqSOdb1Dlf_9serverlib6engine8database7inbuilt7numeric3logNtB2_10LogCommandNtNtB6_7command20InbuiltServerCommand4name
FN:20,_RNvXNtNtNtNtNtCsksqSOdb1Dlf_9serverlib6engine8database7inbuilt7numeric3logNtB2_10LogCommandNtNtB6_7command20InbuiltServerCommand8evaluate
FNDA:1,_RNvXNtNtNtNtNtCsksqSOdb1Dlf_9serverlib6engine8database7inbuilt7numeric3logNtB2_10LogCommandNtNtB6_7command20InbuiltServerCommand4name
FNDA:1,_RNvXNtNtNtNtNtCsksqSOdb1Dlf_9serverlib6engine8database7inbuilt7numeric3logNtB2_10LogCommandNtNtB6_7command20InbuiltServerCommand8evaluate
FNF:2
FNH:2
DA:16,1
DA:17,1
DA:18,1
DA:20,1
DA:22,1
DA:24,1
DA:26,1
DA:28,0
DA:29,0
DA:32,0
DA:33,0
DA:34,0
DA:36,0
DA:40,1
DA:41,0
DA:44,1
DA:45,0
DA:48,1
DA:49,0
DA:50,1
DA:52,1
DA:56,1
DA:58,1
BRF:0
BRH:0
LF:23
LH:14
end_of_record
SF:/Users/samcolak/Source Code/rust/distdb/distdb/serverlib/src/engine/database/inbuilt/numeric/log10.rs
FN:16,_RNvXNtNtNtNtNtCsksqSOdb1Dlf_9serverlib6engine8database7inbuilt7numeric5log10NtB2_12Log10CommandNtNtB6_7command20InbuiltServerCommand4name
FN:20,_RNvXNtNtNtNtNtCsksqSOdb1Dlf_9serverlib6engine8database7inbuilt7numeric5log10NtB2_12Log10CommandNtNtB6_7command20InbuiltServerCommand8evaluate
FNDA:1,_RNvXNtNtNtNtNtCsksqSOdb1Dlf_9serverlib6engine8database7inbuilt7numeric5log10NtB2_12Log10CommandNtNtB6_7command20InbuiltServerCommand4name
FNDA:1,_RNvXNtNtNtNtNtCsksqSOdb1Dlf_9serverlib6engine8database7inbuilt7numeric5log10NtB2_12Log10CommandNtNtB6_7command20InbuiltServerCommand8evaluate
FNF:2
FNH:2
DA:16,1
DA:17,1
DA:18,1
DA:20,1
DA:22,1
DA:24,1
DA:26,1
DA:27,0
DA:30,1
DA:31,0
DA:32,1
DA:34,1
DA:36,1
BRF:0
BRH:0
LF:13
LH:11
end_of_record
SF:/Users/samcolak/Source Code/rust/distdb/distdb/serverlib/src/engine/database/inbuilt/numeric/log2.rs
FN:16,_RNvXNtNtNtNtNtCsksqSOdb1Dlf_9serverlib6engine8database7inbuilt7numeric4log2NtB2_11Log2CommandNtNtB6_7command20InbuiltServerCommand4name
FN:20,_RNvXNtNtNtNtNtCsksqSOdb1Dlf_9serverlib6engine8database7inbuilt7numeric4log2NtB2_11Log2CommandNtNtB6_7command20InbuiltServerCommand8evaluate
FNDA:1,_RNvXNtNtNtNtNtCsksqSOdb1Dlf_9serverlib6engine8database7inbuilt7numeric4log2NtB2_11Log2CommandNtNtB6_7command20InbuiltServerCommand4name
FNDA:1,_RNvXNtNtNtNtNtCsksqSOdb1Dlf_9serverlib6engine8database7inbuilt7numeric4log2NtB2_11Log2CommandNtNtB6_7command20InbuiltServerCommand8evaluate
FNF:2
FNH:2
DA:16,1
DA:17,1
DA:18,1
DA:20,1
DA:22,1
DA:24,1
DA:26,1
DA:27,0
DA:30,1
DA:31,0
DA:32,1
DA:34,1
DA:36,1
BRF:0
BRH:0
LF:13
LH:11
end_of_record
SF:/Users/samcolak/Source Code/rust/distdb/distdb/serverlib/src/engine/database/inbuilt/numeric/max.rs
FN:16,_RNvXNtNtNtNtNtCsksqSOdb1Dlf_9serverlib6engine8database7inbuilt7numeric3maxNtB2_10MaxCommandNtNtB6_7command20InbuiltServerCommand4name
FN:20,_RNvXNtNtNtNtNtCsksqSOdb1Dlf_9serverlib6engine8database7inbuilt7numeric3maxNtB2_10MaxCommandNtNtB6_7command20InbuiltServerCommand8evaluate
FNDA:1,_RNvXNtNtNtNtNtCsksqSOdb1Dlf_9serverlib6engine8database7inbuilt7numeric3maxNtB2_10MaxCommandNtNtB6_7command20InbuiltServerCommand4name
FNDA:1,_RNvXNtNtNtNtNtCsksqSOdb1Dlf_9serverlib6engine8database7inbuilt7numeric3maxNtB2_10MaxCommandNtNtB6_7command20InbuiltServerCommand8evaluate
FNF:2
FNH:2
DA:16,1
DA:17,1
DA:18,1
DA:20,1
DA:22,1
DA:24,1
DA:26,1
DA:27,1
DA:28,1
DA:29,1
DA:31,1
DA:33,1
BRF:0
BRH:0
LF:12
LH:12
end_of_record
SF:/Users/samcolak/Source Code/rust/distdb/distdb/serverlib/src/engine/database/inbuilt/numeric/min.rs
FN:16,_RNvXNtNtNtNtNtCsksqSOdb1Dlf_9serverlib6engine8database7inbuilt7numeric3minNtB2_10MinCommandNtNtB6_7command20InbuiltServerCommand4name
FN:20,_RNvXNtNtNtNtNtCsksqSOdb1Dlf_9serverlib6engine8database7inbuilt7numeric3minNtB2_10MinCommandNtNtB6_7command20InbuiltServerCommand8evaluate
FNDA:1,_RNvXNtNtNtNtNtCsksqSOdb1Dlf_9serverlib6engine8database7inbuilt7numeric3minNtB2_10MinCommandNtNtB6_7command20InbuiltServerCommand4name
FNDA:1,_RNvXNtNtNtNtNtCsksqSOdb1Dlf_9serverlib6engine8database7inbuilt7numeric3minNtB2_10MinCommandNtNtB6_7command20InbuiltServerCommand8evaluate
FNF:2
FNH:2
DA:16,1
DA:17,1
DA:18,1
DA:20,1
DA:22,1
DA:24,1
DA:26,1
DA:27,1
DA:28,1
DA:29,1
DA:31,1
DA:33,1
BRF:0
BRH:0
LF:12
LH:12
end_of_record
SF:/Users/samcolak/Source Code/rust/distdb/distdb/serverlib/src/engine/database/inbuilt/numeric/mod.rs
FN:100,_RINvNtNtNtNtCsksqSOdb1Dlf_9serverlib6engine8database7inbuilt7numeric13number_resultjEBa_
FN:100,_RINvNtNtNtNtCsksqSOdb1Dlf_9serverlib6engine8database7inbuilt7numeric13number_resultlEBa_
FN:100,_RINvNtNtNtNtCsksqSOdb1Dlf_9serverlib6engine8database7inbuilt7numeric13number_resultxEBa_
FN:161,_RNCNvNtNtNtNtCsksqSOdb1Dlf_9serverlib6engine8database7inbuilt7numeric15random_seed_now0Bb_
FN:79,_RNCNvNtNtNtNtCsksqSOdb1Dlf_9serverlib6engine8database7inbuilt7numeric16evaluate_f64_arg0Bb_
FN:130,_RNvNtNtNtNtCsksqSOdb1Dlf_9serverlib6engine8database7inbuilt7numeric11round_mysql
FN:104,_RNvNtNtNtNtCsksqSOdb1Dlf_9serverlib6engine8database7inbuilt7numeric12float_result
FN:150,_RNvNtNtNtNtCsksqSOdb1Dlf_9serverlib6engine8database7inbuilt7numeric13seeded_random
FN:140,_RNvNtNtNtNtCsksqSOdb1Dlf_9serverlib6engine8database7inbuilt7numeric14truncate_mysql
FN:112,_RNvNtNtNtNtCsksqSOdb1Dlf_9serverlib6engine8database7inbuilt7numeric15normalize_float
FN:158,_RNvNtNtNtNtCsksqSOdb1Dlf_9serverlib6engine8database7inbuilt7numeric15random_seed_now
FN:69,_RNvNtNtNtNtCsksqSOdb1Dlf_9serverlib6engine8database7inbuilt7numeric16evaluate_f64_arg
FN:82,_RNvNtNtNtNtCsksqSOdb1Dlf_9serverlib6engine8database7inbuilt7numeric16evaluate_i64_arg
FN:42,_RNvNtNtNtNtCsksqSOdb1Dlf_9serverlib6engine8database7inbuilt7numeric16expect_arg_count
FN:61,_RNvNtNtNtNtCsksqSOdb1Dlf_9serverlib6engine8database7inbuilt7numeric18evaluate_bytes_arg
FN:90,_RNvNtNtNtNtCsksqSOdb1Dlf_9serverlib6engine8database7inbuilt7numeric20collect_numeric_args
FN:174,_RNvNtNtNtNtNtCsksqSOdb1Dlf_9serverlib6engine8database7inbuilt7numeric5tests19evaluate_expression
FN:202,_RNvNtNtNtNtNtCsksqSOdb1Dlf_9serverlib6engine8database7inbuilt7numeric5testss_52numeric_function_registry_exposes_expected_functions
FN:222,_RNvNtNtNtNtNtCsksqSOdb1Dlf_9serverlib6engine8database7inbuilt7numeric5testss_53evaluate_numeric_functions_matches_mysql_like_samples
FN:272,_RNvNtNtNtNtNtCsksqSOdb1Dlf_9serverlib6engine8database7inbuilt7numeric5testss_56rand_is_deterministic_with_seed_and_bounded_without_seed
FN:263,_RNvNtNtNtNtNtCsksqSOdb1Dlf_9serverlib6engine8database7inbuilt7numeric5testss_57numeric_functions_propagate_null_or_invalid_mysql_results
FN:197,_RNCNvNtNtNtNtNtCsksqSOdb1Dlf_9serverlib6engine8database7inbuilt7numeric5tests19evaluate_expression0Bd_
FNDA:1,_RINvNtNtNtNtCsksqSOdb1Dlf_9serverlib6engine8database7inbuilt7numeric13number_resultjEBa_
FNDA:1,_RINvNtNtNtNtCsksqSOdb1Dlf_9serverlib6engine8database7inbuilt7numeric13number_resultlEBa_
FNDA:1,_RINvNtNtNtNtCsksqSOdb1Dlf_9serverlib6engine8database7inbuilt7numeric13number_resultxEBa_
FNDA:1,_RNCNvNtNtNtNtCsksqSOdb1Dlf_9serverlib6engine8database7inbuilt7numeric15random_seed_now0Bb_
FNDA:0,_RNCNvNtNtNtNtCsksqSOdb1Dlf_9serverlib6engine8database7inbuilt7numeric16evaluate_f64_arg0Bb_
FNDA:8,_RNvNtNtNtNtCsksqSOdb1Dlf_9serverlib6engine8database7inbuilt7numeric11round_mysql
FNDA:49,_RNvNtNtNtNtCsksqSOdb1Dlf_9serverlib6engine8database7inbuilt7numeric12float_result
FNDA:3,_RNvNtNtNtNtCsksqSOdb1Dlf_9serverlib6engine8database7inbuilt7numeric13seeded_random
FNDA:1,_RNvNtNtNtNtCsksqSOdb1Dlf_9serverlib6engine8database7inbuilt7numeric14truncate_mysql
FNDA:49,_RNvNtNtNtNtCsksqSOdb1Dlf_9serverlib6engine8database7inbuilt7numeric15normalize_float
FNDA:1,_RNvNtNtNtNtCsksqSOdb1Dlf_9serverlib6engine8database7inbuilt7numeric15random_seed_now
FNDA:90,_RNvNtNtNtNtCsksqSOdb1Dlf_9serverlib6engine8database7inbuilt7numeric16evaluate_f64_arg
FNDA:11,_RNvNtNtNtNtCsksqSOdb1Dlf_9serverlib6engine8database7inbuilt7numeric16evaluate_i64_arg
FNDA:57,_RNvNtNtNtNtCsksqSOdb1Dlf_9serverlib6engine8database7inbuilt7numeric16expect_arg_count
FNDA:90,_RNvNtNtNtNtCsksqSOdb1Dlf_9serverlib6engine8database7inbuilt7numeric18evaluate_bytes_arg
FNDA:8,_RNvNtNtNtNtCsksqSOdb1Dlf_9serverlib6engine8database7inbuilt7numeric20collect_numeric_args
FNDA:39,_RNvNtNtNtNtNtCsksqSOdb1Dlf_9serverlib6engine8database7inbuilt7numeric5tests19evaluate_expression
FNDA:1,_RNvNtNtNtNtNtCsksqSOdb1Dlf_9serverlib6engine8database7inbuilt7numeric5testss_52numeric_function_registry_exposes_expected_functions
FNDA:1,_RNvNtNtNtNtNtCsksqSOdb1Dlf_9serverlib6engine8database7inbuilt7numeric5testss_53evaluate_numeric_functions_matches_mysql_like_samples
FNDA:1,_RNvNtNtNtNtNtCsksqSOdb1Dlf_9serverlib6engine8database7inbuilt7numeric5testss_56rand_is_deterministic_with_seed_and_bounded_without_seed
FNDA:1,_RNvNtNtNtNtNtCsksqSOdb1Dlf_9serverlib6engine8database7inbuilt7numeric5testss_57numeric_functions_propagate_null_or_invalid_mysql_results
FNDA:34,_RNCNvNtNtNtNtNtCsksqSOdb1Dlf_9serverlib6engine8database7inbuilt7numeric5tests19evaluate_expression0Bd_
FNF:20
FNH:19
DA:42,57
DA:43,57
DA:44,57
DA:45,57
DA:46,57
DA:47,57
DA:48,57
DA:49,0
DA:50,0
DA:51,0
DA:52,0
DA:53,0
DA:54,0
DA:55,0
DA:56,57
DA:58,57
DA:59,57
DA:61,90
DA:62,90
DA:63,90
DA:64,90
DA:65,90
DA:66,90
DA:67,90
DA:69,90
DA:70,90
DA:71,6
DA:74,84
DA:75,84
DA:76,84
DA:77,84
DA:78,84
DA:79,84
DA:80,90
DA:82,11
DA:83,11
DA:84,0
DA:87,11
DA:88,11
DA:90,8
DA:91,8
DA:92,8
DA:93,8
DA:94,21
DA:95,21
DA:97,8
DA:98,8
DA:100,3
DA:101,3
DA:102,3
DA:104,49
DA:105,49
DA:106,0
DA:107,49
DA:109,49
DA:110,49
DA:112,49
DA:113,49
DA:114,3
DA:115,46
DA:117,46
DA:118,46
DA:119,20
DA:120,0
DA:121,0
DA:122,20
DA:123,0
DA:124,20
DA:125,26
DA:127,46
DA:128,49
DA:130,8
DA:131,8
DA:132,7
DA:133,7
DA:135,1
DA:136,1
DA:138,8
DA:140,1
DA:141,1
DA:142,1
DA:143,1
DA:145,0
DA:146,0
DA:148,1
DA:150,3
DA:151,3
DA:152,3
DA:153,3
DA:154,3
DA:155,3
DA:156,3
DA:158,1
DA:159,1
DA:160,1
DA:161,1
DA:162,1
DA:163,1
DA:174,39
DA:176,39
DA:177,39
DA:179,39
DA:180,0
DA:183,39
DA:184,0
DA:187,39
DA:188,0
DA:191,39
DA:192,0
DA:195,39
DA:196,39
DA:197,39
DA:199,39
DA:202,1
DA:204,10
DA:205,1
DA:206,1
DA:207,1
DA:208,1
DA:209,1
DA:210,1
DA:211,1
DA:212,1
DA:213,1
DA:214,1
DA:215,1
DA:216,10
DA:219,1
DA:222,1
DA:223,1
DA:224,1
DA:225,1
DA:226,1
DA:227,1
DA:228,1
DA:229,1
DA:230,1
DA:231,1
DA:232,1
DA:233,1
DA:234,1
DA:235,1
DA:236,1
DA:237,1
DA:238,1
DA:239,1
DA:240,1
DA:241,1
DA:242,1
DA:243,1
DA:244,1
DA:245,1
DA:246,1
DA:247,1
DA:248,1
DA:249,1
DA:250,1
DA:251,1
DA:252,1
DA:253,1
DA:254,1
DA:255,1
DA:257,31
DA:258,31
DA:260,1
DA:263,1
DA:264,1
DA:265,1
DA:266,1
DA:267,1
DA:268,1
DA:269,1
DA:272,1
DA:273,1
DA:274,1
DA:275,1
DA:277,1
DA:278,1
DA:279,1
DA:280,1
BRF:0
BRH:0
LF:183
LH:164
end_of_record
SF:/Users/samcolak/Source Code/rust/distdb/distdb/serverlib/src/engine/database/inbuilt/numeric/modulo.rs
FN:16,_RNvXNtNtNtNtNtCsksqSOdb1Dlf_9serverlib6engine8database7inbuilt7numeric6moduloNtB2_13ModuloCommandNtNtB6_7command20InbuiltServerCommand4name
FN:20,_RNvXNtNtNtNtNtCsksqSOdb1Dlf_9serverlib6engine8database7inbuilt7numeric6moduloNtB2_13ModuloCommandNtNtB6_7command20InbuiltServerCommand8evaluate
FNDA:2,_RNvXNtNtNtNtNtCsksqSOdb1Dlf_9serverlib6engine8database7inbuilt7numeric6moduloNtB2_13ModuloCommandNtNtB6_7command20InbuiltServerCommand4name
FNDA:2,_RNvXNtNtNtNtNtCsksqSOdb1Dlf_9serverlib6engine8database7inbuilt7numeric6moduloNtB2_13ModuloCommandNtNtB6_7command20InbuiltServerCommand8evaluate
FNF:2
FNH:2
DA:16,2
DA:17,2
DA:18,2
DA:20,2
DA:22,2
DA:24,2
DA:26,2
DA:27,0
DA:30,2
DA:31,0
DA:34,2
DA:35,1
DA:36,1
DA:38,1
DA:40,2
BRF:0
BRH:0
LF:15
LH:13
end_of_record
SF:/Users/samcolak/Source Code/rust/distdb/distdb/serverlib/src/engine/database/inbuilt/numeric/pi.rs
FN:16,_RNvXNtNtNtNtNtCsksqSOdb1Dlf_9serverlib6engine8database7inbuilt7numeric2piNtB2_9PiCommandNtNtB6_7command20InbuiltServerCommand4name
FN:20,_RNvXNtNtNtNtNtCsksqSOdb1Dlf_9serverlib6engine8database7inbuilt7numeric2piNtB2_9PiCommandNtNtB6_7command20InbuiltServerCommand8evaluate
FNDA:3,_RNvXNtNtNtNtNtCsksqSOdb1Dlf_9serverlib6engine8database7inbuilt7numeric2piNtB2_9PiCommandNtNtB6_7command20InbuiltServerCommand4name
FNDA:3,_RNvXNtNtNtNtNtCsksqSOdb1Dlf_9serverlib6engine8database7inbuilt7numeric2piNtB2_9PiCommandNtNtB6_7command20InbuiltServerCommand8evaluate
FNF:2
FNH:2
DA:16,3
DA:17,3
DA:18,3
DA:20,3
DA:22,3
DA:24,3
DA:26,3
DA:28,3
BRF:0
BRH:0
LF:8
LH:8
end_of_record
SF:/Users/samcolak/Source Code/rust/distdb/distdb/serverlib/src/engine/database/inbuilt/numeric/pow.rs
FN:16,_RNvXNtNtNtNtNtCsksqSOdb1Dlf_9serverlib6engine8database7inbuilt7numeric3powNtB2_10PowCommandNtNtB6_7command20InbuiltServerCommand4name
FN:20,_RNvXNtNtNtNtNtCsksqSOdb1Dlf_9serverlib6engine8database7inbuilt7numeric3powNtB2_10PowCommandNtNtB6_7command20InbuiltServerCommand8evaluate
FNDA:1,_RNvXNtNtNtNtNtCsksqSOdb1Dlf_9serverlib6engine8database7inbuilt7numeric3powNtB2_10PowCommandNtNtB6_7command20InbuiltServerCommand4name
FNDA:1,_RNvXNtNtNtNtNtCsksqSOdb1Dlf_9serverlib6engine8database7inbuilt7numeric3powNtB2_10PowCommandNtNtB6_7command20InbuiltServerCommand8evaluate
FNF:2
FNH:2
DA:16,1
DA:17,1
DA:18,1
DA:20,1
DA:22,1
DA:24,1
DA:26,1
DA:27,0
DA:29,1
DA:30,0
DA:33,1
DA:35,1
BRF:0
BRH:0
LF:12
LH:10
end_of_record
SF:/Users/samcolak/Source Code/rust/distdb/distdb/serverlib/src/engine/database/inbuilt/numeric/radians.rs
FN:16,_RNvXNtNtNtNtNtCsksqSOdb1Dlf_9serverlib6engine8database7inbuilt7numeric7radiansNtB2_14RadiansCommandNtNtB6_7command20InbuiltServerCommand4name
FN:20,_RNvXNtNtNtNtNtCsksqSOdb1Dlf_9serverlib6engine8database7inbuilt7numeric7radiansNtB2_14RadiansCommandNtNtB6_7command20InbuiltServerCommand8evaluate
FNDA:1,_RNvXNtNtNtNtNtCsksqSOdb1Dlf_9serverlib6engine8database7inbuilt7numeric7radiansNtB2_14RadiansCommandNtNtB6_7command20InbuiltServerCommand4name
FNDA:1,_RNvXNtNtNtNtNtCsksqSOdb1Dlf_9serverlib6engine8database7inbuilt7numeric7radiansNtB2_14RadiansCommandNtNtB6_7command20InbuiltServerCommand8evaluate
FNF:2
FNH:2
DA:16,1
DA:17,1
DA:18,1
DA:20,1
DA:22,1
DA:24,1
DA:26,1
DA:27,0
DA:30,1
DA:32,1
BRF:0
BRH:0
LF:10
LH:9
end_of_record
SF:/Users/samcolak/Source Code/rust/distdb/distdb/serverlib/src/engine/database/inbuilt/numeric/rand.rs
FN:16,_RNvXNtNtNtNtNtCsksqSOdb1Dlf_9serverlib6engine8database7inbuilt7numeric4randNtB2_11RandCommandNtNtB6_7command20InbuiltServerCommand4name
FN:20,_RNvXNtNtNtNtNtCsksqSOdb1Dlf_9serverlib6engine8database7inbuilt7numeric4randNtB2_11RandCommandNtNtB6_7command20InbuiltServerCommand8evaluate
FNDA:3,_RNvXNtNtNtNtNtCsksqSOdb1Dlf_9serverlib6engine8database7inbuilt7numeric4randNtB2_11RandCommandNtNtB6_7command20InbuiltServerCommand4name
FNDA:3,_RNvXNtNtNtNtNtCsksqSOdb1Dlf_9serverlib6engine8database7inbuilt7numeric4randNtB2_11RandCommandNtNtB6_7command20InbuiltServerCommand8evaluate
FNF:2
FNH:2
DA:16,3
DA:17,3
DA:18,3
DA:20,3
DA:22,3
DA:24,3
DA:26,3
DA:27,1
DA:29,2
DA:30,0
DA:32,2
DA:35,3
DA:37,3
BRF:0
BRH:0
LF:13
LH:12
end_of_record
SF:/Users/samcolak/Source Code/rust/distdb/distdb/serverlib/src/engine/database/inbuilt/numeric/round.rs
FN:16,_RNvXNtNtNtNtNtCsksqSOdb1Dlf_9serverlib6engine8database7inbuilt7numeric5roundNtB2_12RoundCommandNtNtB6_7command20InbuiltServerCommand4name
FN:20,_RNvXNtNtNtNtNtCsksqSOdb1Dlf_9serverlib6engine8database7inbuilt7numeric5roundNtB2_12RoundCommandNtNtB6_7command20InbuiltServerCommand8evaluate
FNDA:8,_RNvXNtNtNtNtNtCsksqSOdb1Dlf_9serverlib6engine8database7inbuilt7numeric5roundNtB2_12RoundCommandNtNtB6_7command20InbuiltServerCommand4name
FNDA:8,_RNvXNtNtNtNtNtCsksqSOdb1Dlf_9serverlib6engine8database7inbuilt7numeric5roundNtB2_12RoundCommandNtNtB6_7command20InbuiltServerCommand8evaluate
FNF:2
FNH:2
DA:16,8
DA:17,8
DA:18,8
DA:20,8
DA:22,8
DA:24,8
DA:26,8
DA:27,0
DA:29,8
DA:30,8
DA:31,0
DA:33,8
DA:35,0
DA:38,8
DA:40,8
BRF:0
BRH:0
LF:15
LH:12
end_of_record
SF:/Users/samcolak/Source Code/rust/distdb/distdb/serverlib/src/engine/database/inbuilt/numeric/sign.rs
FN:16,_RNvXNtNtNtNtNtCsksqSOdb1Dlf_9serverlib6engine8database7inbuilt7numeric4signNtB2_11SignCommandNtNtB6_7command20InbuiltServerCommand4name
FN:20,_RNvXNtNtNtNtNtCsksqSOdb1Dlf_9serverlib6engine8database7inbuilt7numeric4signNtB2_11SignCommandNtNtB6_7command20InbuiltServerCommand8evaluate
FNDA:1,_RNvXNtNtNtNtNtCsksqSOdb1Dlf_9serverlib6engine8database7inbuilt7numeric4signNtB2_11SignCommandNtNtB6_7command20InbuiltServerCommand4name
FNDA:1,_RNvXNtNtNtNtNtCsksqSOdb1Dlf_9serverlib6engine8database7inbuilt7numeric4signNtB2_11SignCommandNtNtB6_7command20InbuiltServerCommand8evaluate
FNF:2
FNH:2
DA:16,1
DA:17,1
DA:18,1
DA:20,1
DA:22,1
DA:24,1
DA:26,1
DA:27,0
DA:29,1
DA:30,0
DA:31,1
DA:32,1
DA:34,0
DA:37,1
DA:39,1
BRF:0
BRH:0
LF:15
LH:12
end_of_record
SF:/Users/samcolak/Source Code/rust/distdb/distdb/serverlib/src/engine/database/inbuilt/numeric/sin.rs
FN:16,_RNvXNtNtNtNtNtCsksqSOdb1Dlf_9serverlib6engine8database7inbuilt7numeric3sinNtB2_10SinCommandNtNtB6_7command20InbuiltServerCommand4name
FN:20,_RNvXNtNtNtNtNtCsksqSOdb1Dlf_9serverlib6engine8database7inbuilt7numeric3sinNtB2_10SinCommandNtNtB6_7command20InbuiltServerCommand8evaluate
FNDA:1,_RNvXNtNtNtNtNtCsksqSOdb1Dlf_9serverlib6engine8database7inbuilt7numeric3sinNtB2_10SinCommandNtNtB6_7command20InbuiltServerCommand4name
FNDA:1,_RNvXNtNtNtNtNtCsksqSOdb1Dlf_9serverlib6engine8database7inbuilt7numeric3sinNtB2_10SinCommandNtNtB6_7command20InbuiltServerCommand8evaluate
FNF:2
FNH:2
DA:16,1
DA:17,1
DA:18,1
DA:20,1
DA:22,1
DA:24,1
DA:26,1
DA:27,0
DA:30,1
DA:32,1
BRF:0
BRH:0
LF:10
LH:9
end_of_record
SF:/Users/samcolak/Source Code/rust/distdb/distdb/serverlib/src/engine/database/inbuilt/numeric/sqrt.rs
FN:16,_RNvXNtNtNtNtNtCsksqSOdb1Dlf_9serverlib6engine8database7inbuilt7numeric4sqrtNtB2_11SqrtCommandNtNtB6_7command20InbuiltServerCommand4name
FN:20,_RNvXNtNtNtNtNtCsksqSOdb1Dlf_9serverlib6engine8database7inbuilt7numeric4sqrtNtB2_11SqrtCommandNtNtB6_7command20InbuiltServerCommand8evaluate
FNDA:2,_RNvXNtNtNtNtNtCsksqSOdb1Dlf_9serverlib6engine8database7inbuilt7numeric4sqrtNtB2_11SqrtCommandNtNtB6_7command20InbuiltServerCommand4name
FNDA:2,_RNvXNtNtNtNtNtCsksqSOdb1Dlf_9serverlib6engine8database7inbuilt7numeric4sqrtNtB2_11SqrtCommandNtNtB6_7command20InbuiltServerCommand8evaluate
FNF:2
FNH:2
DA:16,2
DA:17,2
DA:18,2
DA:20,2
DA:22,2
DA:24,2
DA:26,2
DA:27,0
DA:30,2
DA:31,1
DA:32,1
DA:34,1
DA:36,2
BRF:0
BRH:0
LF:13
LH:12
end_of_record
SF:/Users/samcolak/Source Code/rust/distdb/distdb/serverlib/src/engine/database/inbuilt/numeric/sum.rs
FN:16,_RNvXNtNtNtNtNtCsksqSOdb1Dlf_9serverlib6engine8database7inbuilt7numeric3sumNtB2_10SumCommandNtNtB6_7command20InbuiltServerCommand4name
FN:20,_RNvXNtNtNtNtNtCsksqSOdb1Dlf_9serverlib6engine8database7inbuilt7numeric3sumNtB2_10SumCommandNtNtB6_7command20InbuiltServerCommand8evaluate
FNDA:1,_RNvXNtNtNtNtNtCsksqSOdb1Dlf_9serverlib6engine8database7inbuilt7numeric3sumNtB2_10SumCommandNtNtB6_7command20InbuiltServerCommand4name
FNDA:1,_RNvXNtNtNtNtNtCsksqSOdb1Dlf_9serverlib6engine8database7inbuilt7numeric3sumNtB2_10SumCommandNtNtB6_7command20InbuiltServerCommand8evaluate
FNF:2
FNH:2
DA:16,1
DA:17,1
DA:18,1
DA:20,1
DA:22,1
DA:24,1
DA:26,1
DA:27,1
DA:28,1
DA:29,1
DA:31,1
DA:32,0
DA:33,1
DA:35,1
DA:37,1
BRF:0
BRH:0
LF:15
LH:14
end_of_record
SF:/Users/samcolak/Source Code/rust/distdb/distdb/serverlib/src/engine/database/inbuilt/numeric/tan.rs
FN:16,_RNvXNtNtNtNtNtCsksqSOdb1Dlf_9serverlib6engine8database7inbuilt7numeric3tanNtB2_10TanCommandNtNtB6_7command20InbuiltServerCommand4name
FN:20,_RNvXNtNtNtNtNtCsksqSOdb1Dlf_9serverlib6engine8database7inbuilt7numeric3tanNtB2_10TanCommandNtNtB6_7command20InbuiltServerCommand8evaluate
FNDA:1,_RNvXNtNtNtNtNtCsksqSOdb1Dlf_9serverlib6engine8database7inbuilt7numeric3tanNtB2_10TanCommandNtNtB6_7command20InbuiltServerCommand4name
FNDA:1,_RNvXNtNtNtNtNtCsksqSOdb1Dlf_9serverlib6engine8database7inbuilt7numeric3tanNtB2_10TanCommandNtNtB6_7command20InbuiltServerCommand8evaluate
FNF:2
FNH:2
DA:16,1
DA:17,1
DA:18,1
DA:20,1
DA:22,1
DA:24,1
DA:26,1
DA:27,0
DA:30,1
DA:32,1
BRF:0
BRH:0
LF:10
LH:9
end_of_record
SF:/Users/samcolak/Source Code/rust/distdb/distdb/serverlib/src/engine/database/inbuilt/numeric/truncate.rs
FN:16,_RNvXNtNtNtNtNtCsksqSOdb1Dlf_9serverlib6engine8database7inbuilt7numeric8truncateNtB2_15TruncateCommandNtNtB6_7command20InbuiltServerCommand4name
FN:20,_RNvXNtNtNtNtNtCsksqSOdb1Dlf_9serverlib6engine8database7inbuilt7numeric8truncateNtB2_15TruncateCommandNtNtB6_7command20InbuiltServerCommand8evaluate
FNDA:1,_RNvXNtNtNtNtNtCsksqSOdb1Dlf_9serverlib6engine8database7inbuilt7numeric8truncateNtB2_15TruncateCommandNtNtB6_7command20InbuiltServerCommand4name
FNDA:1,_RNvXNtNtNtNtNtCsksqSOdb1Dlf_9serverlib6engine8database7inbuilt7numeric8truncateNtB2_15TruncateCommandNtNtB6_7command20InbuiltServerCommand8evaluate
FNF:2
FNH:2
DA:16,1
DA:17,1
DA:18,1
DA:20,1
DA:22,1
DA:24,1
DA:26,1
DA:27,0
DA:30,1
DA:31,0
DA:34,1
DA:36,1
BRF:0
BRH:0
LF:12
LH:10
end_of_record
SF:/Users/samcolak/Source Code/rust/distdb/distdb/serverlib/src/engine/database/inbuilt/strings/ascii.rs
FN:16,_RNvXNtNtNtNtNtCsksqSOdb1Dlf_9serverlib6engine8database7inbuilt7strings5asciiNtB2_12AsciiCommandNtNtB6_7command20InbuiltServerCommand4name
FN:20,_RNvXNtNtNtNtNtCsksqSOdb1Dlf_9serverlib6engine8database7inbuilt7strings5asciiNtB2_12AsciiCommandNtNtB6_7command20InbuiltServerCommand8evaluate
FNDA:1,_RNvXNtNtNtNtNtCsksqSOdb1Dlf_9serverlib6engine8database7inbuilt7strings5asciiNtB2_12AsciiCommandNtNtB6_7command20InbuiltServerCommand4name
FNDA:1,_RNvXNtNtNtNtNtCsksqSOdb1Dlf_9serverlib6engine8database7inbuilt7strings5asciiNtB2_12AsciiCommandNtNtB6_7command20InbuiltServerCommand8evaluate
FNF:2
FNH:2
DA:16,1
DA:17,1
DA:18,1
DA:20,1
DA:22,1
DA:24,1
DA:26,1
DA:27,0
DA:30,1
DA:32,1
DA:34,1
BRF:0
BRH:0
LF:11
LH:10
end_of_record
SF:/Users/samcolak/Source Code/rust/distdb/distdb/serverlib/src/engine/database/inbuilt/strings/char_length.rs
FN:16,_RNvXNtNtNtNtNtCsksqSOdb1Dlf_9serverlib6engine8database7inbuilt7strings11char_lengthNtB2_17CharLengthCommandNtNtB6_7command20InbuiltServerCommand4name
FN:20,_RNvXNtNtNtNtNtCsksqSOdb1Dlf_9serverlib6engine8database7inbuilt7strings11char_lengthNtB2_17CharLengthCommandNtNtB6_7command20InbuiltServerCommand8evaluate
FNDA:1,_RNvXNtNtNtNtNtCsksqSOdb1Dlf_9serverlib6engine8database7inbuilt7strings11char_lengthNtB2_17CharLengthCommandNtNtB6_7command20InbuiltServerCommand4name
FNDA:1,_RNvXNtNtNtNtNtCsksqSOdb1Dlf_9serverlib6engine8database7inbuilt7strings11char_lengthNtB2_17CharLengthCommandNtNtB6_7command20InbuiltServerCommand8evaluate
FNF:2
FNH:2
DA:16,1
DA:17,1
DA:18,1
DA:20,1
DA:22,1
DA:24,1
DA:26,1
DA:27,0
DA:30,1
DA:32,1
BRF:0
BRH:0
LF:10
LH:9
end_of_record
SF:/Users/samcolak/Source Code/rust/distdb/distdb/serverlib/src/engine/database/inbuilt/strings/concat.rs
FN:10,_RNvXNtNtNtNtNtCsksqSOdb1Dlf_9serverlib6engine8database7inbuilt7strings6concatNtB2_13ConcatCommandNtNtB6_7command20InbuiltServerCommand4name
FN:14,_RNvXNtNtNtNtNtCsksqSOdb1Dlf_9serverlib6engine8database7inbuilt7strings6concatNtB2_13ConcatCommandNtNtB6_7command20InbuiltServerCommand8evaluate
FNDA:0,_RNvXNtNtNtNtNtCsksqSOdb1Dlf_9serverlib6engine8database7inbuilt7strings6concatNtB2_13ConcatCommandNtNtB6_7command20InbuiltServerCommand4name
FNDA:12,_RNvXNtNtNtNtNtCsksqSOdb1Dlf_9serverlib6engine8database7inbuilt7strings6concatNtB2_13ConcatCommandNtNtB6_7command20InbuiltServerCommand8evaluate
FNF:2
FNH:1
DA:10,0
DA:11,0
DA:12,0
DA:14,12
DA:16,12
DA:18,12
DA:19,0
DA:20,12
DA:22,12
DA:24,24
DA:26,24
DA:28,24
DA:30,1
DA:33,23
DA:37,11
DA:39,12
BRF:0
BRH:0
LF:16
LH:12
end_of_record
SF:/Users/samcolak/Source Code/rust/distdb/distdb/serverlib/src/engine/database/inbuilt/strings/concat_w.rs
FN:16,_RNvXNtNtNtNtNtCsksqSOdb1Dlf_9serverlib6engine8database7inbuilt7strings8concat_wNtB2_14ConcatWCommandNtNtB6_7command20InbuiltServerCommand4name
FN:20,_RNvXNtNtNtNtNtCsksqSOdb1Dlf_9serverlib6engine8database7inbuilt7strings8concat_wNtB2_14ConcatWCommandNtNtB6_7command20InbuiltServerCommand8evaluate
FNDA:2,_RNvXNtNtNtNtNtCsksqSOdb1Dlf_9serverlib6engine8database7inbuilt7strings8concat_wNtB2_14ConcatWCommandNtNtB6_7command20InbuiltServerCommand4name
FNDA:2,_RNvXNtNtNtNtNtCsksqSOdb1Dlf_9serverlib6engine8database7inbuilt7strings8concat_wNtB2_14ConcatWCommandNtNtB6_7command20InbuiltServerCommand8evaluate
FNF:2
FNH:2
DA:16,2
DA:17,2
DA:18,2
DA:20,2
DA:22,2
DA:24,2
DA:26,2
DA:27,1
DA:30,1
DA:32,3
DA:33,3
DA:34,2
DA:35,2
DA:38,1
DA:40,2
BRF:0
BRH:0
LF:15
LH:15
end_of_record
SF:/Users/samcolak/Source Code/rust/distdb/distdb/serverlib/src/engine/database/inbuilt/strings/field.rs
FN:14,_RNvXNtNtNtNtNtCsksqSOdb1Dlf_9serverlib6engine8database7inbuilt7strings5fieldNtB2_12FieldCommandNtNtB6_7command20InbuiltServerCommand4name
FN:18,_RNvXNtNtNtNtNtCsksqSOdb1Dlf_9serverlib6engine8database7inbuilt7strings5fieldNtB2_12FieldCommandNtNtB6_7command20InbuiltServerCommand8evaluate
FNDA:1,_RNvXNtNtNtNtNtCsksqSOdb1Dlf_9serverlib6engine8database7inbuilt7strings5fieldNtB2_12FieldCommandNtNtB6_7command20InbuiltServerCommand4name
FNDA:1,_RNvXNtNtNtNtNtCsksqSOdb1Dlf_9serverlib6engine8database7inbuilt7strings5fieldNtB2_12FieldCommandNtNtB6_7command20InbuiltServerCommand8evaluate
FNF:2
FNH:2
DA:14,1
DA:15,1
DA:16,1
DA:18,1
DA:20,1
DA:22,1
DA:24,1
DA:25,0
DA:28,1
DA:30,2
DA:31,2
DA:32,2
DA:33,1
DA:34,1
DA:37,0
DA:39,1
BRF:0
BRH:0
LF:16
LH:14
end_of_record
SF:/Users/samcolak/Source Code/rust/distdb/distdb/serverlib/src/engine/database/inbuilt/strings/find_in_set.rs
FN:40,_RNCNvXNtNtNtNtNtCsksqSOdb1Dlf_9serverlib6engine8database7inbuilt7strings11find_in_setNtB4_16FindInSetCommandNtNtB8_7command20InbuiltServerCommand8evaluate0Be_
FN:41,_RNCNvXNtNtNtNtNtCsksqSOdb1Dlf_9serverlib6engine8database7inbuilt7strings11find_in_setNtB4_16FindInSetCommandNtNtB8_7command20InbuiltServerCommand8evaluates_0Be_
FN:14,_RNvXNtNtNtNtNtCsksqSOdb1Dlf_9serverlib6engine8database7inbuilt7strings11find_in_setNtB2_16FindInSetCommandNtNtB6_7command20InbuiltServerCommand4name
FN:18,_RNvXNtNtNtNtNtCsksqSOdb1Dlf_9serverlib6engine8database7inbuilt7strings11find_in_setNtB2_16FindInSetCommandNtNtB6_7command20InbuiltServerCommand8evaluate
FNDA:2,_RNCNvXNtNtNtNtNtCsksqSOdb1Dlf_9serverlib6engine8database7inbuilt7strings11find_in_setNtB4_16FindInSetCommandNtNtB8_7command20InbuiltServerCommand8evaluate0Be_
FNDA:1,_RNCNvXNtNtNtNtNtCsksqSOdb1Dlf_9serverlib6engine8database7inbuilt7strings11find_in_setNtB4_16FindInSetCommandNtNtB8_7command20InbuiltServerCommand8evaluates_0Be_
FNDA:2,_RNvXNtNtNtNtNtCsksqSOdb1Dlf_9serverlib6engine8database7inbuilt7strings11find_in_setNtB2_16FindInSetCommandNtNtB6_7command20InbuiltServerCommand4name
FNDA:2,_RNvXNtNtNtNtNtCsksqSOdb1Dlf_9serverlib6engine8database7inbuilt7strings11find_in_setNtB2_16FindInSetCommandNtNtB6_7command20InbuiltServerCommand8evaluate
FNF:4
FNH:4
DA:14,2
DA:15,2
DA:16,2
DA:18,2
DA:20,2
DA:22,2
DA:24,2
DA:25,1
DA:28,1
DA:29,0
DA:32,1
DA:33,0
DA:34,1
DA:36,1
DA:38,1
DA:39,1
DA:40,2
DA:41,1
DA:42,1
DA:44,1
DA:46,2
BRF:0
BRH:0
LF:23
LH:21
end_of_record
SF:/Users/samcolak/Source Code/rust/distdb/distdb/serverlib/src/engine/database/inbuilt/strings/format.rs
FN:14,_RNvXNtNtNtNtNtCsksqSOdb1Dlf_9serverlib6engine8database7inbuilt7strings6formatNtB2_13FormatCommandNtNtB6_7command20InbuiltServerCommand4name
FN:18,_RNvXNtNtNtNtNtCsksqSOdb1Dlf_9serverlib6engine8database7inbuilt7strings6formatNtB2_13FormatCommandNtNtB6_7command20InbuiltServerCommand8evaluate
FNDA:1,_RNvXNtNtNtNtNtCsksqSOdb1Dlf_9serverlib6engine8database7inbuilt7strings6formatNtB2_13FormatCommandNtNtB6_7command20InbuiltServerCommand4name
FNDA:1,_RNvXNtNtNtNtNtCsksqSOdb1Dlf_9serverlib6engine8database7inbuilt7strings6formatNtB2_13FormatCommandNtNtB6_7command20InbuiltServerCommand8evaluate
FNF:2
FNH:2
DA:14,1
DA:15,1
DA:16,1
DA:18,1
DA:20,1
DA:22,1
DA:24,1
DA:25,0
DA:28,1
DA:29,0
DA:32,1
DA:33,0
DA:34,0
DA:36,0
DA:38,1
DA:41,1
DA:43,1
BRF:0
BRH:0
LF:17
LH:12
end_of_record
SF:/Users/samcolak/Source Code/rust/distdb/distdb/serverlib/src/engine/database/inbuilt/strings/insert.rs
FN:14,_RNvXNtNtNtNtNtCsksqSOdb1Dlf_9serverlib6engine8database7inbuilt7strings6insertNtB2_13InsertCommandNtNtB6_7command20InbuiltServerCommand4name
FN:18,_RNvXNtNtNtNtNtCsksqSOdb1Dlf_9serverlib6engine8database7inbuilt7strings6insertNtB2_13InsertCommandNtNtB6_7command20InbuiltServerCommand8evaluate
FNDA:1,_RNvXNtNtNtNtNtCsksqSOdb1Dlf_9serverlib6engine8database7inbuilt7strings6insertNtB2_13InsertCommandNtNtB6_7command20InbuiltServerCommand4name
FNDA:1,_RNvXNtNtNtNtNtCsksqSOdb1Dlf_9serverlib6engine8database7inbuilt7strings6insertNtB2_13InsertCommandNtNtB6_7command20InbuiltServerCommand8evaluate
FNF:2
FNH:2
DA:14,1
DA:15,1
DA:16,1
DA:18,1
DA:20,1
DA:22,1
DA:24,1
DA:25,0
DA:28,1
DA:29,0
DA:32,1
DA:33,0
DA:36,1
DA:37,0
DA:40,1
DA:42,1
BRF:0
BRH:0
LF:16
LH:12
end_of_record
SF:/Users/samcolak/Source Code/rust/distdb/distdb/serverlib/src/engine/database/inbuilt/strings/instr.rs
FN:16,_RNvXNtNtNtNtNtCsksqSOdb1Dlf_9serverlib6engine8database7inbuilt7strings5instrNtB2_12InstrCommandNtNtB6_7command20InbuiltServerCommand4name
FN:20,_RNvXNtNtNtNtNtCsksqSOdb1Dlf_9serverlib6engine8database7inbuilt7strings5instrNtB2_12InstrCommandNtNtB6_7command20InbuiltServerCommand8evaluate
FNDA:1,_RNvXNtNtNtNtNtCsksqSOdb1Dlf_9serverlib6engine8database7inbuilt7strings5instrNtB2_12InstrCommandNtNtB6_7command20InbuiltServerCommand4name
FNDA:1,_RNvXNtNtNtNtNtCsksqSOdb1Dlf_9serverlib6engine8database7inbuilt7strings5instrNtB2_12InstrCommandNtNtB6_7command20InbuiltServerCommand8evaluate
FNF:2
FNH:2
DA:16,1
DA:17,1
DA:18,1
DA:20,1
DA:22,1
DA:24,1
DA:26,1
DA:27,0
DA:30,1
DA:31,0
DA:34,1
DA:36,1
BRF:0
BRH:0
LF:12
LH:10
end_of_record
SF:/Users/samcolak/Source Code/rust/distdb/distdb/serverlib/src/engine/database/inbuilt/strings/left.rs
FN:16,_RNvXNtNtNtNtNtCsksqSOdb1Dlf_9serverlib6engine8database7inbuilt7strings4leftNtB2_11LeftCommandNtNtB6_7command20InbuiltServerCommand4name
FN:20,_RNvXNtNtNtNtNtCsksqSOdb1Dlf_9serverlib6engine8database7inbuilt7strings4leftNtB2_11LeftCommandNtNtB6_7command20InbuiltServerCommand8evaluate
FNDA:1,_RNvXNtNtNtNtNtCsksqSOdb1Dlf_9serverlib6engine8database7inbuilt7strings4leftNtB2_11LeftCommandNtNtB6_7command20InbuiltServerCommand4name
FNDA:1,_RNvXNtNtNtNtNtCsksqSOdb1Dlf_9serverlib6engine8database7inbuilt7strings4leftNtB2_11LeftCommandNtNtB6_7command20InbuiltServerCommand8evaluate
FNF:2
FNH:2
DA:16,1
DA:17,1
DA:18,1
DA:20,1
DA:22,1
DA:24,1
DA:26,1
DA:27,0
DA:30,1
DA:31,0
DA:34,1
DA:36,1
BRF:0
BRH:0
LF:12
LH:10
end_of_record
SF:/Users/samcolak/Source Code/rust/distdb/distdb/serverlib/src/engine/database/inbuilt/strings/length.rs
FN:16,_RNvXNtNtNtNtNtCsksqSOdb1Dlf_9serverlib6engine8database7inbuilt7strings6lengthNtB2_13LengthCommandNtNtB6_7command20InbuiltServerCommand4name
FN:20,_RNvXNtNtNtNtNtCsksqSOdb1Dlf_9serverlib6engine8database7inbuilt7strings6lengthNtB2_13LengthCommandNtNtB6_7command20InbuiltServerCommand8evaluate
FNDA:1,_RNvXNtNtNtNtNtCsksqSOdb1Dlf_9serverlib6engine8database7inbuilt7strings6lengthNtB2_13LengthCommandNtNtB6_7command20InbuiltServerCommand4name
FNDA:1,_RNvXNtNtNtNtNtCsksqSOdb1Dlf_9serverlib6engine8database7inbuilt7strings6lengthNtB2_13LengthCommandNtNtB6_7command20InbuiltServerCommand8evaluate
FNF:2
FNH:2
DA:16,1
DA:17,1
DA:18,1
DA:20,1
DA:22,1
DA:24,1
DA:26,1
DA:27,0
DA:30,1
DA:32,1
BRF:0
BRH:0
LF:10
LH:9
end_of_record
SF:/Users/samcolak/Source Code/rust/distdb/distdb/serverlib/src/engine/database/inbuilt/strings/locate.rs
FN:16,_RNvXNtNtNtNtNtCsksqSOdb1Dlf_9serverlib6engine8database7inbuilt7strings6locateNtB2_13LocateCommandNtNtB6_7command20InbuiltServerCommand4name
FN:20,_RNvXNtNtNtNtNtCsksqSOdb1Dlf_9serverlib6engine8database7inbuilt7strings6locateNtB2_13LocateCommandNtNtB6_7command20InbuiltServerCommand8evaluate
FNDA:1,_RNvXNtNtNtNtNtCsksqSOdb1Dlf_9serverlib6engine8database7inbuilt7strings6locateNtB2_13LocateCommandNtNtB6_7command20InbuiltServerCommand4name
FNDA:1,_RNvXNtNtNtNtNtCsksqSOdb1Dlf_9serverlib6engine8database7inbuilt7strings6locateNtB2_13LocateCommandNtNtB6_7command20InbuiltServerCommand8evaluate
FNF:2
FNH:2
DA:16,1
DA:17,1
DA:18,1
DA:20,1
DA:22,1
DA:24,1
DA:26,1
DA:27,0
DA:30,1
DA:31,0
DA:34,1
DA:35,0
DA:36,0
DA:38,0
DA:40,1
DA:43,1
DA:45,1
BRF:0
BRH:0
LF:17
LH:12
end_of_record
SF:/Users/samcolak/Source Code/rust/distdb/distdb/serverlib/src/engine/database/inbuilt/strings/lower.rs
FN:16,_RNvXNtNtNtNtNtCsksqSOdb1Dlf_9serverlib6engine8database7inbuilt7strings5lowerNtB2_12LowerCommandNtNtB6_7command20InbuiltServerCommand4name
FN:20,_RNvXNtNtNtNtNtCsksqSOdb1Dlf_9serverlib6engine8database7inbuilt7strings5lowerNtB2_12LowerCommandNtNtB6_7command20InbuiltServerCommand8evaluate
FNDA:3,_RNvXNtNtNtNtNtCsksqSOdb1Dlf_9serverlib6engine8database7inbuilt7strings5lowerNtB2_12LowerCommandNtNtB6_7command20InbuiltServerCommand4name
FNDA:3,_RNvXNtNtNtNtNtCsksqSOdb1Dlf_9serverlib6engine8database7inbuilt7strings5lowerNtB2_12LowerCommandNtNtB6_7command20InbuiltServerCommand8evaluate
FNF:2
FNH:2
DA:16,3
DA:17,3
DA:18,3
DA:20,3
DA:22,3
DA:24,3
DA:26,3
DA:27,0
DA:30,3
DA:32,3
BRF:0
BRH:0
LF:10
LH:9
end_of_record
SF:/Users/samcolak/Source Code/rust/distdb/distdb/serverlib/src/engine/database/inbuilt/strings/lpad.rs
FN:16,_RNvXNtNtNtNtNtCsksqSOdb1Dlf_9serverlib6engine8database7inbuilt7strings4lpadNtB2_11LpadCommandNtNtB6_7command20InbuiltServerCommand4name
FN:20,_RNvXNtNtNtNtNtCsksqSOdb1Dlf_9serverlib6engine8database7inbuilt7strings4lpadNtB2_11LpadCommandNtNtB6_7command20InbuiltServerCommand8evaluate
FN:38,_RNCNvXNtNtNtNtNtCsksqSOdb1Dlf_9serverlib6engine8database7inbuilt7strings4lpadNtB4_11LpadCommandNtNtB8_7command20InbuiltServerCommand8evaluate0Be_
FNDA:1,_RNvXNtNtNtNtNtCsksqSOdb1Dlf_9serverlib6engine8database7inbuilt7strings4lpadNtB2_11LpadCommandNtNtB6_7command20InbuiltServerCommand4name
FNDA:1,_RNvXNtNtNtNtNtCsksqSOdb1Dlf_9serverlib6engine8database7inbuilt7strings4lpadNtB2_11LpadCommandNtNtB6_7command20InbuiltServerCommand8evaluate
FNDA:1,_RNCNvXNtNtNtNtNtCsksqSOdb1Dlf_9serverlib6engine8database7inbuilt7strings4lpadNtB4_11LpadCommandNtNtB8_7command20InbuiltServerCommand8evaluate0Be_
FNF:3
FNH:3
DA:16,1
DA:17,1
DA:18,1
DA:20,1
DA:22,1
DA:24,1
DA:26,1
DA:27,0
DA:30,1
DA:31,0
DA:34,1
DA:35,0
DA:38,1
DA:40,1
BRF:0
BRH:0
LF:15
LH:12
end_of_record
SF:/Users/samcolak/Source Code/rust/distdb/distdb/serverlib/src/engine/database/inbuilt/strings/ltrim.rs
FN:16,_RNvXNtNtNtNtNtCsksqSOdb1Dlf_9serverlib6engine8database7inbuilt7strings5ltrimNtB2_12LtrimCommandNtNtB6_7command20InbuiltServerCommand4name
FN:20,_RNvXNtNtNtNtNtCsksqSOdb1Dlf_9serverlib6engine8database7inbuilt7strings5ltrimNtB2_12LtrimCommandNtNtB6_7command20InbuiltServerCommand8evaluate
FNDA:1,_RNvXNtNtNtNtNtCsksqSOdb1Dlf_9serverlib6engine8database7inbuilt7strings5ltrimNtB2_12LtrimCommandNtNtB6_7command20InbuiltServerCommand4name
FNDA:1,_RNvXNtNtNtNtNtCsksqSOdb1Dlf_9serverlib6engine8database7inbuilt7strings5ltrimNtB2_12LtrimCommandNtNtB6_7command20InbuiltServerCommand8evaluate
FNF:2
FNH:2
DA:16,1
DA:17,1
DA:18,1
DA:20,1
DA:22,1
DA:24,1
DA:26,1
DA:27,0
DA:30,1
DA:32,1
BRF:0
BRH:0
LF:10
LH:9
end_of_record
SF:/Users/samcolak/Source Code/rust/distdb/distdb/serverlib/src/engine/database/inbuilt/strings/mid.rs
FN:16,_RNvXNtNtNtNtNtCsksqSOdb1Dlf_9serverlib6engine8database7inbuilt7strings3midNtB2_10MidCommandNtNtB6_7command20InbuiltServerCommand4name
FN:20,_RNvXNtNtNtNtNtCsksqSOdb1Dlf_9serverlib6engine8database7inbuilt7strings3midNtB2_10MidCommandNtNtB6_7command20InbuiltServerCommand8evaluate
FNDA:1,_RNvXNtNtNtNtNtCsksqSOdb1Dlf_9serverlib6engine8database7inbuilt7strings3midNtB2_10MidCommandNtNtB6_7command20InbuiltServerCommand4name
FNDA:1,_RNvXNtNtNtNtNtCsksqSOdb1Dlf_9serverlib6engine8database7inbuilt7strings3midNtB2_10MidCommandNtNtB6_7command20InbuiltServerCommand8evaluate
FNF:2
FNH:2
DA:16,1
DA:17,1
DA:18,1
DA:20,1
DA:22,1
DA:24,1
DA:26,1
DA:27,0
DA:30,1
DA:31,0
DA:34,1
DA:35,1
DA:36,0
DA:38,1
DA:40,0
DA:43,1
DA:45,1
BRF:0
BRH:0
LF:17
LH:13
end_of_record
SF:/Users/samcolak/Source Code/rust/distdb/distdb/serverlib/src/engine/database/inbuilt/strings/mod.rs
FN:403,_RNCNvNtNtNtNtNtCsksqSOdb1Dlf_9serverlib6engine8database7inbuilt7strings5tests19evaluate_expression0Bd_
FN:101,_RINvNtNtNtNtCsksqSOdb1Dlf_9serverlib6engine8database7inbuilt7strings13number_resulthEBa_
FN:101,_RINvNtNtNtNtCsksqSOdb1Dlf_9serverlib6engine8database7inbuilt7strings13number_resultjEBa_
FN:101,_RINvNtNtNtNtCsksqSOdb1Dlf_9serverlib6engine8database7inbuilt7strings13number_resultlEBa_
FN:97,_RINvNtNtNtNtCsksqSOdb1Dlf_9serverlib6engine8database7inbuilt7strings13string_resultNtNtCslDfkGcRelIg_5alloc6string6StringEBa_
FN:94,_RNCNvNtNtNtNtCsksqSOdb1Dlf_9serverlib6engine8database7inbuilt7strings16evaluate_f64_arg0Bb_
FN:82,_RNCNvNtNtNtNtCsksqSOdb1Dlf_9serverlib6engine8database7inbuilt7strings16evaluate_i64_arg0Bb_
FN:342,_RNCNvNtNtNtNtCsksqSOdb1Dlf_9serverlib6engine8database7inbuilt7strings17locale_separators0Bb_
FN:70,_RNCNvNtNtNtNtCsksqSOdb1Dlf_9serverlib6engine8database7inbuilt7strings19evaluate_string_arg0Bb_
FN:381,_RNvNtNtNtNtNtCsksqSOdb1Dlf_9serverlib6engine8database7inbuilt7strings5tests19evaluate_expression
FN:407,_RNvNtNtNtNtNtCsksqSOdb1Dlf_9serverlib6engine8database7inbuilt7strings5testss_46string_function_registry_exposes_mysql_aliases
FN:422,_RNvNtNtNtNtNtCsksqSOdb1Dlf_9serverlib6engine8database7inbuilt7strings5testss_52evaluate_string_functions_matches_mysql_like_samples
FN:460,_RNvNtNtNtNtNtCsksqSOdb1Dlf_9serverlib6engine8database7inbuilt7strings5testss_54string_functions_propagate_null_when_mysql_requires_it
FN:105,_RNvNtNtNtNtCsksqSOdb1Dlf_9serverlib6engine8database7inbuilt7strings10char_count
FN:109,_RNvNtNtNtNtCsksqSOdb1Dlf_9serverlib6engine8database7inbuilt7strings10left_chars
FN:242,_RNvNtNtNtNtCsksqSOdb1Dlf_9serverlib6engine8database7inbuilt7strings10trim_exact
FN:117,_RNvNtNtNtNtCsksqSOdb1Dlf_9serverlib6engine8database7inbuilt7strings11right_chars
FN:238,_RNvNtNtNtNtCsksqSOdb1Dlf_9serverlib6engine8database7inbuilt7strings11trim_spaces
FN:162,_RNvNtNtNtNtCsksqSOdb1Dlf_9serverlib6engine8database7inbuilt7strings12insert_mysql
FN:356,_RNvNtNtNtNtCsksqSOdb1Dlf_9serverlib6engine8database7inbuilt7strings13group_integer
FN:133,_RNvNtNtNtNtCsksqSOdb1Dlf_9serverlib6engine8database7inbuilt7strings15substring_mysql
FN:85,_RNvNtNtNtNtCsksqSOdb1Dlf_9serverlib6engine8database7inbuilt7strings16evaluate_f64_arg
FN:73,_RNvNtNtNtNtCsksqSOdb1Dlf_9serverlib6engine8database7inbuilt7strings16evaluate_i64_arg
FN:34,_RNvNtNtNtNtCsksqSOdb1Dlf_9serverlib6engine8database7inbuilt7strings16expect_arg_count
FN:319,_RNvNtNtNtNtCsksqSOdb1Dlf_9serverlib6engine8database7inbuilt7strings16repeat_to_length
FN:340,_RNvNtNtNtNtCsksqSOdb1Dlf_9serverlib6engine8database7inbuilt7strings17locale_separators
FN:330,_RNvNtNtNtNtCsksqSOdb1Dlf_9serverlib6engine8database7inbuilt7strings18char_to_byte_index
FN:57,_RNvNtNtNtNtCsksqSOdb1Dlf_9serverlib6engine8database7inbuilt7strings18evaluate_bytes_arg
FN:65,_RNvNtNtNtNtCsksqSOdb1Dlf_9serverlib6engine8database7inbuilt7strings19evaluate_string_arg
FN:297,_RNvNtNtNtNtCsksqSOdb1Dlf_9serverlib6engine8database7inbuilt7strings19format_mysql_number
FN:267,_RNvNtNtNtNtCsksqSOdb1Dlf_9serverlib6engine8database7inbuilt7strings21substring_index_mysql
FN:185,_RNvNtNtNtNtCsksqSOdb1Dlf_9serverlib6engine8database7inbuilt7strings23find_substring_position
FN:210,_RNvNtNtNtNtCsksqSOdb1Dlf_9serverlib6engine8database7inbuilt7strings9pad_mysql
FNDA:26,_RNCNvNtNtNtNtNtCsksqSOdb1Dlf_9serverlib6engine8database7inbuilt7strings5tests19evaluate_expression0Bd_
FNDA:1,_RINvNtNtNtNtCsksqSOdb1Dlf_9serverlib6engine8database7inbuilt7strings13number_resulthEBa_
FNDA:6,_RINvNtNtNtNtCsksqSOdb1Dlf_9serverlib6engine8database7inbuilt7strings13number_resultjEBa_
FNDA:0,_RINvNtNtNtNtCsksqSOdb1Dlf_9serverlib6engine8database7inbuilt7strings13number_resultlEBa_
FNDA:21,_RINvNtNtNtNtCsksqSOdb1Dlf_9serverlib6engine8database7inbuilt7strings13string_resultNtNtCslDfkGcRelIg_5alloc6string6StringEBa_
FNDA:0,_RNCNvNtNtNtNtCsksqSOdb1Dlf_9serverlib6engine8database7inbuilt7strings16evaluate_f64_arg0Bb_
FNDA:0,_RNCNvNtNtNtNtCsksqSOdb1Dlf_9serverlib6engine8database7inbuilt7strings16evaluate_i64_arg0Bb_
FNDA:0,_RNCNvNtNtNtNtCsksqSOdb1Dlf_9serverlib6engine8database7inbuilt7strings17locale_separators0Bb_
FNDA:54,_RNCNvNtNtNtNtCsksqSOdb1Dlf_9serverlib6engine8database7inbuilt7strings19evaluate_string_arg0Bb_
FNDA:29,_RNvNtNtNtNtNtCsksqSOdb1Dlf_9serverlib6engine8database7inbuilt7strings5tests19evaluate_expression
FNDA:1,_RNvNtNtNtNtNtCsksqSOdb1Dlf_9serverlib6engine8database7inbuilt7strings5testss_46string_function_registry_exposes_mysql_aliases
FNDA:1,_RNvNtNtNtNtNtCsksqSOdb1Dlf_9serverlib6engine8database7inbuilt7strings5testss_52evaluate_string_functions_matches_mysql_like_samples
FNDA:1,_RNvNtNtNtNtNtCsksqSOdb1Dlf_9serverlib6engine8database7inbuilt7strings5testss_54string_functions_propagate_null_when_mysql_requires_it
FNDA:5,_RNvNtNtNtNtCsksqSOdb1Dlf_9serverlib6engine8database7inbuilt7strings10char_count
FNDA:3,_RNvNtNtNtNtCsksqSOdb1Dlf_9serverlib6engine8database7inbuilt7strings10left_chars
FNDA:2,_RNvNtNtNtNtCsksqSOdb1Dlf_9serverlib6engine8database7inbuilt7strings10trim_exact
FNDA:1,_RNvNtNtNtNtCsksqSOdb1Dlf_9serverlib6engine8database7inbuilt7strings11right_chars
FNDA:2,_RNvNtNtNtNtCsksqSOdb1Dlf_9serverlib6engine8database7inbuilt7strings11trim_spaces
FNDA:1,_RNvNtNtNtNtCsksqSOdb1Dlf_9serverlib6engine8database7inbuilt7strings12insert_mysql
FNDA:1,_RNvNtNtNtNtCsksqSOdb1Dlf_9serverlib6engine8database7inbuilt7strings13group_integer
FNDA:2,_RNvNtNtNtNtCsksqSOdb1Dlf_9serverlib6engine8database7inbuilt7strings15substring_mysql
FNDA:1,_RNvNtNtNtNtCsksqSOdb1Dlf_9serverlib6engine8database7inbuilt7strings16evaluate_f64_arg
FNDA:14,_RNvNtNtNtNtCsksqSOdb1Dlf_9serverlib6engine8database7inbuilt7strings16evaluate_i64_arg
FNDA:32,_RNvNtNtNtNtCsksqSOdb1Dlf_9serverlib6engine8database7inbuilt7strings16expect_arg_count
FNDA:2,_RNvNtNtNtNtCsksqSOdb1Dlf_9serverlib6engine8database7inbuilt7strings16repeat_to_length
FNDA:1,_RNvNtNtNtNtCsksqSOdb1Dlf_9serverlib6engine8database7inbuilt7strings17locale_separators
FNDA:2,_RNvNtNtNtNtCsksqSOdb1Dlf_9serverlib6engine8database7inbuilt7strings18char_to_byte_index
FNDA:59,_RNvNtNtNtNtCsksqSOdb1Dlf_9serverlib6engine8database7inbuilt7strings18evaluate_bytes_arg
FNDA:57,_RNvNtNtNtNtCsksqSOdb1Dlf_9serverlib6engine8database7inbuilt7strings19evaluate_string_arg
FNDA:1,_RNvNtNtNtNtCsksqSOdb1Dlf_9serverlib6engine8database7inbuilt7strings19format_mysql_number
FNDA:1,_RNvNtNtNtNtCsksqSOdb1Dlf_9serverlib6engine8database7inbuilt7strings21substring_index_mysql
FNDA:2,_RNvNtNtNtNtCsksqSOdb1Dlf_9serverlib6engine8database7inbuilt7strings23find_substring_position
FNDA:2,_RNvNtNtNtNtCsksqSOdb1Dlf_9serverlib6engine8database7inbuilt7strings9pad_mysql
FNF:31
FNH:28
DA:34,32
DA:35,32
DA:36,32
DA:37,32
DA:38,32
DA:39,32
DA:41,32
DA:43,0
DA:44,0
DA:45,0
DA:47,0
DA:48,0
DA:49,0
DA:50,0
DA:52,32
DA:54,32
DA:55,32
DA:57,59
DA:58,59
DA:59,59
DA:60,59
DA:61,59
DA:62,59
DA:63,59
DA:65,57
DA:66,57
DA:67,57
DA:68,57
DA:69,57
DA:70,57
DA:71,57
DA:73,14
DA:74,14
DA:75,0
DA:78,14
DA:79,14
DA:80,14
DA:81,14
DA:82,14
DA:83,14
DA:85,1
DA:86,1
DA:87,0
DA:90,1
DA:91,1
DA:92,1
DA:93,1
DA:94,1
DA:95,1
DA:97,21
DA:98,21
DA:99,21
DA:101,7
DA:102,7
DA:103,7
DA:105,5
DA:106,5
DA:107,5
DA:109,3
DA:110,3
DA:111,0
DA:112,3
DA:114,3
DA:115,3
DA:117,1
DA:119,1
DA:120,0
DA:121,1
DA:123,1
DA:124,1
DA:125,1
DA:126,0
DA:127,1
DA:129,1
DA:131,1
DA:133,2
DA:135,2
DA:136,0
DA:137,2
DA:139,2
DA:140,2
DA:142,2
DA:143,1
DA:145,1
DA:148,2
DA:149,0
DA:150,2
DA:152,2
DA:153,2
DA:154,2
DA:155,0
DA:158,2
DA:160,2
DA:162,1
DA:164,1
DA:165,0
DA:166,1
DA:168,1
DA:169,1
DA:171,1
DA:172,0
DA:173,1
DA:175,1
DA:176,1
DA:178,1
DA:179,1
DA:181,1
DA:183,1
DA:185,2
DA:187,2
DA:188,2
DA:189,0
DA:190,2
DA:192,2
DA:193,0
DA:194,2
DA:196,2
DA:197,2
DA:198,2
DA:199,2
DA:201,2
DA:202,0
DA:205,2
DA:206,2
DA:208,2
DA:210,2
DA:212,2
DA:213,0
DA:214,2
DA:216,2
DA:217,2
DA:219,2
DA:220,0
DA:221,2
DA:223,2
DA:224,0
DA:225,2
DA:227,2
DA:228,2
DA:230,2
DA:231,1
DA:233,1
DA:236,2
DA:238,2
DA:239,2
DA:240,2
DA:242,2
DA:244,2
DA:245,0
DA:246,2
DA:248,2
DA:250,2
DA:251,3
DA:252,2
DA:253,2
DA:254,1
DA:256,2
DA:257,3
DA:258,2
DA:259,2
DA:260,2
DA:261,1
DA:263,2
DA:265,2
DA:267,1
DA:269,1
DA:270,0
DA:271,1
DA:273,1
DA:274,1
DA:275,0
DA:276,1
DA:278,1
DA:279,1
DA:280,1
DA:281,0
DA:282,1
DA:284,1
DA:285,0
DA:287,0
DA:288,0
DA:289,0
DA:290,0
DA:292,0
DA:293,0
DA:295,1
DA:297,1
DA:299,1
DA:300,1
DA:302,1
DA:303,1
DA:304,1
DA:305,1
DA:306,1
DA:308,1
DA:310,1
DA:311,1
DA:312,1
DA:314,0
DA:317,1
DA:319,2
DA:321,2
DA:322,6
DA:323,4
DA:324,4
DA:326,2
DA:328,2
DA:330,2
DA:332,2
DA:333,0
DA:334,2
DA:336,2
DA:338,2
DA:340,1
DA:342,1
DA:343,0
DA:344,0
DA:345,0
DA:346,0
DA:349,0
DA:351,1
DA:354,1
DA:356,1
DA:358,1
DA:359,1
DA:361,5
DA:362,5
DA:363,1
DA:364,4
DA:365,5
DA:368,1
DA:370,1
DA:381,29
DA:382,29
DA:383,29
DA:385,29
DA:386,0
DA:389,29
DA:390,0
DA:393,29
DA:394,0
DA:397,29
DA:398,0
DA:401,29
DA:402,29
DA:403,29
DA:404,29
DA:407,1
DA:408,7
DA:409,1
DA:410,1
DA:411,1
DA:412,1
DA:413,1
DA:414,1
DA:415,1
DA:416,1
DA:417,7
DA:419,1
DA:422,1
DA:424,1
DA:425,1
DA:426,1
DA:427,1
DA:428,1
DA:429,1
DA:430,1
DA:431,1
DA:432,1
DA:433,1
DA:434,1
DA:435,1
DA:436,1
DA:437,1
DA:438,1
DA:439,1
DA:440,1
DA:441,1
DA:442,1
DA:443,1
DA:444,1
DA:445,1
DA:446,1
DA:447,1
DA:448,1
DA:449,1
DA:450,1
DA:451,1
DA:453,26
DA:454,26
DA:457,1
DA:460,1
DA:461,1
DA:462,1
DA:463,1
DA:464,1
BRF:0
BRH:0
LF:301
LH:253
end_of_record
SF:/Users/samcolak/Source Code/rust/distdb/distdb/serverlib/src/engine/database/inbuilt/strings/position.rs
FN:16,_RNvXNtNtNtNtNtCsksqSOdb1Dlf_9serverlib6engine8database7inbuilt7strings8positionNtB2_15PositionCommandNtNtB6_7command20InbuiltServerCommand4name
FN:20,_RNvXNtNtNtNtNtCsksqSOdb1Dlf_9serverlib6engine8database7inbuilt7strings8positionNtB2_15PositionCommandNtNtB6_7command20InbuiltServerCommand8evaluate
FNDA:0,_RNvXNtNtNtNtNtCsksqSOdb1Dlf_9serverlib6engine8database7inbuilt7strings8positionNtB2_15PositionCommandNtNtB6_7command20InbuiltServerCommand4name
FNDA:0,_RNvXNtNtNtNtNtCsksqSOdb1Dlf_9serverlib6engine8database7inbuilt7strings8positionNtB2_15PositionCommandNtNtB6_7command20InbuiltServerCommand8evaluate
FNF:2
FNH:0
DA:16,0
DA:17,0
DA:18,0
DA:20,0
DA:22,0
DA:24,0
DA:26,0
DA:27,0
DA:30,0
DA:31,0
DA:34,0
DA:36,0
BRF:0
BRH:0
LF:12
LH:0
end_of_record
SF:/Users/samcolak/Source Code/rust/distdb/distdb/serverlib/src/engine/database/inbuilt/strings/repeat.rs
FN:16,_RNvXNtNtNtNtNtCsksqSOdb1Dlf_9serverlib6engine8database7inbuilt7strings6repeatNtB2_13RepeatCommandNtNtB6_7command20InbuiltServerCommand4name
FN:20,_RNvXNtNtNtNtNtCsksqSOdb1Dlf_9serverlib6engine8database7inbuilt7strings6repeatNtB2_13RepeatCommandNtNtB6_7command20InbuiltServerCommand8evaluate
FNDA:1,_RNvXNtNtNtNtNtCsksqSOdb1Dlf_9serverlib6engine8database7inbuilt7strings6repeatNtB2_13RepeatCommandNtNtB6_7command20InbuiltServerCommand4name
FNDA:1,_RNvXNtNtNtNtNtCsksqSOdb1Dlf_9serverlib6engine8database7inbuilt7strings6repeatNtB2_13RepeatCommandNtNtB6_7command20InbuiltServerCommand8evaluate
FNF:2
FNH:2
DA:16,1
DA:17,1
DA:18,1
DA:20,1
DA:22,1
DA:24,1
DA:26,1
DA:27,0
DA:30,1
DA:31,0
DA:34,1
DA:35,0
DA:36,1
DA:38,1
DA:40,1
DA:42,1
BRF:0
BRH:0
LF:16
LH:13
end_of_record
SF:/Users/samcolak/Source Code/rust/distdb/distdb/serverlib/src/engine/database/inbuilt/strings/replace.rs
FN:16,_RNvXNtNtNtNtNtCsksqSOdb1Dlf_9serverlib6engine8database7inbuilt7strings7replaceNtB2_14ReplaceCommandNtNtB6_7command20InbuiltServerCommand4name
FN:20,_RNvXNtNtNtNtNtCsksqSOdb1Dlf_9serverlib6engine8database7inbuilt7strings7replaceNtB2_14ReplaceCommandNtNtB6_7command20InbuiltServerCommand8evaluate
FNDA:1,_RNvXNtNtNtNtNtCsksqSOdb1Dlf_9serverlib6engine8database7inbuilt7strings7replaceNtB2_14ReplaceCommandNtNtB6_7command20InbuiltServerCommand4name
FNDA:1,_RNvXNtNtNtNtNtCsksqSOdb1Dlf_9serverlib6engine8database7inbuilt7strings7replaceNtB2_14ReplaceCommandNtNtB6_7command20InbuiltServerCommand8evaluate
FNF:2
FNH:2
DA:16,1
DA:17,1
DA:18,1
DA:20,1
DA:22,1
DA:24,1
DA:26,1
DA:27,0
DA:30,1
DA:31,0
DA:34,1
DA:35,0
DA:38,1
DA:39,0
DA:40,1
DA:42,1
DA:44,1
BRF:0
BRH:0
LF:17
LH:13
end_of_record
SF:/Users/samcolak/Source Code/rust/distdb/distdb/serverlib/src/engine/database/inbuilt/strings/reverse.rs
FN:16,_RNvXNtNtNtNtNtCsksqSOdb1Dlf_9serverlib6engine8database7inbuilt7strings7reverseNtB2_14ReverseCommandNtNtB6_7command20InbuiltServerCommand4name
FN:20,_RNvXNtNtNtNtNtCsksqSOdb1Dlf_9serverlib6engine8database7inbuilt7strings7reverseNtB2_14ReverseCommandNtNtB6_7command20InbuiltServerCommand8evaluate
FNDA:1,_RNvXNtNtNtNtNtCsksqSOdb1Dlf_9serverlib6engine8database7inbuilt7strings7reverseNtB2_14ReverseCommandNtNtB6_7command20InbuiltServerCommand4name
FNDA:1,_RNvXNtNtNtNtNtCsksqSOdb1Dlf_9serverlib6engine8database7inbuilt7strings7reverseNtB2_14ReverseCommandNtNtB6_7command20InbuiltServerCommand8evaluate
FNF:2
FNH:2
DA:16,1
DA:17,1
DA:18,1
DA:20,1
DA:22,1
DA:24,1
DA:26,1
DA:27,0
DA:30,1
DA:32,1
BRF:0
BRH:0
LF:10
LH:9
end_of_record
SF:/Users/samcolak/Source Code/rust/distdb/distdb/serverlib/src/engine/database/inbuilt/strings/right.rs
FN:16,_RNvXNtNtNtNtNtCsksqSOdb1Dlf_9serverlib6engine8database7inbuilt7strings5rightNtB2_12RightCommandNtNtB6_7command20InbuiltServerCommand4name
FN:20,_RNvXNtNtNtNtNtCsksqSOdb1Dlf_9serverlib6engine8database7inbuilt7strings5rightNtB2_12RightCommandNtNtB6_7command20InbuiltServerCommand8evaluate
FNDA:1,_RNvXNtNtNtNtNtCsksqSOdb1Dlf_9serverlib6engine8database7inbuilt7strings5rightNtB2_12RightCommandNtNtB6_7command20InbuiltServerCommand4name
FNDA:1,_RNvXNtNtNtNtNtCsksqSOdb1Dlf_9serverlib6engine8database7inbuilt7strings5rightNtB2_12RightCommandNtNtB6_7command20InbuiltServerCommand8evaluate
FNF:2
FNH:2
DA:16,1
DA:17,1
DA:18,1
DA:20,1
DA:22,1
DA:24,1
DA:26,1
DA:27,0
DA:30,1
DA:31,0
DA:34,1
DA:36,1
BRF:0
BRH:0
LF:12
LH:10
end_of_record
SF:/Users/samcolak/Source Code/rust/distdb/distdb/serverlib/src/engine/database/inbuilt/strings/rpad.rs
FN:16,_RNvXNtNtNtNtNtCsksqSOdb1Dlf_9serverlib6engine8database7inbuilt7strings4rpadNtB2_11RpadCommandNtNtB6_7command20InbuiltServerCommand4name
FN:20,_RNvXNtNtNtNtNtCsksqSOdb1Dlf_9serverlib6engine8database7inbuilt7strings4rpadNtB2_11RpadCommandNtNtB6_7command20InbuiltServerCommand8evaluate
FN:38,_RNCNvXNtNtNtNtNtCsksqSOdb1Dlf_9serverlib6engine8database7inbuilt7strings4rpadNtB4_11RpadCommandNtNtB8_7command20InbuiltServerCommand8evaluate0Be_
FNDA:1,_RNvXNtNtNtNtNtCsksqSOdb1Dlf_9serverlib6engine8database7inbuilt7strings4rpadNtB2_11RpadCommandNtNtB6_7command20InbuiltServerCommand4name
FNDA:1,_RNvXNtNtNtNtNtCsksqSOdb1Dlf_9serverlib6engine8database7inbuilt7strings4rpadNtB2_11RpadCommandNtNtB6_7command20InbuiltServerCommand8evaluate
FNDA:1,_RNCNvXNtNtNtNtNtCsksqSOdb1Dlf_9serverlib6engine8database7inbuilt7strings4rpadNtB4_11RpadCommandNtNtB8_7command20InbuiltServerCommand8evaluate0Be_
FNF:3
FNH:3
DA:16,1
DA:17,1
DA:18,1
DA:20,1
DA:22,1
DA:24,1
DA:26,1
DA:27,0
DA:30,1
DA:31,0
DA:34,1
DA:35,0
DA:38,1
DA:40,1
BRF:0
BRH:0
LF:15
LH:12
end_of_record
SF:/Users/samcolak/Source Code/rust/distdb/distdb/serverlib/src/engine/database/inbuilt/strings/rtrim.rs
FN:16,_RNvXNtNtNtNtNtCsksqSOdb1Dlf_9serverlib6engine8database7inbuilt7strings5rtrimNtB2_12RtrimCommandNtNtB6_7command20InbuiltServerCommand4name
FN:20,_RNvXNtNtNtNtNtCsksqSOdb1Dlf_9serverlib6engine8database7inbuilt7strings5rtrimNtB2_12RtrimCommandNtNtB6_7command20InbuiltServerCommand8evaluate
FNDA:1,_RNvXNtNtNtNtNtCsksqSOdb1Dlf_9serverlib6engine8database7inbuilt7strings5rtrimNtB2_12RtrimCommandNtNtB6_7command20InbuiltServerCommand4name
FNDA:1,_RNvXNtNtNtNtNtCsksqSOdb1Dlf_9serverlib6engine8database7inbuilt7strings5rtrimNtB2_12RtrimCommandNtNtB6_7command20InbuiltServerCommand8evaluate
FNF:2
FNH:2
DA:16,1
DA:17,1
DA:18,1
DA:20,1
DA:22,1
DA:24,1
DA:26,1
DA:27,0
DA:30,1
DA:32,1
BRF:0
BRH:0
LF:10
LH:9
end_of_record
SF:/Users/samcolak/Source Code/rust/distdb/distdb/serverlib/src/engine/database/inbuilt/strings/space.rs
FN:16,_RNvXNtNtNtNtNtCsksqSOdb1Dlf_9serverlib6engine8database7inbuilt7strings5spaceNtB2_12SpaceCommandNtNtB6_7command20InbuiltServerCommand4name
FN:20,_RNvXNtNtNtNtNtCsksqSOdb1Dlf_9serverlib6engine8database7inbuilt7strings5spaceNtB2_12SpaceCommandNtNtB6_7command20InbuiltServerCommand8evaluate
FNDA:1,_RNvXNtNtNtNtNtCsksqSOdb1Dlf_9serverlib6engine8database7inbuilt7strings5spaceNtB2_12SpaceCommandNtNtB6_7command20InbuiltServerCommand4name
FNDA:1,_RNvXNtNtNtNtNtCsksqSOdb1Dlf_9serverlib6engine8database7inbuilt7strings5spaceNtB2_12SpaceCommandNtNtB6_7command20InbuiltServerCommand8evaluate
FNF:2
FNH:2
DA:16,1
DA:17,1
DA:18,1
DA:20,1
DA:22,1
DA:24,1
DA:26,1
DA:27,0
DA:30,1
DA:32,1
DA:34,1
BRF:0
BRH:0
LF:11
LH:10
end_of_record
SF:/Users/samcolak/Source Code/rust/distdb/distdb/serverlib/src/engine/database/inbuilt/strings/substr.rs
FN:16,_RNvXNtNtNtNtNtCsksqSOdb1Dlf_9serverlib6engine8database7inbuilt7strings6substrNtB2_13SubstrCommandNtNtB6_7command20InbuiltServerCommand4name
FN:20,_RNvXNtNtNtNtNtCsksqSOdb1Dlf_9serverlib6engine8database7inbuilt7strings6substrNtB2_13SubstrCommandNtNtB6_7command20InbuiltServerCommand8evaluate
FNDA:1,_RNvXNtNtNtNtNtCsksqSOdb1Dlf_9serverlib6engine8database7inbuilt7strings6substrNtB2_13SubstrCommandNtNtB6_7command20InbuiltServerCommand4name
FNDA:1,_RNvXNtNtNtNtNtCsksqSOdb1Dlf_9serverlib6engine8database7inbuilt7strings6substrNtB2_13SubstrCommandNtNtB6_7command20InbuiltServerCommand8evaluate
FNF:2
FNH:2
DA:16,1
DA:17,1
DA:18,1
DA:20,1
DA:22,1
DA:24,1
DA:26,1
DA:27,0
DA:30,1
DA:31,0
DA:34,1
DA:35,1
DA:36,0
DA:38,1
DA:40,0
DA:43,1
DA:45,1
BRF:0
BRH:0
LF:17
LH:13
end_of_record
SF:/Users/samcolak/Source Code/rust/distdb/distdb/serverlib/src/engine/database/inbuilt/strings/substring_index.rs
FN:16,_RNvXNtNtNtNtNtCsksqSOdb1Dlf_9serverlib6engine8database7inbuilt7strings15substring_indexNtB2_21SubstringIndexCommandNtNtB6_7command20InbuiltServerCommand4name
FN:20,_RNvXNtNtNtNtNtCsksqSOdb1Dlf_9serverlib6engine8database7inbuilt7strings15substring_indexNtB2_21SubstringIndexCommandNtNtB6_7command20InbuiltServerCommand8evaluate
FNDA:1,_RNvXNtNtNtNtNtCsksqSOdb1Dlf_9serverlib6engine8database7inbuilt7strings15substring_indexNtB2_21SubstringIndexCommandNtNtB6_7command20InbuiltServerCommand4name
FNDA:1,_RNvXNtNtNtNtNtCsksqSOdb1Dlf_9serverlib6engine8database7inbuilt7strings15substring_indexNtB2_21SubstringIndexCommandNtNtB6_7command20InbuiltServerCommand8evaluate
FNF:2
FNH:2
DA:16,1
DA:17,1
DA:18,1
DA:20,1
DA:22,1
DA:24,1
DA:26,1
DA:27,0
DA:30,1
DA:31,0
DA:34,1
DA:35,0
DA:38,1
DA:40,1
BRF:0
BRH:0
LF:14
LH:11
end_of_record
SF:/Users/samcolak/Source Code/rust/distdb/distdb/serverlib/src/engine/database/inbuilt/strings/trim.rs
FN:16,_RNvXNtNtNtNtNtCsksqSOdb1Dlf_9serverlib6engine8database7inbuilt7strings4trimNtB2_11TrimCommandNtNtB6_7command20InbuiltServerCommand4name
FN:20,_RNvXNtNtNtNtNtCsksqSOdb1Dlf_9serverlib6engine8database7inbuilt7strings4trimNtB2_11TrimCommandNtNtB6_7command20InbuiltServerCommand8evaluate
FNDA:0,_RNvXNtNtNtNtNtCsksqSOdb1Dlf_9serverlib6engine8database7inbuilt7strings4trimNtB2_11TrimCommandNtNtB6_7command20InbuiltServerCommand4name
FNDA:0,_RNvXNtNtNtNtNtCsksqSOdb1Dlf_9serverlib6engine8database7inbuilt7strings4trimNtB2_11TrimCommandNtNtB6_7command20InbuiltServerCommand8evaluate
FNF:2
FNH:0
DA:16,0
DA:17,0
DA:18,0
DA:20,0
DA:22,0
DA:24,0
DA:26,0
DA:28,0
DA:29,0
DA:32,0
DA:36,0
DA:37,0
DA:40,0
DA:41,0
DA:44,0
DA:48,0
DA:50,0
BRF:0
BRH:0
LF:17
LH:0
end_of_record
SF:/Users/samcolak/Source Code/rust/distdb/distdb/serverlib/src/engine/database/inbuilt/strings/upper.rs
FN:16,_RNvXNtNtNtNtNtCsksqSOdb1Dlf_9serverlib6engine8database7inbuilt7strings5upperNtB2_12UpperCommandNtNtB6_7command20InbuiltServerCommand4name
FN:20,_RNvXNtNtNtNtNtCsksqSOdb1Dlf_9serverlib6engine8database7inbuilt7strings5upperNtB2_12UpperCommandNtNtB6_7command20InbuiltServerCommand8evaluate
FNDA:4,_RNvXNtNtNtNtNtCsksqSOdb1Dlf_9serverlib6engine8database7inbuilt7strings5upperNtB2_12UpperCommandNtNtB6_7command20InbuiltServerCommand4name
FNDA:4,_RNvXNtNtNtNtNtCsksqSOdb1Dlf_9serverlib6engine8database7inbuilt7strings5upperNtB2_12UpperCommandNtNtB6_7command20InbuiltServerCommand8evaluate
FNF:2
FNH:2
DA:16,4
DA:17,4
DA:18,4
DA:20,4
DA:22,4
DA:24,4
DA:26,4
DA:27,0
DA:30,4
DA:32,4
BRF:0
BRH:0
LF:10
LH:9
end_of_record
SF:/Users/samcolak/Source Code/rust/distdb/distdb/serverlib/src/engine/database/index.rs
FN:175,_RNvMs0_NtNtNtCsksqSOdb1Dlf_9serverlib6engine8database5indexNtB5_13DatabaseIndex22is_relationship_driven
FN:24,_RNvMNtNtNtCsksqSOdb1Dlf_9serverlib6engine8database5indexNtB2_19DatabaseIndexOrigin6prefix
FN:171,_RNvMs0_NtNtNtCsksqSOdb1Dlf_9serverlib6engine8database5indexNtB5_13DatabaseIndex12is_temporary
FN:167,_RNvMs0_NtNtNtCsksqSOdb1Dlf_9serverlib6engine8database5indexNtB5_13DatabaseIndex14is_primary_key
FN:179,_RNvMs0_NtNtNtCsksqSOdb1Dlf_9serverlib6engine8database5indexNtB5_13DatabaseIndex16compose_index_id
FN:63,_RNvMs0_NtNtNtCsksqSOdb1Dlf_9serverlib6engine8database5indexNtB5_13DatabaseIndex16from_table_field
FN:142,_RNvMs0_NtNtNtCsksqSOdb1Dlf_9serverlib6engine8database5indexNtB5_13DatabaseIndex16refresh_index_id
FN:80,_RNvMs0_NtNtNtCsksqSOdb1Dlf_9serverlib6engine8database5indexNtB5_13DatabaseIndex17from_table_fields
FN:96,_RNvMs0_NtNtNtCsksqSOdb1Dlf_9serverlib6engine8database5indexNtB5_13DatabaseIndex29from_table_fields_with_origin
FN:36,_RNvMs_NtNtNtCsksqSOdb1Dlf_9serverlib6engine8database5indexNtB4_17DatabaseIndexKind6prefix
FN:125,_RINvMs0_NtNtNtCsksqSOdb1Dlf_9serverlib6engine8database5indexNtB6_13DatabaseIndex9temporaryReEBc_
FN:151,_RNCNvMs0_NtNtNtCsksqSOdb1Dlf_9serverlib6engine8database5indexNtB7_13DatabaseIndex16refresh_index_id0Bd_
FN:107,_RNCNvMs0_NtNtNtCsksqSOdb1Dlf_9serverlib6engine8database5indexNtB7_13DatabaseIndex29from_table_fields_with_origin0Bd_
FNDA:0,_RNvMs0_NtNtNtCsksqSOdb1Dlf_9serverlib6engine8database5indexNtB5_13DatabaseIndex22is_relationship_driven
FNDA:3,_RNvMNtNtNtCsksqSOdb1Dlf_9serverlib6engine8database5indexNtB2_19DatabaseIndexOrigin6prefix
FNDA:7,_RNvMs0_NtNtNtCsksqSOdb1Dlf_9serverlib6engine8database5indexNtB5_13DatabaseIndex12is_temporary
FNDA:10,_RNvMs0_NtNtNtCsksqSOdb1Dlf_9serverlib6engine8database5indexNtB5_13DatabaseIndex14is_primary_key
FNDA:159,_RNvMs0_NtNtNtCsksqSOdb1Dlf_9serverlib6engine8database5indexNtB5_13DatabaseIndex16compose_index_id
FNDA:2,_RNvMs0_NtNtNtCsksqSOdb1Dlf_9serverlib6engine8database5indexNtB5_13DatabaseIndex16from_table_field
FNDA:1,_RNvMs0_NtNtNtCsksqSOdb1Dlf_9serverlib6engine8database5indexNtB5_13DatabaseIndex16refresh_index_id
FNDA:7,_RNvMs0_NtNtNtCsksqSOdb1Dlf_9serverlib6engine8database5indexNtB5_13DatabaseIndex17from_table_fields
FNDA:158,_RNvMs0_NtNtNtCsksqSOdb1Dlf_9serverlib6engine8database5indexNtB5_13DatabaseIndex29from_table_fields_with_origin
FNDA:159,_RNvMs_NtNtNtCsksqSOdb1Dlf_9serverlib6engine8database5indexNtB4_17DatabaseIndexKind6prefix
FNDA:2,_RINvMs0_NtNtNtCsksqSOdb1Dlf_9serverlib6engine8database5indexNtB6_13DatabaseIndex9temporaryReEBc_
FNDA:1,_RNCNvMs0_NtNtNtCsksqSOdb1Dlf_9serverlib6engine8database5indexNtB7_13DatabaseIndex16refresh_index_id0Bd_
FNDA:160,_RNCNvMs0_NtNtNtCsksqSOdb1Dlf_9serverlib6engine8database5indexNtB7_13DatabaseIndex29from_table_fields_with_origin0Bd_
FNF:13
FNH:12
DA:24,3
DA:25,3
DA:26,0
DA:27,1
DA:28,2
DA:30,3
DA:36,159
DA:37,159
DA:38,92
DA:39,67
DA:41,159
DA:63,2
DA:65,2
DA:66,1
DA:67,1
DA:70,2
DA:71,2
DA:72,2
DA:73,2
DA:74,2
DA:75,2
DA:78,2
DA:80,7
DA:81,7
DA:82,7
DA:83,7
DA:84,7
DA:86,7
DA:87,7
DA:88,7
DA:89,7
DA:90,7
DA:91,7
DA:94,7
DA:96,158
DA:97,158
DA:98,158
DA:99,158
DA:100,158
DA:101,158
DA:102,158
DA:104,158
DA:105,158
DA:106,158
DA:107,160
DA:108,158
DA:109,158
DA:110,158
DA:111,158
DA:113,158
DA:114,158
DA:115,158
DA:116,158
DA:117,158
DA:118,158
DA:119,158
DA:120,158
DA:121,158
DA:123,158
DA:125,2
DA:126,2
DA:127,2
DA:128,2
DA:129,2
DA:130,2
DA:132,2
DA:133,2
DA:134,2
DA:135,2
DA:136,2
DA:137,2
DA:140,2
DA:142,1
DA:144,1
DA:145,0
DA:146,1
DA:148,1
DA:149,1
DA:150,1
DA:151,1
DA:152,1
DA:154,1
DA:155,1
DA:157,1
DA:158,1
DA:159,1
DA:160,1
DA:161,1
DA:162,1
DA:165,1
DA:167,10
DA:168,10
DA:169,10
DA:171,7
DA:172,7
DA:173,7
DA:175,0
DA:176,0
DA:177,0
DA:179,159
DA:180,159
DA:181,159
DA:182,159
DA:183,159
DA:184,159
DA:185,159
DA:187,159
DA:189,159
DA:192,156
DA:196,1
DA:197,1
DA:198,1
DA:199,1
DA:200,1
DA:201,1
DA:202,1
DA:206,2
DA:207,2
DA:208,2
DA:209,2
DA:210,2
DA:211,2
DA:212,2
DA:213,2
DA:214,2
DA:219,159
BRF:0
BRH:0
LF:128
LH:123
end_of_record
SF:/Users/samcolak/Source Code/rust/distdb/distdb/serverlib/src/engine/database/index_id.rs
FN:7,_RNvMNtNtNtCsksqSOdb1Dlf_9serverlib6engine8database8index_idNtB2_7IndexId3new
FNDA:0,_RNvMNtNtNtCsksqSOdb1Dlf_9serverlib6engine8database8index_idNtB2_7IndexId3new
FNF:1
FNH:0
DA:7,0
DA:8,0
DA:9,0
BRF:0
BRH:0
LF:3
LH:0
end_of_record
SF:/Users/samcolak/Source Code/rust/distdb/distdb/serverlib/src/engine/database/index_test.rs
FN:30,_RNvNtNtNtNtCsksqSOdb1Dlf_9serverlib6engine8database5index5testss_33primary_key_index_uses_pri_prefix
FN:51,_RNvNtNtNtNtCsksqSOdb1Dlf_9serverlib6engine8database5index5testss_34composite_index_id_uses_field_list
FN:67,_RNvNtNtNtNtCsksqSOdb1Dlf_9serverlib6engine8database5index5testss_40temporary_index_uses_temp_id_in_identity
FN:6,_RNvNtNtNtNtCsksqSOdb1Dlf_9serverlib6engine8database5index5testss_42index_id_is_normalized_from_kind_and_field
FNDA:1,_RNvNtNtNtNtCsksqSOdb1Dlf_9serverlib6engine8database5index5testss_33primary_key_index_uses_pri_prefix
FNDA:1,_RNvNtNtNtNtCsksqSOdb1Dlf_9serverlib6engine8database5index5testss_34composite_index_id_uses_field_list
FNDA:1,_RNvNtNtNtNtCsksqSOdb1Dlf_9serverlib6engine8database5index5testss_40temporary_index_uses_temp_id_in_identity
FNDA:1,_RNvNtNtNtNtCsksqSOdb1Dlf_9serverlib6engine8database5index5testss_42index_id_is_normalized_from_kind_and_field
FNF:4
FNH:4
DA:6,1
DA:8,1
DA:9,1
DA:10,1
DA:11,1
DA:12,1
DA:13,1
DA:14,1
DA:15,1
DA:16,1
DA:18,1
DA:20,1
DA:21,1
DA:22,1
DA:23,1
DA:24,1
DA:25,1
DA:27,1
DA:30,1
DA:32,1
DA:33,1
DA:34,1
DA:35,1
DA:36,1
DA:37,1
DA:38,1
DA:39,1
DA:40,1
DA:42,1
DA:44,1
DA:45,1
DA:46,1
DA:48,1
DA:51,1
DA:53,1
DA:54,1
DA:55,1
DA:56,1
DA:57,1
DA:58,1
DA:61,1
DA:62,1
DA:64,1
DA:67,1
DA:69,1
DA:70,1
DA:71,1
DA:73,1
DA:76,1
DA:77,1
DA:78,1
DA:80,1
BRF:0
BRH:0
LF:52
LH:52
end_of_record
SF:/Users/samcolak/Source Code/rust/distdb/distdb/serverlib/src/engine/database/relationship.rs
FN:38,_RNvXs_NtNtNtCsksqSOdb1Dlf_9serverlib6engine8database12relationshipNtB4_20DatabaseRelationshipNtNtNtB6_6entity6aspect20DatabaseEntityAspect4kind
FN:66,_RNvXs_NtNtNtCsksqSOdb1Dlf_9serverlib6engine8database12relationshipNtB4_20DatabaseRelationshipNtNtNtB6_6entity6aspect20DatabaseEntityAspect6schema
FN:54,_RNvXs_NtNtNtCsksqSOdb1Dlf_9serverlib6engine8database12relationshipNtB4_20DatabaseRelationshipNtNtNtB6_6entity6aspect20DatabaseEntityAspect8metadata
FN:20,_RNvMNtNtNtCsksqSOdb1Dlf_9serverlib6engine8database12relationshipNtB2_20DatabaseRelationship3new
FN:42,_RNvXs_NtNtNtCsksqSOdb1Dlf_9serverlib6engine8database12relationshipNtB4_20DatabaseRelationshipNtNtNtB6_6entity6aspect20DatabaseEntityAspect11storage_key
FN:46,_RNvXs_NtNtNtCsksqSOdb1Dlf_9serverlib6engine8database12relationshipNtB4_20DatabaseRelationshipNtNtNtB6_6entity6aspect20DatabaseEntityAspect13set_entity_id
FN:58,_RNvXs_NtNtNtCsksqSOdb1Dlf_9serverlib6engine8database12relationshipNtB4_20DatabaseRelationshipNtNtNtB6_6entity6aspect20DatabaseEntityAspect13wal_stream_id
FN:62,_RNvXs_NtNtNtCsksqSOdb1Dlf_9serverlib6engine8database12relationshipNtB4_20DatabaseRelationshipNtNtNtB6_6entity6aspect20DatabaseEntityAspect15schema_revision
FN:70,_RNvXs_NtNtNtCsksqSOdb1Dlf_9serverlib6engine8database12relationshipNtB4_20DatabaseRelationshipNtNtNtB6_6entity6aspect20DatabaseEntityAspect18normalize_in_place
FN:34,_RNvXs_NtNtNtCsksqSOdb1Dlf_9serverlib6engine8database12relationshipNtB4_20DatabaseRelationshipNtNtNtB6_6entity6aspect20DatabaseEntityAspect4name
FN:50,_RNvXs_NtNtNtCsksqSOdb1Dlf_9serverlib6engine8database12relationshipNtB4_20DatabaseRelationshipNtNtNtB6_6entity6aspect20DatabaseEntityAspect6status
FNDA:0,_RNvXs_NtNtNtCsksqSOdb1Dlf_9serverlib6engine8database12relationshipNtB4_20DatabaseRelationshipNtNtNtB6_6entity6aspect20DatabaseEntityAspect4kind
FNDA:0,_RNvXs_NtNtNtCsksqSOdb1Dlf_9serverlib6engine8database12relationshipNtB4_20DatabaseRelationshipNtNtNtB6_6entity6aspect20DatabaseEntityAspect6schema
FNDA:0,_RNvXs_NtNtNtCsksqSOdb1Dlf_9serverlib6engine8database12relationshipNtB4_20DatabaseRelationshipNtNtNtB6_6entity6aspect20DatabaseEntityAspect8metadata
FNDA:3,_RNvMNtNtNtCsksqSOdb1Dlf_9serverlib6engine8database12relationshipNtB2_20DatabaseRelationship3new
FNDA:6,_RNvXs_NtNtNtCsksqSOdb1Dlf_9serverlib6engine8database12relationshipNtB4_20DatabaseRelationshipNtNtNtB6_6entity6aspect20DatabaseEntityAspect11storage_key
FNDA:0,_RNvXs_NtNtNtCsksqSOdb1Dlf_9serverlib6engine8database12relationshipNtB4_20DatabaseRelationshipNtNtNtB6_6entity6aspect20DatabaseEntityAspect13set_entity_id
FNDA:1,_RNvXs_NtNtNtCsksqSOdb1Dlf_9serverlib6engine8database12relationshipNtB4_20DatabaseRelationshipNtNtNtB6_6entity6aspect20DatabaseEntityAspect13wal_stream_id
FNDA:0,_RNvXs_NtNtNtCsksqSOdb1Dlf_9serverlib6engine8database12relationshipNtB4_20DatabaseRelationshipNtNtNtB6_6entity6aspect20DatabaseEntityAspect15schema_revision
FNDA:0,_RNvXs_NtNtNtCsksqSOdb1Dlf_9serverlib6engine8database12relationshipNtB4_20DatabaseRelationshipNtNtNtB6_6entity6aspect20DatabaseEntityAspect18normalize_in_place
FNDA:22,_RNvXs_NtNtNtCsksqSOdb1Dlf_9serverlib6engine8database12relationshipNtB4_20DatabaseRelationshipNtNtNtB6_6entity6aspect20DatabaseEntityAspect4name
FNDA:0,_RNvXs_NtNtNtCsksqSOdb1Dlf_9serverlib6engine8database12relationshipNtB4_20DatabaseRelationshipNtNtNtB6_6entity6aspect20DatabaseEntityAspect6status
FNF:11
FNH:4
DA:20,3
DA:21,3
DA:22,3
DA:23,3
DA:24,3
DA:25,3
DA:26,3
DA:27,3
DA:28,3
DA:34,22
DA:35,22
DA:36,22
DA:38,0
DA:39,0
DA:40,0
DA:42,6
DA:43,6
DA:44,6
DA:46,0
DA:47,0
DA:48,0
DA:50,0
DA:51,0
DA:52,0
DA:54,0
DA:55,0
DA:56,0
DA:58,1
DA:59,1
DA:60,1
DA:62,0
DA:63,0
DA:64,0
DA:66,0
DA:67,0
DA:68,0
DA:70,0
DA:71,0
DA:72,0
DA:73,0
DA:74,0
BRF:0
BRH:0
LF:41
LH:18
end_of_record
SF:/Users/samcolak/Source Code/rust/distdb/distdb/serverlib/src/engine/database/row_payload.rs
FN:466,_RNCNvNtNtNtCsksqSOdb1Dlf_9serverlib6engine8database11row_payload22decode_row_field_value0B9_
FN:475,_RNCNvNtNtNtCsksqSOdb1Dlf_9serverlib6engine8database11row_payload22decode_row_field_values_0B9_
FN:458,_RNvNtNtNtCsksqSOdb1Dlf_9serverlib6engine8database11row_payload22decode_row_field_value
FN:393,_RNCNCNCNvNtNtNtCsksqSOdb1Dlf_9serverlib6engine8database11row_payload18encode_row_payloads_000Bd_
FN:401,_RNCNCNCNvNtNtNtCsksqSOdb1Dlf_9serverlib6engine8database11row_payload18encode_row_payloads_00s_0Bd_
FN:390,_RNCNCNvNtNtNtCsksqSOdb1Dlf_9serverlib6engine8database11row_payload18encode_row_payloads_00Bb_
FN:369,_RNCNCNvNtNtNtCsksqSOdb1Dlf_9serverlib6engine8database11row_payload22field_names_by_ordinals_00Bb_
FN:384,_RNCNvNtNtNtCsksqSOdb1Dlf_9serverlib6engine8database11row_payload18encode_row_payload0B9_
FN:406,_RNCNvNtNtNtCsksqSOdb1Dlf_9serverlib6engine8database11row_payload18encode_row_payloads0_0B9_
FN:389,_RNCNvNtNtNtCsksqSOdb1Dlf_9serverlib6engine8database11row_payload18encode_row_payloads_0B9_
FN:363,_RNCNvNtNtNtCsksqSOdb1Dlf_9serverlib6engine8database11row_payload22field_names_by_ordinal0B9_
FN:366,_RNCNvNtNtNtCsksqSOdb1Dlf_9serverlib6engine8database11row_payload22field_names_by_ordinals_0B9_
FN:300,_RNCNvNtNtNtCsksqSOdb1Dlf_9serverlib6engine8database11row_payload37encode_encrypted_row_payload_envelope0B9_
FN:179,_RNvMs3_NtNtNtCsksqSOdb1Dlf_9serverlib6engine8database11row_payloadINtB5_34RowPayloadEncryptionWriteTransformNtB5_40UnconfiguredRowPayloadEncryptionProviderE3newBb_
FN:179,_RNvMs3_NtNtNtCsksqSOdb1Dlf_9serverlib6engine8database11row_payloadINtB5_34RowPayloadEncryptionWriteTransformNtNvNtB5_5testss_87row_payload_encryption_write_transform_uses_provider_when_encryption_context_is_present22StubEncryptionProviderE3newBb_
FN:189,_RNvMs4_NtNtNtCsksqSOdb1Dlf_9serverlib6engine8database11row_payloadINtB5_29RowPayloadDecryptionTransformNtB5_40UnconfiguredRowPayloadDecryptionProviderE3newBb_
FN:189,_RNvMs4_NtNtNtCsksqSOdb1Dlf_9serverlib6engine8database11row_payloadINtB5_29RowPayloadDecryptionTransformNtNvNtB5_5testss_81row_payload_decryption_transform_uses_provider_when_encryption_context_is_present22StubDecryptionProviderE3newBb_
FN:198,_RNvXs5_NtNtNtCsksqSOdb1Dlf_9serverlib6engine8database11row_payloadINtB5_34RowPayloadEncryptionWriteTransformNtB5_40UnconfiguredRowPayloadEncryptionProviderENtNtNtB7_11transaction6record32TransactionPayloadWriteTransform27transform_payload_for_writeBb_
FN:198,_RNvXs5_NtNtNtCsksqSOdb1Dlf_9serverlib6engine8database11row_payloadINtB5_34RowPayloadEncryptionWriteTransformNtNvNtB5_5testss_87row_payload_encryption_write_transform_uses_provider_when_encryption_context_is_present22StubEncryptionProviderENtNtNtB7_11transaction6record32TransactionPayloadWriteTransform27transform_payload_for_writeBb_
FN:231,_RNvXs6_NtNtNtCsksqSOdb1Dlf_9serverlib6engine8database11row_payloadINtB5_29RowPayloadDecryptionTransformNtB5_40UnconfiguredRowPayloadDecryptionProviderENtNtNtB7_11transaction6record27TransactionPayloadTransform17transform_payloadBb_
FN:231,_RNvXs6_NtNtNtCsksqSOdb1Dlf_9serverlib6engine8database11row_payloadINtB5_29RowPayloadDecryptionTransformNtNvNtB5_5testss_81row_payload_decryption_transform_uses_provider_when_encryption_context_is_present22StubDecryptionProviderENtNtNtB7_11transaction6record27TransactionPayloadTransform17transform_payloadBb_
FN:39,_RNvMNtNtNtCsksqSOdb1Dlf_9serverlib6engine8database11row_payloadNtB2_28EncryptedRowPayloadTransform15preserve_opaque
FN:45,_RNvMNtNtNtCsksqSOdb1Dlf_9serverlib6engine8database11row_payloadNtB2_28EncryptedRowPayloadTransform16reject_encrypted
FN:281,_RNvMs7_NtNtNtCsksqSOdb1Dlf_9serverlib6engine8database11row_payloadNtB5_27EncryptedRowPayloadEnvelope3new
FN:410,_RNvNtNtNtCsksqSOdb1Dlf_9serverlib6engine8database11row_payload18decode_row_payload
FN:376,_RNvNtNtNtCsksqSOdb1Dlf_9serverlib6engine8database11row_payload18encode_row_payload
FN:358,_RNvNtNtNtCsksqSOdb1Dlf_9serverlib6engine8database11row_payload22field_names_by_ordinal
FN:343,_RNvNtNtNtCsksqSOdb1Dlf_9serverlib6engine8database11row_payload32looks_like_encrypted_row_payload
FN:304,_RNvNtNtNtCsksqSOdb1Dlf_9serverlib6engine8database11row_payload37decode_encrypted_row_payload_envelope
FN:292,_RNvNtNtNtCsksqSOdb1Dlf_9serverlib6engine8database11row_payload37encode_encrypted_row_payload_envelope
FN:347,_RNvNtNtNtCsksqSOdb1Dlf_9serverlib6engine8database11row_payload43looks_like_valid_encrypted_payload_envelope
FN:90,_RNvXs0_NtNtNtCsksqSOdb1Dlf_9serverlib6engine8database11row_payloadNtB5_28EncryptedRowPayloadTransformNtNtNtB7_11transaction6record32TransactionPayloadWriteTransform27transform_payload_for_write
FN:149,_RNvXs1_NtNtNtCsksqSOdb1Dlf_9serverlib6engine8database11row_payloadNtB5_40UnconfiguredRowPayloadEncryptionProviderNtB5_28RowPayloadEncryptionProvider19encrypt_row_payload
FN:164,_RNvXs2_NtNtNtCsksqSOdb1Dlf_9serverlib6engine8database11row_payloadNtB5_40UnconfiguredRowPayloadDecryptionProviderNtB5_28RowPayloadDecryptionProvider19decrypt_row_payload
FN:55,_RNvXs_NtNtNtCsksqSOdb1Dlf_9serverlib6engine8database11row_payloadNtB4_28EncryptedRowPayloadTransformNtNtNtB6_11transaction6record27TransactionPayloadTransform17transform_payload
FNDA:0,_RNCNvNtNtNtCsksqSOdb1Dlf_9serverlib6engine8database11row_payload22decode_row_field_value0B9_
FNDA:0,_RNCNvNtNtNtCsksqSOdb1Dlf_9serverlib6engine8database11row_payload22decode_row_field_values_0B9_
FNDA:0,_RNvNtNtNtCsksqSOdb1Dlf_9serverlib6engine8database11row_payload22decode_row_field_value
FNDA:358,_RNCNCNCNvNtNtNtCsksqSOdb1Dlf_9serverlib6engine8database11row_payload18encode_row_payloads_000Bd_
FNDA:0,_RNCNCNCNvNtNtNtCsksqSOdb1Dlf_9serverlib6engine8database11row_payload18encode_row_payloads_00s_0Bd_
FNDA:358,_RNCNCNvNtNtNtCsksqSOdb1Dlf_9serverlib6engine8database11row_payload18encode_row_payloads_00Bb_
FNDA:0,_RNCNCNvNtNtNtCsksqSOdb1Dlf_9serverlib6engine8database11row_payload22field_names_by_ordinals_00Bb_
FNDA:0,_RNCNvNtNtNtCsksqSOdb1Dlf_9serverlib6engine8database11row_payload18encode_row_payload0B9_
FNDA:0,_RNCNvNtNtNtCsksqSOdb1Dlf_9serverlib6engine8database11row_payload18encode_row_payloads0_0B9_
FNDA:369,_RNCNvNtNtNtCsksqSOdb1Dlf_9serverlib6engine8database11row_payload18encode_row_payloads_0B9_
FNDA:756,_RNCNvNtNtNtCsksqSOdb1Dlf_9serverlib6engine8database11row_payload22field_names_by_ordinal0B9_
FNDA:445,_RNCNvNtNtNtCsksqSOdb1Dlf_9serverlib6engine8database11row_payload22field_names_by_ordinals_0B9_
FNDA:0,_RNCNvNtNtNtCsksqSOdb1Dlf_9serverlib6engine8database11row_payload37encode_encrypted_row_payload_envelope0B9_
FNDA:19,_RNvMs3_NtNtNtCsksqSOdb1Dlf_9serverlib6engine8database11row_payloadINtB5_34RowPayloadEncryptionWriteTransformNtB5_40UnconfiguredRowPayloadEncryptionProviderE3newBb_
FNDA:1,_RNvMs3_NtNtNtCsksqSOdb1Dlf_9serverlib6engine8database11row_payloadINtB5_34RowPayloadEncryptionWriteTransformNtNvNtB5_5testss_87row_payload_encryption_write_transform_uses_provider_when_encryption_context_is_present22StubEncryptionProviderE3newBb_
FNDA:19,_RNvMs4_NtNtNtCsksqSOdb1Dlf_9serverlib6engine8database11row_payloadINtB5_29RowPayloadDecryptionTransformNtB5_40UnconfiguredRowPayloadDecryptionProviderE3newBb_
FNDA:1,_RNvMs4_NtNtNtCsksqSOdb1Dlf_9serverlib6engine8database11row_payloadINtB5_29RowPayloadDecryptionTransformNtNvNtB5_5testss_81row_payload_decryption_transform_uses_provider_when_encryption_context_is_present22StubDecryptionProviderE3newBb_
FNDA:19,_RNvXs5_NtNtNtCsksqSOdb1Dlf_9serverlib6engine8database11row_payloadINtB5_34RowPayloadEncryptionWriteTransformNtB5_40UnconfiguredRowPayloadEncryptionProviderENtNtNtB7_11transaction6record32TransactionPayloadWriteTransform27transform_payload_for_writeBb_
FNDA:1,_RNvXs5_NtNtNtCsksqSOdb1Dlf_9serverlib6engine8database11row_payloadINtB5_34RowPayloadEncryptionWriteTransformNtNvNtB5_5testss_87row_payload_encryption_write_transform_uses_provider_when_encryption_context_is_present22StubEncryptionProviderENtNtNtB7_11transaction6record32TransactionPayloadWriteTransform27transform_payload_for_writeBb_
FNDA:19,_RNvXs6_NtNtNtCsksqSOdb1Dlf_9serverlib6engine8database11row_payloadINtB5_29RowPayloadDecryptionTransformNtB5_40UnconfiguredRowPayloadDecryptionProviderENtNtNtB7_11transaction6record27TransactionPayloadTransform17transform_payloadBb_
FNDA:1,_RNvXs6_NtNtNtCsksqSOdb1Dlf_9serverlib6engine8database11row_payloadINtB5_29RowPayloadDecryptionTransformNtNvNtB5_5testss_81row_payload_decryption_transform_uses_provider_when_encryption_context_is_present22StubDecryptionProviderENtNtNtB7_11transaction6record27TransactionPayloadTransform17transform_payloadBb_
FNDA:37,_RNvMNtNtNtCsksqSOdb1Dlf_9serverlib6engine8database11row_payloadNtB2_28EncryptedRowPayloadTransform15preserve_opaque
FNDA:2,_RNvMNtNtNtCsksqSOdb1Dlf_9serverlib6engine8database11row_payloadNtB2_28EncryptedRowPayloadTransform16reject_encrypted
FNDA:13,_RNvMs7_NtNtNtCsksqSOdb1Dlf_9serverlib6engine8database11row_payloadNtB5_27EncryptedRowPayloadEnvelope3new
FNDA:165,_RNvNtNtNtCsksqSOdb1Dlf_9serverlib6engine8database11row_payload18decode_row_payload
FNDA:151,_RNvNtNtNtCsksqSOdb1Dlf_9serverlib6engine8database11row_payload18encode_row_payload
FNDA:316,_RNvNtNtNtCsksqSOdb1Dlf_9serverlib6engine8database11row_payload22field_names_by_ordinal
FNDA:36,_RNvNtNtNtCsksqSOdb1Dlf_9serverlib6engine8database11row_payload32looks_like_encrypted_row_payload
FNDA:79,_RNvNtNtNtCsksqSOdb1Dlf_9serverlib6engine8database11row_payload37decode_encrypted_row_payload_envelope
FNDA:13,_RNvNtNtNtCsksqSOdb1Dlf_9serverlib6engine8database11row_payload37encode_encrypted_row_payload_envelope
FNDA:18,_RNvNtNtNtCsksqSOdb1Dlf_9serverlib6engine8database11row_payload43looks_like_valid_encrypted_payload_envelope
FNDA:18,_RNvXs0_NtNtNtCsksqSOdb1Dlf_9serverlib6engine8database11row_payloadNtB5_28EncryptedRowPayloadTransformNtNtNtB7_11transaction6record32TransactionPayloadWriteTransform27transform_payload_for_write
FNDA:2,_RNvXs1_NtNtNtCsksqSOdb1Dlf_9serverlib6engine8database11row_payloadNtB5_40UnconfiguredRowPayloadEncryptionProviderNtB5_28RowPayloadEncryptionProvider19encrypt_row_payload
FNDA:3,_RNvXs2_NtNtNtCsksqSOdb1Dlf_9serverlib6engine8database11row_payloadNtB5_40UnconfiguredRowPayloadDecryptionProviderNtB5_28RowPayloadDecryptionProvider19decrypt_row_payload
FNDA:18,_RNvXs_NtNtNtCsksqSOdb1Dlf_9serverlib6engine8database11row_payloadNtB4_28EncryptedRowPayloadTransformNtNtNtB6_11transaction6record27TransactionPayloadTransform17transform_payload
FNF:31
FNH:23
DA:39,37
DA:40,37
DA:41,37
DA:42,37
DA:43,37
DA:45,2
DA:46,2
DA:47,2
DA:48,2
DA:49,2
DA:55,18
DA:56,18
DA:57,18
DA:58,18
DA:59,18
DA:61,18
DA:63,3
DA:65,2
DA:68,1
DA:72,15
DA:74,0
DA:75,0
DA:76,0
DA:78,0
DA:84,18
DA:90,18
DA:91,18
DA:92,18
DA:93,18
DA:94,18
DA:95,18
DA:97,18
DA:99,4
DA:101,3
DA:104,1
DA:108,14
DA:110,0
DA:111,0
DA:112,0
DA:114,0
DA:120,18
DA:149,2
DA:150,2
DA:151,2
DA:152,2
DA:153,2
DA:154,2
DA:155,2
DA:164,3
DA:165,3
DA:166,3
DA:167,3
DA:168,3
DA:169,3
DA:170,3
DA:179,20
DA:180,20
DA:181,20
DA:189,20
DA:190,20
DA:191,20
DA:198,20
DA:199,20
DA:200,20
DA:201,20
DA:202,20
DA:203,20
DA:205,20
DA:206,0
DA:207,20
DA:209,20
DA:210,2
DA:211,18
DA:213,18
DA:214,15
DA:217,3
DA:218,0
DA:219,3
DA:221,3
DA:222,3
DA:223,3
DA:225,20
DA:231,20
DA:232,20
DA:233,20
DA:234,20
DA:235,20
DA:237,20
DA:238,16
DA:241,4
DA:242,4
DA:243,0
DA:244,4
DA:246,4
DA:248,4
DA:249,4
DA:250,4
DA:251,4
DA:253,0
DA:255,0
DA:256,0
DA:257,0
DA:259,0
DA:265,20
DA:281,13
DA:282,13
DA:283,13
DA:284,13
DA:285,13
DA:286,13
DA:287,13
DA:288,13
DA:292,13
DA:293,13
DA:294,13
DA:295,13
DA:296,13
DA:297,13
DA:299,13
DA:300,13
DA:302,13
DA:304,79
DA:305,79
DA:306,79
DA:308,79
DA:309,18
DA:310,18
DA:311,61
DA:313,61
DA:314,61
DA:317,0
DA:318,0
DA:319,0
DA:321,0
DA:322,0
DA:323,0
DA:324,0
DA:325,0
DA:326,0
DA:328,0
DA:329,0
DA:330,0
DA:331,0
DA:332,0
DA:333,0
DA:335,0
DA:336,0
DA:337,0
DA:339,0
DA:341,79
DA:343,36
DA:344,36
DA:345,36
DA:347,18
DA:348,18
DA:349,18
DA:351,18
DA:352,18
DA:353,18
DA:354,18
DA:356,18
DA:358,316
DA:360,316
DA:361,316
DA:362,316
DA:363,756
DA:364,316
DA:366,445
DA:367,445
DA:368,445
DA:369,445
DA:370,445
DA:372,316
DA:374,316
DA:376,151
DA:377,151
DA:378,151
DA:379,151
DA:381,151
DA:383,151
DA:384,2
DA:385,149
DA:387,149
DA:388,149
DA:389,369
DA:390,369
DA:391,358
DA:392,358
DA:393,358
DA:394,358
DA:395,358
DA:396,358
DA:397,358
DA:399,358
DA:400,358
DA:401,358
DA:402,358
DA:403,369
DA:404,149
DA:406,149
DA:408,151
DA:410,165
DA:411,165
DA:412,165
DA:413,165
DA:415,165
DA:417,165
DA:419,160
DA:421,381
DA:422,381
DA:423,381
DA:424,374
DA:425,374
DA:428,160
DA:429,5
DA:431,5
DA:432,4
DA:433,1
DA:435,1
DA:437,0
DA:439,0
DA:440,0
DA:441,0
DA:442,0
DA:445,0
DA:446,1
DA:448,1
DA:449,1
DA:450,1
DA:451,1
DA:452,0
DA:454,0
DA:456,165
DA:458,0
DA:459,0
DA:460,0
DA:461,0
DA:462,0
DA:464,0
DA:466,0
DA:467,0
DA:468,0
DA:469,0
DA:471,0
DA:472,0
DA:473,0
DA:475,0
DA:476,0
DA:477,0
DA:478,0
DA:480,0
DA:481,0
DA:482,0
DA:483,0
DA:484,0
DA:486,0
DA:488,0
BRF:0
BRH:0
LF:269
LH:195
end_of_record
SF:/Users/samcolak/Source Code/rust/distdb/distdb/serverlib/src/engine/database/row_payload_test.rs
FN:6,_RNvNtNtNtNtCsksqSOdb1Dlf_9serverlib6engine8database11row_payload5tests11test_schema
FN:258,_RNvNtNtNtNtCsksqSOdb1Dlf_9serverlib6engine8database11row_payload5testss_101row_payload_encryption_write_transform_reports_unconfigured_provider_when_context_requires_encryption
FN:75,_RNvNtNtNtNtCsksqSOdb1Dlf_9serverlib6engine8database11row_payload5testss_30decode_accepts_legacy_name_map
FN:62,_RNvNtNtNtNtCsksqSOdb1Dlf_9serverlib6engine8database11row_payload5testss_37decode_round_trips_ordinal_with_nulls
FN:41,_RNvNtNtNtNtCsksqSOdb1Dlf_9serverlib6engine8database11row_payload5testss_40encode_uses_seqno_ordinal_and_null_slots
FN:92,_RNvNtNtNtNtCsksqSOdb1Dlf_9serverlib6engine8database11row_payload5testss_40encrypted_row_payload_envelope_roundtrip
FN:112,_RNvNtNtNtNtCsksqSOdb1Dlf_9serverlib6engine8database11row_payload5testss_51decode_rejects_encrypted_payload_without_decryption
FN:162,_RNvNtNtNtNtCsksqSOdb1Dlf_9serverlib6engine8database11row_payload5testss_58encrypted_row_payload_transform_ignores_plaintext_payloads
FN:127,_RNvNtNtNtNtCsksqSOdb1Dlf_9serverlib6engine8database11row_payload5testss_60encrypted_row_payload_transform_can_preserve_opaque_payloads
FN:145,_RNvNtNtNtNtCsksqSOdb1Dlf_9serverlib6engine8database11row_payload5testss_61encrypted_row_payload_transform_can_reject_encrypted_payloads
FN:174,_RNvNtNtNtNtCsksqSOdb1Dlf_9serverlib6engine8database11row_payload5testss_66encrypted_row_payload_write_transform_can_preserve_opaque_payloads
FN:205,_RNvNtNtNtNtCsksqSOdb1Dlf_9serverlib6engine8database11row_payload5testss_67encrypted_row_payload_write_transform_can_reject_encrypted_payloads
FN:366,_RNvNtNtNtNtCsksqSOdb1Dlf_9serverlib6engine8database11row_payload5testss_81row_payload_decryption_transform_uses_provider_when_encryption_context_is_present
FN:235,_RNvNtNtNtNtCsksqSOdb1Dlf_9serverlib6engine8database11row_payload5testss_83row_payload_encryption_write_transform_ignores_plaintext_without_encryption_context
FN:328,_RNvNtNtNtNtCsksqSOdb1Dlf_9serverlib6engine8database11row_payload5testss_85row_payload_decryption_transform_ignores_encrypted_payload_without_encryption_context
FN:281,_RNvNtNtNtNtCsksqSOdb1Dlf_9serverlib6engine8database11row_payload5testss_87row_payload_encryption_write_transform_uses_provider_when_encryption_context_is_present
FN:345,_RNvNtNtNtNtCsksqSOdb1Dlf_9serverlib6engine8database11row_payload5testss_95row_payload_decryption_transform_reports_unconfigured_provider_when_context_requires_encryption
FN:370,_RNvXNvNtNtNtNtCsksqSOdb1Dlf_9serverlib6engine8database11row_payload5testss_81row_payload_decryption_transform_uses_provider_when_encryption_context_is_presentNtB2_22StubDecryptionProviderNtB6_28RowPayloadDecryptionProvider19decrypt_row_payload
FN:285,_RNvXNvNtNtNtNtCsksqSOdb1Dlf_9serverlib6engine8database11row_payload5testss_87row_payload_encryption_write_transform_uses_provider_when_encryption_context_is_presentNtB2_22StubEncryptionProviderNtB6_28RowPayloadEncryptionProvider19encrypt_row_payload
FNDA:4,_RNvNtNtNtNtCsksqSOdb1Dlf_9serverlib6engine8database11row_payload5tests11test_schema
FNDA:1,_RNvNtNtNtNtCsksqSOdb1Dlf_9serverlib6engine8database11row_payload5testss_101row_payload_encryption_write_transform_reports_unconfigured_provider_when_context_requires_encryption
FNDA:1,_RNvNtNtNtNtCsksqSOdb1Dlf_9serverlib6engine8database11row_payload5testss_30decode_accepts_legacy_name_map
FNDA:1,_RNvNtNtNtNtCsksqSOdb1Dlf_9serverlib6engine8database11row_payload5testss_37decode_round_trips_ordinal_with_nulls
FNDA:1,_RNvNtNtNtNtCsksqSOdb1Dlf_9serverlib6engine8database11row_payload5testss_40encode_uses_seqno_ordinal_and_null_slots
FNDA:1,_RNvNtNtNtNtCsksqSOdb1Dlf_9serverlib6engine8database11row_payload5testss_40encrypted_row_payload_envelope_roundtrip
FNDA:1,_RNvNtNtNtNtCsksqSOdb1Dlf_9serverlib6engine8database11row_payload5testss_51decode_rejects_encrypted_payload_without_decryption
FNDA:1,_RNvNtNtNtNtCsksqSOdb1Dlf_9serverlib6engine8database11row_payload5testss_58encrypted_row_payload_transform_ignores_plaintext_payloads
FNDA:1,_RNvNtNtNtNtCsksqSOdb1Dlf_9serverlib6engine8database11row_payload5testss_60encrypted_row_payload_transform_can_preserve_opaque_payloads
FNDA:1,_RNvNtNtNtNtCsksqSOdb1Dlf_9serverlib6engine8database11row_payload5testss_61encrypted_row_payload_transform_can_reject_encrypted_payloads
FNDA:1,_RNvNtNtNtNtCsksqSOdb1Dlf_9serverlib6engine8database11row_payload5testss_66encrypted_row_payload_write_transform_can_preserve_opaque_payloads
FNDA:1,_RNvNtNtNtNtCsksqSOdb1Dlf_9serverlib6engine8database11row_payload5testss_67encrypted_row_payload_write_transform_can_reject_encrypted_payloads
FNDA:1,_RNvNtNtNtNtCsksqSOdb1Dlf_9serverlib6engine8database11row_payload5testss_81row_payload_decryption_transform_uses_provider_when_encryption_context_is_present
FNDA:1,_RNvNtNtNtNtCsksqSOdb1Dlf_9serverlib6engine8database11row_payload5testss_83row_payload_encryption_write_transform_ignores_plaintext_without_encryption_context
FNDA:1,_RNvNtNtNtNtCsksqSOdb1Dlf_9serverlib6engine8database11row_payload5testss_85row_payload_decryption_transform_ignores_encrypted_payload_without_encryption_context
FNDA:1,_RNvNtNtNtNtCsksqSOdb1Dlf_9serverlib6engine8database11row_payload5testss_87row_payload_encryption_write_transform_uses_provider_when_encryption_context_is_present
FNDA:1,_RNvNtNtNtNtCsksqSOdb1Dlf_9serverlib6engine8database11row_payload5testss_95row_payload_decryption_transform_reports_unconfigured_provider_when_context_requires_encryption
FNDA:1,_RNvXNvNtNtNtNtCsksqSOdb1Dlf_9serverlib6engine8database11row_payload5testss_81row_payload_decryption_transform_uses_provider_when_encryption_context_is_presentNtB2_22StubDecryptionProviderNtB6_28RowPayloadDecryptionProvider19decrypt_row_payload
FNDA:1,_RNvXNvNtNtNtNtCsksqSOdb1Dlf_9serverlib6engine8database11row_payload5testss_87row_payload_encryption_write_transform_uses_provider_when_encryption_context_is_presentNtB2_22StubEncryptionProviderNtB6_28RowPayloadEncryptionProvider19encrypt_row_payload
FNF:19
FNH:19
DA:6,4
DA:8,4
DA:9,4
DA:10,4
DA:11,4
DA:12,4
DA:13,4
DA:14,4
DA:15,4
DA:16,4
DA:17,4
DA:18,4
DA:19,4
DA:20,4
DA:21,4
DA:22,4
DA:23,4
DA:24,4
DA:25,4
DA:26,4
DA:27,4
DA:28,4
DA:29,4
DA:30,4
DA:31,4
DA:32,4
DA:33,4
DA:34,4
DA:35,4
DA:38,4
DA:41,1
DA:43,1
DA:45,1
DA:46,1
DA:47,1
DA:49,1
DA:50,1
DA:51,1
DA:53,1
DA:54,1
DA:55,1
DA:56,1
DA:57,1
DA:59,1
DA:62,1
DA:63,1
DA:64,1
DA:66,1
DA:67,1
DA:69,1
DA:70,1
DA:71,1
DA:72,1
DA:75,1
DA:76,1
DA:77,1
DA:78,1
DA:79,1
DA:81,1
DA:82,1
DA:84,1
DA:85,1
DA:86,1
DA:87,1
DA:89,1
DA:92,1
DA:93,1
DA:95,1
DA:96,1
DA:97,1
DA:99,1
DA:101,1
DA:102,1
DA:103,1
DA:105,1
DA:106,1
DA:107,1
DA:108,1
DA:109,1
DA:112,1
DA:113,1
DA:114,1
DA:116,1
DA:117,1
DA:118,1
DA:120,1
DA:122,1
DA:123,1
DA:124,1
DA:127,1
DA:128,1
DA:130,1
DA:131,1
DA:132,1
DA:134,1
DA:136,1
DA:137,1
DA:138,1
DA:139,1
DA:141,1
DA:142,1
DA:145,1
DA:146,1
DA:148,1
DA:149,1
DA:150,1
DA:152,1
DA:154,1
DA:155,1
DA:156,1
DA:158,1
DA:159,1
DA:162,1
DA:163,1
DA:164,1
DA:165,1
DA:166,1
DA:168,1
DA:170,1
DA:171,1
DA:174,1
DA:175,1
DA:177,1
DA:178,1
DA:179,1
DA:181,1
DA:182,1
DA:183,1
DA:184,1
DA:185,1
DA:187,1
DA:188,1
DA:189,1
DA:192,1
DA:193,1
DA:194,1
DA:195,1
DA:196,1
DA:198,1
DA:199,1
DA:201,1
DA:202,1
DA:205,1
DA:206,1
DA:208,1
DA:209,1
DA:210,1
DA:212,1
DA:213,1
DA:214,1
DA:215,1
DA:216,1
DA:218,1
DA:219,1
DA:220,1
DA:223,1
DA:224,1
DA:225,1
DA:226,1
DA:227,1
DA:229,1
DA:231,1
DA:232,1
DA:235,1
DA:236,1
DA:237,1
DA:238,1
DA:239,1
DA:241,1
DA:242,1
DA:243,1
DA:246,1
DA:247,1
DA:248,1
DA:249,1
DA:250,1
DA:252,1
DA:254,1
DA:255,1
DA:258,1
DA:259,1
DA:260,1
DA:261,1
DA:262,1
DA:264,1
DA:265,1
DA:266,1
DA:268,1
DA:269,1
DA:270,1
DA:271,1
DA:273,1
DA:274,1
DA:275,1
DA:277,1
DA:278,1
DA:281,1
DA:285,1
DA:286,1
DA:287,1
DA:288,1
DA:289,1
DA:290,1
DA:291,1
DA:292,1
DA:293,1
DA:294,1
DA:296,1
DA:297,1
DA:300,1
DA:301,1
DA:302,1
DA:303,1
DA:305,1
DA:306,1
DA:307,1
DA:309,1
DA:310,1
DA:311,1
DA:312,1
DA:314,1
DA:315,1
DA:316,1
DA:317,1
DA:319,1
DA:320,1
DA:321,1
DA:323,1
DA:324,1
DA:325,1
DA:328,1
DA:329,1
DA:331,1
DA:332,1
DA:333,1
DA:335,1
DA:337,1
DA:338,1
DA:339,1
DA:341,1
DA:342,1
DA:345,1
DA:346,1
DA:348,1
DA:349,1
DA:350,1
DA:352,1
DA:353,1
DA:354,1
DA:355,1
DA:356,1
DA:358,1
DA:359,1
DA:360,1
DA:362,1
DA:363,1
DA:366,1
DA:370,1
DA:371,1
DA:372,1
DA:373,1
DA:374,1
DA:375,1
DA:376,1
DA:379,1
DA:381,1
DA:382,1
DA:383,1
DA:385,1
DA:386,1
DA:387,1
DA:388,1
DA:389,1
DA:391,1
DA:392,1
DA:393,1
DA:394,1
DA:396,1
DA:397,1
BRF:0
BRH:0
LF:279
LH:279
end_of_record
SF:/Users/samcolak/Source Code/rust/distdb/distdb/serverlib/src/engine/database/runtime_index.rs
FN:441,_RINvMs_NtNtNtCsksqSOdb1Dlf_9serverlib6engine8database13runtime_indexNtB5_17RuntimeIndexStore16record_table_rowpEBb_
FN:464,_RINvMs_NtNtNtCsksqSOdb1Dlf_9serverlib6engine8database13runtime_indexNtB5_17RuntimeIndexStore16remove_table_rowpEBb_
FN:562,_RINvMs_NtNtNtCsksqSOdb1Dlf_9serverlib6engine8database13runtime_indexNtB5_17RuntimeIndexStore21reserve_table_indexespEBb_
FN:579,_RINvMs_NtNtNtCsksqSOdb1Dlf_9serverlib6engine8database13runtime_indexNtB5_17RuntimeIndexStore24apply_table_row_mutationpEBb_
FN:450,_RINvMs_NtNtNtCsksqSOdb1Dlf_9serverlib6engine8database13runtime_indexNtB5_17RuntimeIndexStore26record_table_row_for_tablepEBb_
FN:482,_RINvMs_NtNtNtCsksqSOdb1Dlf_9serverlib6engine8database13runtime_indexNtB5_17RuntimeIndexStore26remove_table_row_for_tablepEBb_
FN:1204,_RNCNCNvMs_NtNtNtCsksqSOdb1Dlf_9serverlib6engine8database13runtime_indexNtB8_17RuntimeIndexStore32persist_table_snapshot_on_commits1_00Be_
FN:367,_RNCNvMs_NtNtNtCsksqSOdb1Dlf_9serverlib6engine8database13runtime_indexNtB6_17RuntimeIndexStore11cardinality0Bc_
FN:382,_RNCNvMs_NtNtNtCsksqSOdb1Dlf_9serverlib6engine8database13runtime_indexNtB6_17RuntimeIndexStore15stats_for_table0Bc_
FN:1136,_RNCNvMs_NtNtNtCsksqSOdb1Dlf_9serverlib6engine8database13runtime_indexNtB6_17RuntimeIndexStore16clone_for_tables0Bc_
FN:372,_RNCNvMs_NtNtNtCsksqSOdb1Dlf_9serverlib6engine8database13runtime_indexNtB6_17RuntimeIndexStore21cardinality_for_table0Bc_
FN:1171,_RNCNvMs_NtNtNtCsksqSOdb1Dlf_9serverlib6engine8database13runtime_indexNtB6_17RuntimeIndexStore32persist_table_snapshot_on_commit0Bc_
FN:1200,_RNCNvMs_NtNtNtCsksqSOdb1Dlf_9serverlib6engine8database13runtime_indexNtB6_17RuntimeIndexStore32persist_table_snapshot_on_commits0_0Bc_
FN:1201,_RNCNvMs_NtNtNtCsksqSOdb1Dlf_9serverlib6engine8database13runtime_indexNtB6_17RuntimeIndexStore32persist_table_snapshot_on_commits1_0Bc_
FN:377,_RNCNvMs_NtNtNtCsksqSOdb1Dlf_9serverlib6engine8database13runtime_indexNtB6_17RuntimeIndexStore5stats0Bc_
FN:135,_RNCNvNtNtNtCsksqSOdb1Dlf_9serverlib6engine8database13runtime_index47runtime_index_incremental_persistence_on_commit0B9_
FN:147,_RNCNvNtNtNtCsksqSOdb1Dlf_9serverlib6engine8database13runtime_index53runtime_index_incremental_persistence_min_interval_ms0B9_
FN:208,_RNvMNtNtNtCsksqSOdb1Dlf_9serverlib6engine8database13runtime_indexNtB2_17RuntimeIndexState15reserve_entries
FN:200,_RNvMNtNtNtCsksqSOdb1Dlf_9serverlib6engine8database13runtime_indexNtB2_17RuntimeIndexState8capacity
FN:413,_RNvMs_NtNtNtCsksqSOdb1Dlf_9serverlib6engine8database13runtime_indexNtB4_17RuntimeIndexStore10record_row
FN:366,_RNvMs_NtNtNtCsksqSOdb1Dlf_9serverlib6engine8database13runtime_indexNtB4_17RuntimeIndexStore11cardinality
FN:380,_RNvMs_NtNtNtCsksqSOdb1Dlf_9serverlib6engine8database13runtime_indexNtB4_17RuntimeIndexStore15stats_for_table
FN:1114,_RNvMs_NtNtNtCsksqSOdb1Dlf_9serverlib6engine8database13runtime_indexNtB4_17RuntimeIndexStore16clone_for_tables
FN:424,_RNvMs_NtNtNtCsksqSOdb1Dlf_9serverlib6engine8database13runtime_indexNtB4_17RuntimeIndexStore20record_row_for_table
FN:370,_RNvMs_NtNtNtCsksqSOdb1Dlf_9serverlib6engine8database13runtime_indexNtB4_17RuntimeIndexStore21cardinality_for_table
FN:504,_RNvMs_NtNtNtCsksqSOdb1Dlf_9serverlib6engine8database13runtime_indexNtB4_17RuntimeIndexStore23record_table_rows_batch
FN:534,_RNvMs_NtNtNtCsksqSOdb1Dlf_9serverlib6engine8database13runtime_indexNtB4_17RuntimeIndexStore23remove_table_rows_batch
FN:1153,_RNvMs_NtNtNtCsksqSOdb1Dlf_9serverlib6engine8database13runtime_indexNtB4_17RuntimeIndexStore32persist_table_snapshot_on_commit
FN:375,_RNvMs_NtNtNtCsksqSOdb1Dlf_9serverlib6engine8database13runtime_indexNtB4_17RuntimeIndexStore5stats
FN:346,_RNvMs_NtNtNtCsksqSOdb1Dlf_9serverlib6engine8database13runtime_indexNtB4_17RuntimeIndexStore9index_mut
FN:246,_RNvNtNtNtCsksqSOdb1Dlf_9serverlib6engine8database13runtime_index14table_scope_id
FN:132,_RNvNtNtNtCsksqSOdb1Dlf_9serverlib6engine8database13runtime_index47runtime_index_incremental_persistence_on_commit
FN:144,_RNvNtNtNtCsksqSOdb1Dlf_9serverlib6engine8database13runtime_index53runtime_index_incremental_persistence_min_interval_ms
FN:1835,_RNvXs0_NtNtNtCsksqSOdb1Dlf_9serverlib6engine8database13runtime_indexNtB5_17RuntimeIndexStoreNtNtCsfOyy81DYK0U_4core7default7Default7default
FN:99,_RINvNtNtNtCsksqSOdb1Dlf_9serverlib6engine8database13runtime_index23decode_snapshot_payloadNtB2_22TableLiveRowCheckpointEB8_
FN:99,_RINvNtNtNtCsksqSOdb1Dlf_9serverlib6engine8database13runtime_index23decode_snapshot_payloadNtB2_25RuntimeIndexTableSnapshotEB8_
FN:99,_RINvNtNtNtCsksqSOdb1Dlf_9serverlib6engine8database13runtime_index23decode_snapshot_payloadNtB2_26TableAccessorCacheSnapshotEB8_
FN:85,_RINvNtNtNtCsksqSOdb1Dlf_9serverlib6engine8database13runtime_index23encode_snapshot_payloadNtB2_22TableLiveRowCheckpointEB8_
FN:85,_RINvNtNtNtCsksqSOdb1Dlf_9serverlib6engine8database13runtime_index23encode_snapshot_payloadNtB2_25RuntimeIndexTableSnapshotEB8_
FN:85,_RINvNtNtNtCsksqSOdb1Dlf_9serverlib6engine8database13runtime_index23encode_snapshot_payloadNtB2_26TableAccessorCacheSnapshotEB8_
FN:109,_RNCINvNtNtNtCsksqSOdb1Dlf_9serverlib6engine8database13runtime_index23decode_snapshot_payloadNtB4_22TableLiveRowCheckpointE0Ba_
FN:109,_RNCINvNtNtNtCsksqSOdb1Dlf_9serverlib6engine8database13runtime_index23decode_snapshot_payloadNtB4_25RuntimeIndexTableSnapshotE0Ba_
FN:109,_RNCINvNtNtNtCsksqSOdb1Dlf_9serverlib6engine8database13runtime_index23decode_snapshot_payloadNtB4_26TableAccessorCacheSnapshotE0Ba_
FN:87,_RNCINvNtNtNtCsksqSOdb1Dlf_9serverlib6engine8database13runtime_index23encode_snapshot_payloadNtB4_22TableLiveRowCheckpointE0Ba_
FN:96,_RNCINvNtNtNtCsksqSOdb1Dlf_9serverlib6engine8database13runtime_index23encode_snapshot_payloadNtB4_22TableLiveRowCheckpointEs0_0Ba_
FN:92,_RNCINvNtNtNtCsksqSOdb1Dlf_9serverlib6engine8database13runtime_index23encode_snapshot_payloadNtB4_22TableLiveRowCheckpointEs_0Ba_
FN:87,_RNCINvNtNtNtCsksqSOdb1Dlf_9serverlib6engine8database13runtime_index23encode_snapshot_payloadNtB4_25RuntimeIndexTableSnapshotE0Ba_
FN:96,_RNCINvNtNtNtCsksqSOdb1Dlf_9serverlib6engine8database13runtime_index23encode_snapshot_payloadNtB4_25RuntimeIndexTableSnapshotEs0_0Ba_
FN:92,_RNCINvNtNtNtCsksqSOdb1Dlf_9serverlib6engine8database13runtime_index23encode_snapshot_payloadNtB4_25RuntimeIndexTableSnapshotEs_0Ba_
FN:87,_RNCINvNtNtNtCsksqSOdb1Dlf_9serverlib6engine8database13runtime_index23encode_snapshot_payloadNtB4_26TableAccessorCacheSnapshotE0Ba_
FN:96,_RNCINvNtNtNtCsksqSOdb1Dlf_9serverlib6engine8database13runtime_index23encode_snapshot_payloadNtB4_26TableAccessorCacheSnapshotEs0_0Ba_
FN:92,_RNCINvNtNtNtCsksqSOdb1Dlf_9serverlib6engine8database13runtime_index23encode_snapshot_payloadNtB4_26TableAccessorCacheSnapshotEs_0Ba_
FN:1794,_RNCNCNCNvNtNtNtCsksqSOdb1Dlf_9serverlib6engine8database13runtime_index28build_snapshot_index_entriess0_000Bd_
FN:1909,_RNCNCNvNtNtNtCsksqSOdb1Dlf_9serverlib6engine8database13runtime_index17primary_key_indexs_00Bb_
FN:1787,_RNCNCNvNtNtNtCsksqSOdb1Dlf_9serverlib6engine8database13runtime_index28build_snapshot_index_entriess0_00Bb_
FN:1754,_RNCNCNvNtNtNtCsksqSOdb1Dlf_9serverlib6engine8database13runtime_index28build_snapshot_index_entriess_00Bb_
FN:1755,_RNCNCNvNtNtNtCsksqSOdb1Dlf_9serverlib6engine8database13runtime_index28build_snapshot_index_entriess_0s_0Bb_
FN:1473,_RNCNCNvNtNtNtCsksqSOdb1Dlf_9serverlib6engine8database13runtime_index28load_accessor_cache_snapshot00Bb_
FN:1695,_RNCNCNvNtNtNtCsksqSOdb1Dlf_9serverlib6engine8database13runtime_index29build_bootstrap_index_entriess0_00Bb_
FN:393,_RNCNvMs_NtNtNtCsksqSOdb1Dlf_9serverlib6engine8database13runtime_indexNtB6_17RuntimeIndexStore14register_index0Bc_
FN:668,_RNCNvMs_NtNtNtCsksqSOdb1Dlf_9serverlib6engine8database13runtime_indexNtB6_17RuntimeIndexStore23bootstrap_from_catalogs0Bc_
FN:689,_RNCNvMs_NtNtNtCsksqSOdb1Dlf_9serverlib6engine8database13runtime_indexNtB6_17RuntimeIndexStore23bootstrap_from_catalogss0_0Bc_
FN:698,_RNCNvMs_NtNtNtCsksqSOdb1Dlf_9serverlib6engine8database13runtime_indexNtB6_17RuntimeIndexStore23bootstrap_from_catalogss1_0Bc_
FN:699,_RNCNvMs_NtNtNtCsksqSOdb1Dlf_9serverlib6engine8database13runtime_indexNtB6_17RuntimeIndexStore23bootstrap_from_catalogss2_0Bc_
FN:707,_RNCNvMs_NtNtNtCsksqSOdb1Dlf_9serverlib6engine8database13runtime_indexNtB6_17RuntimeIndexStore23bootstrap_from_catalogss3_0Bc_
FN:727,_RNCNvMs_NtNtNtCsksqSOdb1Dlf_9serverlib6engine8database13runtime_indexNtB6_17RuntimeIndexStore23bootstrap_from_catalogss4_0Bc_
FN:830,_RNCNvMs_NtNtNtCsksqSOdb1Dlf_9serverlib6engine8database13runtime_indexNtB6_17RuntimeIndexStore23bootstrap_from_catalogss5_0Bc_
FN:942,_RNCNvMs_NtNtNtCsksqSOdb1Dlf_9serverlib6engine8database13runtime_indexNtB6_17RuntimeIndexStore23bootstrap_from_catalogss7_0Bc_
FN:685,_RNCNvMs_NtNtNtCsksqSOdb1Dlf_9serverlib6engine8database13runtime_indexNtB6_17RuntimeIndexStore23bootstrap_from_catalogss_0Bc_
FN:407,_RNCNvMs_NtNtNtCsksqSOdb1Dlf_9serverlib6engine8database13runtime_indexNtB6_17RuntimeIndexStore24register_index_for_table0Bc_
FN:329,_RNCNvMs_NtNtNtCsksqSOdb1Dlf_9serverlib6engine8database13runtime_indexNtB6_17RuntimeIndexStore38should_materialize_index_for_bootstrap0Bc_
FN:1904,_RNCNvNtNtNtCsksqSOdb1Dlf_9serverlib6engine8database13runtime_index17primary_key_index0B9_
FN:1905,_RNCNvNtNtNtCsksqSOdb1Dlf_9serverlib6engine8database13runtime_index17primary_key_indexs_0B9_
FN:1556,_RNCNvNtNtNtCsksqSOdb1Dlf_9serverlib6engine8database13runtime_index24save_live_row_checkpoint0B9_
FN:1582,_RNCNvNtNtNtCsksqSOdb1Dlf_9serverlib6engine8database13runtime_index24save_live_row_checkpoints0_0B9_
FN:1565,_RNCNvNtNtNtCsksqSOdb1Dlf_9serverlib6engine8database13runtime_index24save_live_row_checkpoints_0B9_
FN:1920,_RNCNvNtNtNtCsksqSOdb1Dlf_9serverlib6engine8database13runtime_index25derived_indexes_for_table0B9_
FN:1381,_RNCNvNtNtNtCsksqSOdb1Dlf_9serverlib6engine8database13runtime_index27load_runtime_index_snapshot0B9_
FN:1386,_RNCNvNtNtNtCsksqSOdb1Dlf_9serverlib6engine8database13runtime_index27load_runtime_index_snapshots_0B9_
FN:1495,_RNCNvNtNtNtCsksqSOdb1Dlf_9serverlib6engine8database13runtime_index27save_runtime_index_snapshot0B9_
FN:1511,_RNCNvNtNtNtCsksqSOdb1Dlf_9serverlib6engine8database13runtime_index27save_runtime_index_snapshots0_0B9_
FN:1535,_RNCNvNtNtNtCsksqSOdb1Dlf_9serverlib6engine8database13runtime_index27save_runtime_index_snapshots1_0B9_
FN:1504,_RNCNvNtNtNtCsksqSOdb1Dlf_9serverlib6engine8database13runtime_index27save_runtime_index_snapshots_0B9_
FN:1740,_RNCNvNtNtNtCsksqSOdb1Dlf_9serverlib6engine8database13runtime_index28build_snapshot_index_entries0B9_
FN:1773,_RNCNvNtNtNtCsksqSOdb1Dlf_9serverlib6engine8database13runtime_index28build_snapshot_index_entriess0_0B9_
FN:1750,_RNCNvNtNtNtCsksqSOdb1Dlf_9serverlib6engine8database13runtime_index28build_snapshot_index_entriess_0B9_
FN:1473,_RNCNvNtNtNtCsksqSOdb1Dlf_9serverlib6engine8database13runtime_index28load_accessor_cache_snapshot0B9_
FN:1604,_RNCNvNtNtNtCsksqSOdb1Dlf_9serverlib6engine8database13runtime_index28save_accessor_cache_snapshot0B9_
FN:1616,_RNCNvNtNtNtCsksqSOdb1Dlf_9serverlib6engine8database13runtime_index28save_accessor_cache_snapshots0_0B9_
FN:1635,_RNCNvNtNtNtCsksqSOdb1Dlf_9serverlib6engine8database13runtime_index28save_accessor_cache_snapshots1_0B9_
FN:1613,_RNCNvNtNtNtCsksqSOdb1Dlf_9serverlib6engine8database13runtime_index28save_accessor_cache_snapshots_0B9_
FN:1652,_RNCNvNtNtNtCsksqSOdb1Dlf_9serverlib6engine8database13runtime_index29build_bootstrap_index_entries0B9_
FN:1681,_RNCNvNtNtNtCsksqSOdb1Dlf_9serverlib6engine8database13runtime_index29build_bootstrap_index_entriess0_0B9_
FN:1663,_RNCNvNtNtNtCsksqSOdb1Dlf_9serverlib6engine8database13runtime_index29build_bootstrap_index_entriess_0B9_
FN:1299,_RNCNvNtNtNtCsksqSOdb1Dlf_9serverlib6engine8database13runtime_index34table_schema_fingerprint_for_parts0B9_
FN:1867,_RNCNvNtNtNtCsksqSOdb1Dlf_9serverlib6engine8database13runtime_index37parse_runtime_index_allowlist_entries0B9_
FN:1868,_RNCNvNtNtNtCsksqSOdb1Dlf_9serverlib6engine8database13runtime_index37parse_runtime_index_allowlist_entriess_0B9_
FN:264,_RNCNvNtNtNtCsksqSOdb1Dlf_9serverlib6engine8database13runtime_index37resolve_table_stream_id_for_bootstrap0B9_
FN:1845,_RNCNvNtNtNtCsksqSOdb1Dlf_9serverlib6engine8database13runtime_index37runtime_index_materialize_non_primary0B9_
FN:115,_RNCNvNtNtNtCsksqSOdb1Dlf_9serverlib6engine8database13runtime_index40runtime_index_parallel_build_max_workers0B9_
FN:116,_RNCNvNtNtNtCsksqSOdb1Dlf_9serverlib6engine8database13runtime_index40runtime_index_parallel_build_max_workerss_0B9_
FN:154,_RNCNvNtNtNtCsksqSOdb1Dlf_9serverlib6engine8database13runtime_index44runtime_index_preload_accessors_on_bootstrap0B9_
FN:123,_RNCNvNtNtNtCsksqSOdb1Dlf_9serverlib6engine8database13runtime_index50runtime_index_migrate_legacy_snapshot_on_bootstrap0B9_
FN:196,_RNvMNtNtNtCsksqSOdb1Dlf_9serverlib6engine8database13runtime_indexNtB2_17RuntimeIndexState11cardinality
FN:180,_RNvMNtNtNtCsksqSOdb1Dlf_9serverlib6engine8database13runtime_indexNtB2_17RuntimeIndexState3new
FN:188,_RNvMNtNtNtCsksqSOdb1Dlf_9serverlib6engine8database13runtime_indexNtB2_17RuntimeIndexState6insert
FN:192,_RNvMNtNtNtCsksqSOdb1Dlf_9serverlib6engine8database13runtime_indexNtB2_17RuntimeIndexState6remove
FN:204,_RNvMNtNtNtCsksqSOdb1Dlf_9serverlib6engine8database13runtime_indexNtB2_17RuntimeIndexState7rebuild
FN:184,_RNvMNtNtNtCsksqSOdb1Dlf_9serverlib6engine8database13runtime_indexNtB2_17RuntimeIndexState8contains
FN:385,_RNvMs_NtNtNtCsksqSOdb1Dlf_9serverlib6engine8database13runtime_indexNtB4_17RuntimeIndexStore14register_index
FN:340,_RNvMs_NtNtNtCsksqSOdb1Dlf_9serverlib6engine8database13runtime_indexNtB4_17RuntimeIndexStore15index_for_table
FN:292,_RNvMs_NtNtNtCsksqSOdb1Dlf_9serverlib6engine8database13runtime_indexNtB4_17RuntimeIndexStore18should_track_index
FN:355,_RNvMs_NtNtNtCsksqSOdb1Dlf_9serverlib6engine8database13runtime_indexNtB4_17RuntimeIndexStore19index_mut_for_table
FN:609,_RNvMs_NtNtNtCsksqSOdb1Dlf_9serverlib6engine8database13runtime_indexNtB4_17RuntimeIndexStore23bootstrap_from_catalogs
FN:399,_RNvMs_NtNtNtCsksqSOdb1Dlf_9serverlib6engine8database13runtime_indexNtB4_17RuntimeIndexStore24register_index_for_table
FN:302,_RNvMs_NtNtNtCsksqSOdb1Dlf_9serverlib6engine8database13runtime_indexNtB4_17RuntimeIndexStore38should_materialize_index_for_bootstrap
FN:280,_RNvMs_NtNtNtCsksqSOdb1Dlf_9serverlib6engine8database13runtime_indexNtB4_17RuntimeIndexStore3new
FN:336,_RNvMs_NtNtNtCsksqSOdb1Dlf_9serverlib6engine8database13runtime_indexNtB4_17RuntimeIndexStore5index
FN:242,_RNvNtNtNtCsksqSOdb1Dlf_9serverlib6engine8database13runtime_index15scoped_index_id
FN:1262,_RNvNtNtNtCsksqSOdb1Dlf_9serverlib6engine8database13runtime_index15wal_stream_path
FN:1882,_RNvNtNtNtCsksqSOdb1Dlf_9serverlib6engine8database13runtime_index17index_value_tuple
FN:1899,_RNvNtNtNtCsksqSOdb1Dlf_9serverlib6engine8database13runtime_index17primary_key_index
FN:1270,_RNvNtNtNtCsksqSOdb1Dlf_9serverlib6engine8database13runtime_index22wal_stream_fingerprint
FN:1251,_RNvNtNtNtCsksqSOdb1Dlf_9serverlib6engine8database13runtime_index24live_row_checkpoint_path
FN:1398,_RNvNtNtNtCsksqSOdb1Dlf_9serverlib6engine8database13runtime_index24load_live_row_checkpoint
FN:1546,_RNvNtNtNtCsksqSOdb1Dlf_9serverlib6engine8database13runtime_index24save_live_row_checkpoint
FN:1286,_RNvNtNtNtCsksqSOdb1Dlf_9serverlib6engine8database13runtime_index24table_schema_fingerprint
FN:1919,_RNvNtNtNtCsksqSOdb1Dlf_9serverlib6engine8database13runtime_index25derived_indexes_for_table
FN:1341,_RNvNtNtNtCsksqSOdb1Dlf_9serverlib6engine8database13runtime_index27load_runtime_index_snapshot
FN:1229,_RNvNtNtNtCsksqSOdb1Dlf_9serverlib6engine8database13runtime_index27runtime_index_snapshot_path
FN:1483,_RNvNtNtNtCsksqSOdb1Dlf_9serverlib6engine8database13runtime_index27save_runtime_index_snapshot
FN:1240,_RNvNtNtNtCsksqSOdb1Dlf_9serverlib6engine8database13runtime_index28accessor_cache_snapshot_path
FN:1734,_RNvNtNtNtCsksqSOdb1Dlf_9serverlib6engine8database13runtime_index28build_snapshot_index_entries
FN:1436,_RNvNtNtNtCsksqSOdb1Dlf_9serverlib6engine8database13runtime_index28load_accessor_cache_snapshot
FN:1593,_RNvNtNtNtCsksqSOdb1Dlf_9serverlib6engine8database13runtime_index28save_accessor_cache_snapshot
FN:1646,_RNvNtNtNtCsksqSOdb1Dlf_9serverlib6engine8database13runtime_index29build_bootstrap_index_entries
FN:1307,_RNvNtNtNtCsksqSOdb1Dlf_9serverlib6engine8database13runtime_index29load_live_row_checkpoint_rows
FN:1872,_RNvNtNtNtCsksqSOdb1Dlf_9serverlib6engine8database13runtime_index33parse_runtime_index_allowlist_env
FN:1290,_RNvNtNtNtCsksqSOdb1Dlf_9serverlib6engine8database13runtime_index34table_schema_fingerprint_for_parts
FN:1863,_RNvNtNtNtCsksqSOdb1Dlf_9serverlib6engine8database13runtime_index37parse_runtime_index_allowlist_entries
FN:256,_RNvNtNtNtCsksqSOdb1Dlf_9serverlib6engine8database13runtime_index37resolve_table_stream_id_for_bootstrap
FN:1841,_RNvNtNtNtCsksqSOdb1Dlf_9serverlib6engine8database13runtime_index37runtime_index_materialize_non_primary
FN:112,_RNvNtNtNtCsksqSOdb1Dlf_9serverlib6engine8database13runtime_index40runtime_index_parallel_build_max_workers
FN:1855,_RNvNtNtNtCsksqSOdb1Dlf_9serverlib6engine8database13runtime_index41runtime_index_non_primary_field_allowlist
FN:1859,_RNvNtNtNtCsksqSOdb1Dlf_9serverlib6engine8database13runtime_index41runtime_index_non_primary_index_allowlist
FN:151,_RNvNtNtNtCsksqSOdb1Dlf_9serverlib6engine8database13runtime_index44runtime_index_preload_accessors_on_bootstrap
FN:120,_RNvNtNtNtCsksqSOdb1Dlf_9serverlib6engine8database13runtime_index50runtime_index_migrate_legacy_snapshot_on_bootstrap
FNDA:0,_RINvMs_NtNtNtCsksqSOdb1Dlf_9serverlib6engine8database13runtime_indexNtB5_17RuntimeIndexStore16record_table_rowpEBb_
FNDA:0,_RINvMs_NtNtNtCsksqSOdb1Dlf_9serverlib6engine8database13runtime_indexNtB5_17RuntimeIndexStore16remove_table_rowpEBb_
FNDA:0,_RINvMs_NtNtNtCsksqSOdb1Dlf_9serverlib6engine8database13runtime_indexNtB5_17RuntimeIndexStore21reserve_table_indexespEBb_
FNDA:0,_RINvMs_NtNtNtCsksqSOdb1Dlf_9serverlib6engine8database13runtime_indexNtB5_17RuntimeIndexStore24apply_table_row_mutationpEBb_
FNDA:0,_RINvMs_NtNtNtCsksqSOdb1Dlf_9serverlib6engine8database13runtime_indexNtB5_17RuntimeIndexStore26record_table_row_for_tablepEBb_
FNDA:0,_RINvMs_NtNtNtCsksqSOdb1Dlf_9serverlib6engine8database13runtime_indexNtB5_17RuntimeIndexStore26remove_table_row_for_tablepEBb_
FNDA:0,_RNCNCNvMs_NtNtNtCsksqSOdb1Dlf_9serverlib6engine8database13runtime_indexNtB8_17RuntimeIndexStore32persist_table_snapshot_on_commits1_00Be_
FNDA:0,_RNCNvMs_NtNtNtCsksqSOdb1Dlf_9serverlib6engine8database13runtime_indexNtB6_17RuntimeIndexStore11cardinality0Bc_
FNDA:0,_RNCNvMs_NtNtNtCsksqSOdb1Dlf_9serverlib6engine8database13runtime_indexNtB6_17RuntimeIndexStore15stats_for_table0Bc_
FNDA:0,_RNCNvMs_NtNtNtCsksqSOdb1Dlf_9serverlib6engine8database13runtime_indexNtB6_17RuntimeIndexStore16clone_for_tables0Bc_
FNDA:0,_RNCNvMs_NtNtNtCsksqSOdb1Dlf_9serverlib6engine8database13runtime_indexNtB6_17RuntimeIndexStore21cardinality_for_table0Bc_
FNDA:0,_RNCNvMs_NtNtNtCsksqSOdb1Dlf_9serverlib6engine8database13runtime_indexNtB6_17RuntimeIndexStore32persist_table_snapshot_on_commit0Bc_
FNDA:0,_RNCNvMs_NtNtNtCsksqSOdb1Dlf_9serverlib6engine8database13runtime_indexNtB6_17RuntimeIndexStore32persist_table_snapshot_on_commits0_0Bc_
FNDA:0,_RNCNvMs_NtNtNtCsksqSOdb1Dlf_9serverlib6engine8database13runtime_indexNtB6_17RuntimeIndexStore32persist_table_snapshot_on_commits1_0Bc_
FNDA:0,_RNCNvMs_NtNtNtCsksqSOdb1Dlf_9serverlib6engine8database13runtime_indexNtB6_17RuntimeIndexStore5stats0Bc_
FNDA:0,_RNCNvNtNtNtCsksqSOdb1Dlf_9serverlib6engine8database13runtime_index47runtime_index_incremental_persistence_on_commit0B9_
FNDA:0,_RNCNvNtNtNtCsksqSOdb1Dlf_9serverlib6engine8database13runtime_index53runtime_index_incremental_persistence_min_interval_ms0B9_
FNDA:0,_RNvMNtNtNtCsksqSOdb1Dlf_9serverlib6engine8database13runtime_indexNtB2_17RuntimeIndexState15reserve_entries
FNDA:0,_RNvMNtNtNtCsksqSOdb1Dlf_9serverlib6engine8database13runtime_indexNtB2_17RuntimeIndexState8capacity
FNDA:0,_RNvMs_NtNtNtCsksqSOdb1Dlf_9serverlib6engine8database13runtime_indexNtB4_17RuntimeIndexStore10record_row
FNDA:0,_RNvMs_NtNtNtCsksqSOdb1Dlf_9serverlib6engine8database13runtime_indexNtB4_17RuntimeIndexStore11cardinality
FNDA:0,_RNvMs_NtNtNtCsksqSOdb1Dlf_9serverlib6engine8database13runtime_indexNtB4_17RuntimeIndexStore15stats_for_table
FNDA:0,_RNvMs_NtNtNtCsksqSOdb1Dlf_9serverlib6engine8database13runtime_indexNtB4_17RuntimeIndexStore16clone_for_tables
FNDA:0,_RNvMs_NtNtNtCsksqSOdb1Dlf_9serverlib6engine8database13runtime_indexNtB4_17RuntimeIndexStore20record_row_for_table
FNDA:0,_RNvMs_NtNtNtCsksqSOdb1Dlf_9serverlib6engine8database13runtime_indexNtB4_17RuntimeIndexStore21cardinality_for_table
FNDA:0,_RNvMs_NtNtNtCsksqSOdb1Dlf_9serverlib6engine8database13runtime_indexNtB4_17RuntimeIndexStore23record_table_rows_batch
FNDA:0,_RNvMs_NtNtNtCsksqSOdb1Dlf_9serverlib6engine8database13runtime_indexNtB4_17RuntimeIndexStore23remove_table_rows_batch
FNDA:0,_RNvMs_NtNtNtCsksqSOdb1Dlf_9serverlib6engine8database13runtime_indexNtB4_17RuntimeIndexStore32persist_table_snapshot_on_commit
FNDA:0,_RNvMs_NtNtNtCsksqSOdb1Dlf_9serverlib6engine8database13runtime_indexNtB4_17RuntimeIndexStore5stats
FNDA:0,_RNvMs_NtNtNtCsksqSOdb1Dlf_9serverlib6engine8database13runtime_indexNtB4_17RuntimeIndexStore9index_mut
FNDA:0,_RNvNtNtNtCsksqSOdb1Dlf_9serverlib6engine8database13runtime_index14table_scope_id
FNDA:0,_RNvNtNtNtCsksqSOdb1Dlf_9serverlib6engine8database13runtime_index47runtime_index_incremental_persistence_on_commit
FNDA:0,_RNvNtNtNtCsksqSOdb1Dlf_9serverlib6engine8database13runtime_index53runtime_index_incremental_persistence_min_interval_ms
FNDA:0,_RNvXs0_NtNtNtCsksqSOdb1Dlf_9serverlib6engine8database13runtime_indexNtB5_17RuntimeIndexStoreNtNtCsfOyy81DYK0U_4core7default7Default7default
FNDA:0,_RINvNtNtNtCsksqSOdb1Dlf_9serverlib6engine8database13runtime_index23decode_snapshot_payloadNtB2_22TableLiveRowCheckpointEB8_
FNDA:0,_RINvNtNtNtCsksqSOdb1Dlf_9serverlib6engine8database13runtime_index23decode_snapshot_payloadNtB2_25RuntimeIndexTableSnapshotEB8_
FNDA:0,_RINvNtNtNtCsksqSOdb1Dlf_9serverlib6engine8database13runtime_index23decode_snapshot_payloadNtB2_26TableAccessorCacheSnapshotEB8_
FNDA:0,_RINvNtNtNtCsksqSOdb1Dlf_9serverlib6engine8database13runtime_index23encode_snapshot_payloadNtB2_22TableLiveRowCheckpointEB8_
FNDA:0,_RINvNtNtNtCsksqSOdb1Dlf_9serverlib6engine8database13runtime_index23encode_snapshot_payloadNtB2_25RuntimeIndexTableSnapshotEB8_
FNDA:0,_RINvNtNtNtCsksqSOdb1Dlf_9serverlib6engine8database13runtime_index23encode_snapshot_payloadNtB2_26TableAccessorCacheSnapshotEB8_
FNDA:0,_RNCINvNtNtNtCsksqSOdb1Dlf_9serverlib6engine8database13runtime_index23decode_snapshot_payloadNtB4_22TableLiveRowCheckpointE0Ba_
FNDA:0,_RNCINvNtNtNtCsksqSOdb1Dlf_9serverlib6engine8database13runtime_index23decode_snapshot_payloadNtB4_25RuntimeIndexTableSnapshotE0Ba_
FNDA:0,_RNCINvNtNtNtCsksqSOdb1Dlf_9serverlib6engine8database13runtime_index23decode_snapshot_payloadNtB4_26TableAccessorCacheSnapshotE0Ba_
FNDA:0,_RNCINvNtNtNtCsksqSOdb1Dlf_9serverlib6engine8database13runtime_index23encode_snapshot_payloadNtB4_22TableLiveRowCheckpointE0Ba_
FNDA:0,_RNCINvNtNtNtCsksqSOdb1Dlf_9serverlib6engine8database13runtime_index23encode_snapshot_payloadNtB4_22TableLiveRowCheckpointEs0_0Ba_
FNDA:0,_RNCINvNtNtNtCsksqSOdb1Dlf_9serverlib6engine8database13runtime_index23encode_snapshot_payloadNtB4_22TableLiveRowCheckpointEs_0Ba_
FNDA:0,_RNCINvNtNtNtCsksqSOdb1Dlf_9serverlib6engine8database13runtime_index23encode_snapshot_payloadNtB4_25RuntimeIndexTableSnapshotE0Ba_
FNDA:0,_RNCINvNtNtNtCsksqSOdb1Dlf_9serverlib6engine8database13runtime_index23encode_snapshot_payloadNtB4_25RuntimeIndexTableSnapshotEs0_0Ba_
FNDA:0,_RNCINvNtNtNtCsksqSOdb1Dlf_9serverlib6engine8database13runtime_index23encode_snapshot_payloadNtB4_25RuntimeIndexTableSnapshotEs_0Ba_
FNDA:0,_RNCINvNtNtNtCsksqSOdb1Dlf_9serverlib6engine8database13runtime_index23encode_snapshot_payloadNtB4_26TableAccessorCacheSnapshotE0Ba_
FNDA:0,_RNCINvNtNtNtCsksqSOdb1Dlf_9serverlib6engine8database13runtime_index23encode_snapshot_payloadNtB4_26TableAccessorCacheSnapshotEs0_0Ba_
FNDA:0,_RNCINvNtNtNtCsksqSOdb1Dlf_9serverlib6engine8database13runtime_index23encode_snapshot_payloadNtB4_26TableAccessorCacheSnapshotEs_0Ba_
FNDA:0,_RNCNCNCNvNtNtNtCsksqSOdb1Dlf_9serverlib6engine8database13runtime_index28build_snapshot_index_entriess0_000Bd_
FNDA:3,_RNCNCNvNtNtNtCsksqSOdb1Dlf_9serverlib6engine8database13runtime_index17primary_key_indexs_00Bb_
FNDA:0,_RNCNCNvNtNtNtCsksqSOdb1Dlf_9serverlib6engine8database13runtime_index28build_snapshot_index_entriess0_00Bb_
FNDA:0,_RNCNCNvNtNtNtCsksqSOdb1Dlf_9serverlib6engine8database13runtime_index28build_snapshot_index_entriess_00Bb_
FNDA:0,_RNCNCNvNtNtNtCsksqSOdb1Dlf_9serverlib6engine8database13runtime_index28build_snapshot_index_entriess_0s_0Bb_
FNDA:0,_RNCNCNvNtNtNtCsksqSOdb1Dlf_9serverlib6engine8database13runtime_index28load_accessor_cache_snapshot00Bb_
FNDA:0,_RNCNCNvNtNtNtCsksqSOdb1Dlf_9serverlib6engine8database13runtime_index29build_bootstrap_index_entriess0_00Bb_
FNDA:1,_RNCNvMs_NtNtNtCsksqSOdb1Dlf_9serverlib6engine8database13runtime_indexNtB6_17RuntimeIndexStore14register_index0Bc_
FNDA:3,_RNCNvMs_NtNtNtCsksqSOdb1Dlf_9serverlib6engine8database13runtime_indexNtB6_17RuntimeIndexStore23bootstrap_from_catalogs0Bc_
FNDA:3,_RNCNvMs_NtNtNtCsksqSOdb1Dlf_9serverlib6engine8database13runtime_indexNtB6_17RuntimeIndexStore23bootstrap_from_catalogss0_0Bc_
FNDA:3,_RNCNvMs_NtNtNtCsksqSOdb1Dlf_9serverlib6engine8database13runtime_indexNtB6_17RuntimeIndexStore23bootstrap_from_catalogss1_0Bc_
FNDA:3,_RNCNvMs_NtNtNtCsksqSOdb1Dlf_9serverlib6engine8database13runtime_indexNtB6_17RuntimeIndexStore23bootstrap_from_catalogss2_0Bc_
FNDA:0,_RNCNvMs_NtNtNtCsksqSOdb1Dlf_9serverlib6engine8database13runtime_indexNtB6_17RuntimeIndexStore23bootstrap_from_catalogss3_0Bc_
FNDA:0,_RNCNvMs_NtNtNtCsksqSOdb1Dlf_9serverlib6engine8database13runtime_indexNtB6_17RuntimeIndexStore23bootstrap_from_catalogss4_0Bc_
FNDA:0,_RNCNvMs_NtNtNtCsksqSOdb1Dlf_9serverlib6engine8database13runtime_indexNtB6_17RuntimeIndexStore23bootstrap_from_catalogss5_0Bc_
FNDA:0,_RNCNvMs_NtNtNtCsksqSOdb1Dlf_9serverlib6engine8database13runtime_indexNtB6_17RuntimeIndexStore23bootstrap_from_catalogss7_0Bc_
FNDA:0,_RNCNvMs_NtNtNtCsksqSOdb1Dlf_9serverlib6engine8database13runtime_indexNtB6_17RuntimeIndexStore23bootstrap_from_catalogss_0Bc_
FNDA:3,_RNCNvMs_NtNtNtCsksqSOdb1Dlf_9serverlib6engine8database13runtime_indexNtB6_17RuntimeIndexStore24register_index_for_table0Bc_
FNDA:0,_RNCNvMs_NtNtNtCsksqSOdb1Dlf_9serverlib6engine8database13runtime_indexNtB6_17RuntimeIndexStore38should_materialize_index_for_bootstrap0Bc_
FNDA:3,_RNCNvNtNtNtCsksqSOdb1Dlf_9serverlib6engine8database13runtime_index17primary_key_index0B9_
FNDA:1,_RNCNvNtNtNtCsksqSOdb1Dlf_9serverlib6engine8database13runtime_index17primary_key_indexs_0B9_
FNDA:0,_RNCNvNtNtNtCsksqSOdb1Dlf_9serverlib6engine8database13runtime_index24save_live_row_checkpoint0B9_
FNDA:0,_RNCNvNtNtNtCsksqSOdb1Dlf_9serverlib6engine8database13runtime_index24save_live_row_checkpoints0_0B9_
FNDA:0,_RNCNvNtNtNtCsksqSOdb1Dlf_9serverlib6engine8database13runtime_index24save_live_row_checkpoints_0B9_
FNDA:93,_RNCNvNtNtNtCsksqSOdb1Dlf_9serverlib6engine8database13runtime_index25derived_indexes_for_table0B9_
FNDA:0,_RNCNvNtNtNtCsksqSOdb1Dlf_9serverlib6engine8database13runtime_index27load_runtime_index_snapshot0B9_
FNDA:0,_RNCNvNtNtNtCsksqSOdb1Dlf_9serverlib6engine8database13runtime_index27load_runtime_index_snapshots_0B9_
FNDA:0,_RNCNvNtNtNtCsksqSOdb1Dlf_9serverlib6engine8database13runtime_index27save_runtime_index_snapshot0B9_
FNDA:0,_RNCNvNtNtNtCsksqSOdb1Dlf_9serverlib6engine8database13runtime_index27save_runtime_index_snapshots0_0B9_
FNDA:0,_RNCNvNtNtNtCsksqSOdb1Dlf_9serverlib6engine8database13runtime_index27save_runtime_index_snapshots1_0B9_
FNDA:0,_RNCNvNtNtNtCsksqSOdb1Dlf_9serverlib6engine8database13runtime_index27save_runtime_index_snapshots_0B9_
FNDA:0,_RNCNvNtNtNtCsksqSOdb1Dlf_9serverlib6engine8database13runtime_index28build_snapshot_index_entries0B9_
FNDA:0,_RNCNvNtNtNtCsksqSOdb1Dlf_9serverlib6engine8database13runtime_index28build_snapshot_index_entriess0_0B9_
FNDA:0,_RNCNvNtNtNtCsksqSOdb1Dlf_9serverlib6engine8database13runtime_index28build_snapshot_index_entriess_0B9_
FNDA:0,_RNCNvNtNtNtCsksqSOdb1Dlf_9serverlib6engine8database13runtime_index28load_accessor_cache_snapshot0B9_
FNDA:0,_RNCNvNtNtNtCsksqSOdb1Dlf_9serverlib6engine8database13runtime_index28save_accessor_cache_snapshot0B9_
FNDA:0,_RNCNvNtNtNtCsksqSOdb1Dlf_9serverlib6engine8database13runtime_index28save_accessor_cache_snapshots0_0B9_
FNDA:0,_RNCNvNtNtNtCsksqSOdb1Dlf_9serverlib6engine8database13runtime_index28save_accessor_cache_snapshots1_0B9_
FNDA:0,_RNCNvNtNtNtCsksqSOdb1Dlf_9serverlib6engine8database13runtime_index28save_accessor_cache_snapshots_0B9_
FNDA:2,_RNCNvNtNtNtCsksqSOdb1Dlf_9serverlib6engine8database13runtime_index29build_bootstrap_index_entries0B9_
FNDA:0,_RNCNvNtNtNtCsksqSOdb1Dlf_9serverlib6engine8database13runtime_index29build_bootstrap_index_entriess0_0B9_
FNDA:3,_RNCNvNtNtNtCsksqSOdb1Dlf_9serverlib6engine8database13runtime_index29build_bootstrap_index_entriess_0B9_
FNDA:0,_RNCNvNtNtNtCsksqSOdb1Dlf_9serverlib6engine8database13runtime_index34table_schema_fingerprint_for_parts0B9_
FNDA:5,_RNCNvNtNtNtCsksqSOdb1Dlf_9serverlib6engine8database13runtime_index37parse_runtime_index_allowlist_entries0B9_
FNDA:4,_RNCNvNtNtNtCsksqSOdb1Dlf_9serverlib6engine8database13runtime_index37parse_runtime_index_allowlist_entriess_0B9_
FNDA:0,_RNCNvNtNtNtCsksqSOdb1Dlf_9serverlib6engine8database13runtime_index37resolve_table_stream_id_for_bootstrap0B9_
FNDA:0,_RNCNvNtNtNtCsksqSOdb1Dlf_9serverlib6engine8database13runtime_index37runtime_index_materialize_non_primary0B9_
FNDA:0,_RNCNvNtNtNtCsksqSOdb1Dlf_9serverlib6engine8database13runtime_index40runtime_index_parallel_build_max_workers0B9_
FNDA:0,_RNCNvNtNtNtCsksqSOdb1Dlf_9serverlib6engine8database13runtime_index40runtime_index_parallel_build_max_workerss_0B9_
FNDA:0,_RNCNvNtNtNtCsksqSOdb1Dlf_9serverlib6engine8database13runtime_index44runtime_index_preload_accessors_on_bootstrap0B9_
FNDA:0,_RNCNvNtNtNtCsksqSOdb1Dlf_9serverlib6engine8database13runtime_index50runtime_index_migrate_legacy_snapshot_on_bootstrap0B9_
FNDA:5,_RNvMNtNtNtCsksqSOdb1Dlf_9serverlib6engine8database13runtime_indexNtB2_17RuntimeIndexState11cardinality
FNDA:1,_RNvMNtNtNtCsksqSOdb1Dlf_9serverlib6engine8database13runtime_indexNtB2_17RuntimeIndexState3new
FNDA:3,_RNvMNtNtNtCsksqSOdb1Dlf_9serverlib6engine8database13runtime_indexNtB2_17RuntimeIndexState6insert
FNDA:1,_RNvMNtNtNtCsksqSOdb1Dlf_9serverlib6engine8database13runtime_indexNtB2_17RuntimeIndexState6remove
FNDA:4,_RNvMNtNtNtCsksqSOdb1Dlf_9serverlib6engine8database13runtime_indexNtB2_17RuntimeIndexState7rebuild
FNDA:9,_RNvMNtNtNtCsksqSOdb1Dlf_9serverlib6engine8database13runtime_indexNtB2_17RuntimeIndexState8contains
FNDA:1,_RNvMs_NtNtNtCsksqSOdb1Dlf_9serverlib6engine8database13runtime_indexNtB4_17RuntimeIndexStore14register_index
FNDA:14,_RNvMs_NtNtNtCsksqSOdb1Dlf_9serverlib6engine8database13runtime_indexNtB4_17RuntimeIndexStore15index_for_table
FNDA:7,_RNvMs_NtNtNtCsksqSOdb1Dlf_9serverlib6engine8database13runtime_indexNtB4_17RuntimeIndexStore18should_track_index
FNDA:4,_RNvMs_NtNtNtCsksqSOdb1Dlf_9serverlib6engine8database13runtime_indexNtB4_17RuntimeIndexStore19index_mut_for_table
FNDA:2,_RNvMs_NtNtNtCsksqSOdb1Dlf_9serverlib6engine8database13runtime_indexNtB4_17RuntimeIndexStore23bootstrap_from_catalogs
FNDA:3,_RNvMs_NtNtNtCsksqSOdb1Dlf_9serverlib6engine8database13runtime_indexNtB4_17RuntimeIndexStore24register_index_for_table
FNDA:3,_RNvMs_NtNtNtCsksqSOdb1Dlf_9serverlib6engine8database13runtime_indexNtB4_17RuntimeIndexStore38should_materialize_index_for_bootstrap
FNDA:44,_RNvMs_NtNtNtCsksqSOdb1Dlf_9serverlib6engine8database13runtime_indexNtB4_17RuntimeIndexStore3new
FNDA:0,_RNvMs_NtNtNtCsksqSOdb1Dlf_9serverlib6engine8database13runtime_indexNtB4_17RuntimeIndexStore5index
FNDA:21,_RNvNtNtNtCsksqSOdb1Dlf_9serverlib6engine8database13runtime_index15scoped_index_id
FNDA:0,_RNvNtNtNtCsksqSOdb1Dlf_9serverlib6engine8database13runtime_index15wal_stream_path
FNDA:7,_RNvNtNtNtCsksqSOdb1Dlf_9serverlib6engine8database13runtime_index17index_value_tuple
FNDA:1,_RNvNtNtNtCsksqSOdb1Dlf_9serverlib6engine8database13runtime_index17primary_key_index
FNDA:0,_RNvNtNtNtCsksqSOdb1Dlf_9serverlib6engine8database13runtime_index22wal_stream_fingerprint
FNDA:0,_RNvNtNtNtCsksqSOdb1Dlf_9serverlib6engine8database13runtime_index24live_row_checkpoint_path
FNDA:0,_RNvNtNtNtCsksqSOdb1Dlf_9serverlib6engine8database13runtime_index24load_live_row_checkpoint
FNDA:0,_RNvNtNtNtCsksqSOdb1Dlf_9serverlib6engine8database13runtime_index24save_live_row_checkpoint
FNDA:0,_RNvNtNtNtCsksqSOdb1Dlf_9serverlib6engine8database13runtime_index24table_schema_fingerprint
FNDA:61,_RNvNtNtNtCsksqSOdb1Dlf_9serverlib6engine8database13runtime_index25derived_indexes_for_table
FNDA:0,_RNvNtNtNtCsksqSOdb1Dlf_9serverlib6engine8database13runtime_index27load_runtime_index_snapshot
FNDA:0,_RNvNtNtNtCsksqSOdb1Dlf_9serverlib6engine8database13runtime_index27runtime_index_snapshot_path
FNDA:0,_RNvNtNtNtCsksqSOdb1Dlf_9serverlib6engine8database13runtime_index27save_runtime_index_snapshot
FNDA:0,_RNvNtNtNtCsksqSOdb1Dlf_9serverlib6engine8database13runtime_index28accessor_cache_snapshot_path
FNDA:0,_RNvNtNtNtCsksqSOdb1Dlf_9serverlib6engine8database13runtime_index28build_snapshot_index_entries
FNDA:0,_RNvNtNtNtCsksqSOdb1Dlf_9serverlib6engine8database13runtime_index28load_accessor_cache_snapshot
FNDA:0,_RNvNtNtNtCsksqSOdb1Dlf_9serverlib6engine8database13runtime_index28save_accessor_cache_snapshot
FNDA:2,_RNvNtNtNtCsksqSOdb1Dlf_9serverlib6engine8database13runtime_index29build_bootstrap_index_entries
FNDA:0,_RNvNtNtNtCsksqSOdb1Dlf_9serverlib6engine8database13runtime_index29load_live_row_checkpoint_rows
FNDA:88,_RNvNtNtNtCsksqSOdb1Dlf_9serverlib6engine8database13runtime_index33parse_runtime_index_allowlist_env
FNDA:0,_RNvNtNtNtCsksqSOdb1Dlf_9serverlib6engine8database13runtime_index34table_schema_fingerprint_for_parts
FNDA:1,_RNvNtNtNtCsksqSOdb1Dlf_9serverlib6engine8database13runtime_index37parse_runtime_index_allowlist_entries
FNDA:2,_RNvNtNtNtCsksqSOdb1Dlf_9serverlib6engine8database13runtime_index37resolve_table_stream_id_for_bootstrap
FNDA:44,_RNvNtNtNtCsksqSOdb1Dlf_9serverlib6engine8database13runtime_index37runtime_index_materialize_non_primary
FNDA:0,_RNvNtNtNtCsksqSOdb1Dlf_9serverlib6engine8database13runtime_index40runtime_index_parallel_build_max_workers
FNDA:44,_RNvNtNtNtCsksqSOdb1Dlf_9serverlib6engine8database13runtime_index41runtime_index_non_primary_field_allowlist
FNDA:44,_RNvNtNtNtCsksqSOdb1Dlf_9serverlib6engine8database13runtime_index41runtime_index_non_primary_index_allowlist
FNDA:0,_RNvNtNtNtCsksqSOdb1Dlf_9serverlib6engine8database13runtime_index44runtime_index_preload_accessors_on_bootstrap
FNDA:0,_RNvNtNtNtCsksqSOdb1Dlf_9serverlib6engine8database13runtime_index50runtime_index_migrate_legacy_snapshot_on_bootstrap
FNF:135
FNH:39
DA:85,0
DA:86,0
DA:87,0
DA:89,0
DA:90,0
DA:91,0
DA:92,0
DA:94,0
DA:95,0
DA:96,0
DA:97,0
DA:99,0
DA:100,0
DA:101,0
DA:102,0
DA:104,0
DA:105,0
DA:107,0
DA:108,0
DA:109,0
DA:110,0
DA:112,0
DA:113,0
DA:114,0
DA:115,0
DA:116,0
DA:117,0
DA:118,0
DA:120,0
DA:121,0
DA:122,0
DA:123,0
DA:124,0
DA:125,0
DA:126,0
DA:128,0
DA:129,0
DA:130,0
DA:132,0
DA:133,0
DA:134,0
DA:135,0
DA:136,0
DA:137,0
DA:138,0
DA:140,0
DA:141,0
DA:142,0
DA:144,0
DA:145,0
DA:146,0
DA:147,0
DA:148,0
DA:149,0
DA:151,0
DA:152,0
DA:153,0
DA:154,0
DA:155,0
DA:156,0
DA:157,0
DA:159,0
DA:160,0
DA:161,0
DA:180,1
DA:181,1
DA:182,1
DA:184,9
DA:185,9
DA:186,9
DA:188,3
DA:189,3
DA:190,3
DA:192,1
DA:193,1
DA:194,1
DA:196,5
DA:197,5
DA:198,5
DA:200,0
DA:201,0
DA:202,0
DA:204,4
DA:205,4
DA:206,4
DA:208,0
DA:210,0
DA:211,0
DA:212,0
DA:216,0
DA:217,0
DA:218,0
DA:219,0
DA:221,0
DA:222,0
DA:223,0
DA:224,0
DA:225,0
DA:226,0
DA:228,0
DA:242,21
DA:243,21
DA:244,21
DA:246,0
DA:248,0
DA:249,0
DA:251,0
DA:254,0
DA:256,2
DA:257,2
DA:258,2
DA:259,2
DA:260,2
DA:262,2
DA:263,2
DA:264,2
DA:266,2
DA:267,2
DA:268,2
DA:269,2
DA:271,2
DA:272,0
DA:274,0
DA:276,2
DA:280,44
DA:282,44
DA:283,44
DA:284,44
DA:285,44
DA:286,44
DA:287,44
DA:288,44
DA:290,44
DA:292,7
DA:294,7
DA:295,0
DA:296,7
DA:298,7
DA:300,7
DA:302,3
DA:304,3
DA:305,2
DA:306,1
DA:308,1
DA:309,1
DA:310,0
DA:312,0
DA:313,0
DA:314,0
DA:316,0
DA:317,0
DA:319,0
DA:320,0
DA:321,0
DA:322,0
DA:323,0
DA:324,0
DA:326,0
DA:327,0
DA:328,0
DA:329,0
DA:330,0
DA:331,0
DA:332,0
DA:334,3
DA:336,0
DA:337,0
DA:338,0
DA:340,14
DA:341,14
DA:342,14
DA:343,14
DA:346,0
DA:348,0
DA:349,0
DA:350,0
DA:353,0
DA:355,4
DA:357,4
DA:359,4
DA:360,3
DA:361,1
DA:364,4
DA:366,0
DA:367,0
DA:368,0
DA:370,0
DA:371,0
DA:372,0
DA:373,0
DA:375,0
DA:376,0
DA:377,0
DA:378,0
DA:380,0
DA:381,0
DA:382,0
DA:383,0
DA:385,1
DA:387,1
DA:388,0
DA:389,1
DA:391,1
DA:392,1
DA:393,1
DA:394,1
DA:395,1
DA:397,1
DA:399,3
DA:401,3
DA:402,0
DA:403,3
DA:405,3
DA:406,3
DA:407,3
DA:408,3
DA:409,3
DA:411,3
DA:413,0
DA:415,0
DA:416,0
DA:417,0
DA:419,0
DA:420,0
DA:422,0
DA:424,0
DA:425,0
DA:426,0
DA:427,0
DA:428,0
DA:429,0
DA:431,0
DA:432,0
DA:433,0
DA:435,0
DA:436,0
DA:437,0
DA:439,0
DA:441,0
DA:442,0
DA:443,0
DA:445,0
DA:446,0
DA:447,0
DA:448,0
DA:450,0
DA:451,0
DA:452,0
DA:453,0
DA:454,0
DA:455,0
DA:456,0
DA:457,0
DA:459,0
DA:460,0
DA:461,0
DA:462,0
DA:464,0
DA:465,0
DA:466,0
DA:469,0
DA:471,0
DA:472,0
DA:473,0
DA:475,0
DA:476,0
DA:480,0
DA:482,0
DA:483,0
DA:484,0
DA:485,0
DA:486,0
DA:487,0
DA:488,0
DA:489,0
DA:491,0
DA:493,0
DA:494,0
DA:495,0
DA:497,0
DA:498,0
DA:499,0
DA:502,0
DA:504,0
DA:505,0
DA:506,0
DA:507,0
DA:508,0
DA:509,0
DA:511,0
DA:512,0
DA:513,0
DA:515,0
DA:517,0
DA:518,0
DA:519,0
DA:521,0
DA:523,0
DA:525,0
DA:526,0
DA:527,0
DA:528,0
DA:532,0
DA:534,0
DA:535,0
DA:536,0
DA:537,0
DA:538,0
DA:539,0
DA:541,0
DA:542,0
DA:543,0
DA:545,0
DA:547,0
DA:548,0
DA:549,0
DA:551,0
DA:553,0
DA:554,0
DA:555,0
DA:556,0
DA:560,0
DA:562,0
DA:563,0
DA:564,0
DA:567,0
DA:569,0
DA:570,0
DA:571,0
DA:573,0
DA:577,0
DA:579,0
DA:580,0
DA:581,0
DA:582,0
DA:583,0
DA:584,0
DA:585,0
DA:586,0
DA:587,0
DA:590,0
DA:592,0
DA:594,0
DA:598,0
DA:601,0
DA:605,0
DA:609,2
DA:610,2
DA:611,2
DA:612,2
DA:613,2
DA:615,2
DA:617,2
DA:620,0
DA:622,0
DA:623,0
DA:625,0
DA:626,0
DA:627,0
DA:628,0
DA:629,0
DA:632,0
DA:633,0
DA:635,0
DA:636,0
DA:637,0
DA:638,0
DA:639,0
DA:644,2
DA:645,2
DA:646,2
DA:648,2
DA:650,2
DA:652,2
DA:654,2
DA:656,2
DA:657,0
DA:660,2
DA:661,2
DA:662,0
DA:663,2
DA:665,2
DA:666,2
DA:667,2
DA:668,3
DA:669,3
DA:670,3
DA:671,3
DA:672,2
DA:673,2
DA:675,2
DA:676,0
DA:677,2
DA:679,3
DA:680,3
DA:681,3
DA:683,2
DA:684,2
DA:685,2
DA:687,2
DA:688,2
DA:689,3
DA:690,3
DA:691,3
DA:692,0
DA:693,0
DA:695,0
DA:697,3
DA:698,3
DA:699,3
DA:700,2
DA:702,2
DA:703,2
DA:705,2
DA:706,2
DA:707,2
DA:708,0
DA:709,0
DA:710,0
DA:711,0
DA:712,0
DA:713,0
DA:715,0
DA:718,0
DA:719,0
DA:720,0
DA:721,0
DA:723,0
DA:724,0
DA:725,0
DA:726,0
DA:727,0
DA:728,0
DA:730,0
DA:731,0
DA:735,0
DA:738,0
DA:740,0
DA:741,0
DA:742,0
DA:743,0
DA:744,0
DA:746,0
DA:755,0
DA:756,0
DA:757,0
DA:758,0
DA:759,0
DA:760,0
DA:761,0
DA:762,0
DA:763,0
DA:764,0
DA:765,0
DA:766,0
DA:767,0
DA:768,0
DA:769,0
DA:770,0
DA:774,0
DA:776,0
DA:778,0
DA:780,0
DA:781,0
DA:782,0
DA:783,0
DA:784,0
DA:785,0
DA:786,0
DA:787,0
DA:790,0
DA:791,0
DA:792,0
DA:793,0
DA:794,0
DA:797,0
DA:798,0
DA:799,0
DA:800,0
DA:801,0
DA:804,0
DA:811,0
DA:814,0
DA:818,0
DA:820,0
DA:823,0
DA:825,0
DA:827,0
DA:828,0
DA:829,0
DA:830,0
DA:831,0
DA:832,0
DA:833,0
DA:834,0
DA:835,0
DA:837,0
DA:839,0
DA:841,0
DA:842,0
DA:843,0
DA:844,0
DA:845,0
DA:846,0
DA:847,0
DA:848,0
DA:850,0
DA:851,0
DA:852,0
DA:854,0
DA:855,0
DA:856,0
DA:857,0
DA:858,0
DA:859,0
DA:862,0
DA:863,0
DA:864,0
DA:865,0
DA:866,0
DA:867,0
DA:868,0
DA:869,0
DA:870,0
DA:871,0
DA:873,0
DA:878,0
DA:880,0
DA:882,0
DA:883,0
DA:884,0
DA:885,0
DA:886,0
DA:887,0
DA:888,0
DA:891,0
DA:892,0
DA:893,0
DA:894,0
DA:895,0
DA:896,0
DA:897,0
DA:898,0
DA:899,0
DA:900,0
DA:902,0
DA:907,0
DA:909,0
DA:916,0
DA:919,0
DA:921,0
DA:925,0
DA:927,0
DA:930,0
DA:932,2
DA:934,2
DA:935,2
DA:936,2
DA:937,2
DA:939,2
DA:940,2
DA:941,2
DA:942,2
DA:943,0
DA:944,0
DA:945,0
DA:946,0
DA:947,0
DA:949,0
DA:950,2
DA:952,2
DA:954,2
DA:955,0
DA:956,0
DA:957,0
DA:958,0
DA:959,0
DA:960,0
DA:962,2
DA:963,2
DA:964,2
DA:966,2
DA:967,2
DA:968,2
DA:969,2
DA:970,2
DA:971,2
DA:974,2
DA:976,2
DA:977,0
DA:985,2
DA:987,2
DA:988,2
DA:989,2
DA:991,3
DA:992,3
DA:993,3
DA:994,3
DA:995,3
DA:997,2
DA:998,0
DA:999,0
DA:1000,0
DA:1001,0
DA:1002,0
DA:1003,0
DA:1004,0
DA:1005,0
DA:1006,0
DA:1008,0
DA:1013,2
DA:1015,2
DA:1016,2
DA:1017,2
DA:1018,2
DA:1019,2
DA:1020,2
DA:1021,2
DA:1022,2
DA:1025,2
DA:1027,2
DA:1028,0
DA:1029,0
DA:1030,0
DA:1031,0
DA:1032,0
DA:1033,0
DA:1034,0
DA:1035,0
DA:1036,0
DA:1038,0
DA:1043,2
DA:1045,2
DA:1046,0
DA:1047,0
DA:1048,0
DA:1049,0
DA:1050,0
DA:1051,0
DA:1052,0
DA:1053,0
DA:1054,0
DA:1055,0
DA:1057,0
DA:1062,2
DA:1064,2
DA:1065,2
DA:1066,2
DA:1068,2
DA:1072,0
DA:1076,2
DA:1077,2
DA:1081,0
DA:1090,2
DA:1091,0
DA:1096,0
DA:1098,2
DA:1104,2
DA:1109,0
DA:1112,2
DA:1114,0
DA:1115,0
DA:1116,0
DA:1117,0
DA:1118,0
DA:1120,0
DA:1122,0
DA:1124,0
DA:1126,0
DA:1127,0
DA:1128,0
DA:1130,0
DA:1131,0
DA:1134,0
DA:1135,0
DA:1136,0
DA:1138,0
DA:1139,0
DA:1140,0
DA:1141,0
DA:1142,0
DA:1149,0
DA:1151,0
DA:1153,0
DA:1154,0
DA:1155,0
DA:1156,0
DA:1157,0
DA:1158,0
DA:1160,0
DA:1161,0
DA:1162,0
DA:1164,0
DA:1165,0
DA:1168,0
DA:1169,0
DA:1170,0
DA:1171,0
DA:1172,0
DA:1173,0
DA:1174,0
DA:1175,0
DA:1176,0
DA:1178,0
DA:1179,0
DA:1180,0
DA:1182,0
DA:1183,0
DA:1185,0
DA:1186,0
DA:1187,0
DA:1189,0
DA:1190,0
DA:1192,0
DA:1193,0
DA:1194,0
DA:1195,0
DA:1196,0
DA:1198,0
DA:1199,0
DA:1200,0
DA:1201,0
DA:1202,0
DA:1203,0
DA:1204,0
DA:1205,0
DA:1206,0
DA:1207,0
DA:1209,0
DA:1210,0
DA:1211,0
DA:1212,0
DA:1213,0
DA:1214,0
DA:1215,0
DA:1216,0
DA:1217,0
DA:1218,0
DA:1220,0
DA:1221,0
DA:1223,0
DA:1225,0
DA:1229,0
DA:1231,0
DA:1232,0
DA:1234,0
DA:1235,0
DA:1236,0
DA:1238,0
DA:1240,0
DA:1242,0
DA:1243,0
DA:1245,0
DA:1246,0
DA:1247,0
DA:1249,0
DA:1251,0
DA:1253,0
DA:1254,0
DA:1256,0
DA:1257,0
DA:1258,0
DA:1260,0
DA:1262,0
DA:1264,0
DA:1266,0
DA:1268,0
DA:1270,0
DA:1272,0
DA:1273,0
DA:1275,0
DA:1276,0
DA:1277,0
DA:1278,0
DA:1279,0
DA:1280,0
DA:1282,0
DA:1284,0
DA:1286,0
DA:1287,0
DA:1288,0
DA:1290,0
DA:1291,0
DA:1292,0
DA:1293,0
DA:1295,0
DA:1297,0
DA:1298,0
DA:1299,0
DA:1300,0
DA:1302,0
DA:1304,0
DA:1307,0
DA:1308,0
DA:1309,0
DA:1310,0
DA:1311,0
DA:1312,0
DA:1314,0
DA:1315,0
DA:1317,0
DA:1318,0
DA:1319,0
DA:1321,0
DA:1322,0
DA:1324,0
DA:1326,0
DA:1327,0
DA:1328,0
DA:1330,0
DA:1331,0
DA:1332,0
DA:1334,0
DA:1335,0
DA:1337,0
DA:1339,0
DA:1341,0
DA:1342,0
DA:1343,0
DA:1344,0
DA:1345,0
DA:1346,0
DA:1347,0
DA:1349,0
DA:1350,0
DA:1352,0
DA:1353,0
DA:1354,0
DA:1356,0
DA:1357,0
DA:1359,0
DA:1361,0
DA:1362,0
DA:1364,0
DA:1365,0
DA:1368,0
DA:1369,0
DA:1372,0
DA:1373,0
DA:1375,0
DA:1376,0
DA:1378,0
DA:1379,0
DA:1380,0
DA:1381,0
DA:1382,0
DA:1384,0
DA:1385,0
DA:1386,0
DA:1388,0
DA:1389,0
DA:1391,0
DA:1392,0
DA:1393,0
DA:1394,0
DA:1396,0
DA:1398,0
DA:1399,0
DA:1400,0
DA:1401,0
DA:1402,0
DA:1403,0
DA:1405,0
DA:1406,0
DA:1408,0
DA:1409,0
DA:1410,0
DA:1412,0
DA:1413,0
DA:1415,0
DA:1417,0
DA:1418,0
DA:1419,0
DA:1422,0
DA:1423,0
DA:1426,0
DA:1427,0
DA:1429,0
DA:1430,0
DA:1432,0
DA:1434,0
DA:1436,0
DA:1437,0
DA:1438,0
DA:1439,0
DA:1440,0
DA:1441,0
DA:1442,0
DA:1444,0
DA:1445,0
DA:1447,0
DA:1448,0
DA:1449,0
DA:1451,0
DA:1452,0
DA:1454,0
DA:1456,0
DA:1457,0
DA:1458,0
DA:1461,0
DA:1462,0
DA:1465,0
DA:1466,0
DA:1468,0
DA:1469,0
DA:1471,0
DA:1472,0
DA:1473,0
DA:1475,0
DA:1476,0
DA:1478,0
DA:1480,0
DA:1483,0
DA:1484,0
DA:1485,0
DA:1486,0
DA:1487,0
DA:1488,0
DA:1489,0
DA:1490,0
DA:1491,0
DA:1492,0
DA:1494,0
DA:1495,0
DA:1497,0
DA:1499,0
DA:1500,0
DA:1501,0
DA:1503,0
DA:1504,0
DA:1506,0
DA:1508,0
DA:1509,0
DA:1510,0
DA:1511,0
DA:1513,0
DA:1514,0
DA:1515,0
DA:1516,0
DA:1519,0
DA:1520,0
DA:1521,0
DA:1522,0
DA:1523,0
DA:1524,0
DA:1525,0
DA:1526,0
DA:1527,0
DA:1529,0
DA:1530,0
DA:1531,0
DA:1533,0
DA:1534,0
DA:1535,0
DA:1537,0
DA:1538,0
DA:1539,0
DA:1540,0
DA:1542,0
DA:1544,0
DA:1546,0
DA:1547,0
DA:1548,0
DA:1549,0
DA:1550,0
DA:1551,0
DA:1552,0
DA:1553,0
DA:1555,0
DA:1556,0
DA:1558,0
DA:1560,0
DA:1561,0
DA:1562,0
DA:1564,0
DA:1565,0
DA:1567,0
DA:1568,0
DA:1569,0
DA:1570,0
DA:1571,0
DA:1572,0
DA:1573,0
DA:1574,0
DA:1576,0
DA:1577,0
DA:1578,0
DA:1580,0
DA:1581,0
DA:1582,0
DA:1584,0
DA:1585,0
DA:1586,0
DA:1587,0
DA:1589,0
DA:1591,0
DA:1593,0
DA:1594,0
DA:1595,0
DA:1596,0
DA:1597,0
DA:1598,0
DA:1599,0
DA:1600,0
DA:1601,0
DA:1603,0
DA:1604,0
DA:1606,0
DA:1608,0
DA:1609,0
DA:1610,0
DA:1612,0
DA:1613,0
DA:1615,0
DA:1616,0
DA:1618,0
DA:1619,0
DA:1620,0
DA:1621,0
DA:1622,0
DA:1623,0
DA:1624,0
DA:1625,0
DA:1626,0
DA:1627,0
DA:1629,0
DA:1630,0
DA:1631,0
DA:1633,0
DA:1634,0
DA:1635,0
DA:1637,0
DA:1638,0
DA:1639,0
DA:1640,0
DA:1642,0
DA:1643,0
DA:1646,2
DA:1647,2
DA:1648,2
DA:1649,2
DA:1651,2
DA:1652,2
DA:1653,2
DA:1655,2
DA:1656,2
DA:1657,1
DA:1659,2
DA:1661,2
DA:1662,2
DA:1663,3
DA:1664,3
DA:1665,5
DA:1666,5
DA:1667,5
DA:1668,3
DA:1669,3
DA:1670,2
DA:1672,0
DA:1674,0
DA:1675,0
DA:1676,0
DA:1679,0
DA:1681,0
DA:1683,0
DA:1685,0
DA:1687,0
DA:1688,0
DA:1689,0
DA:1690,0
DA:1692,0
DA:1693,0
DA:1695,0
DA:1696,0
DA:1697,0
DA:1698,0
DA:1699,0
DA:1700,0
DA:1701,0
DA:1702,0
DA:1704,0
DA:1705,0
DA:1709,0
DA:1711,0
DA:1712,0
DA:1713,0
DA:1714,0
DA:1717,0
DA:1719,0
DA:1721,0
DA:1723,0
DA:1725,0
DA:1726,0
DA:1727,0
DA:1729,0
DA:1731,2
DA:1734,0
DA:1735,0
DA:1736,0
DA:1737,0
DA:1739,0
DA:1740,0
DA:1741,0
DA:1743,0
DA:1744,0
DA:1745,0
DA:1747,0
DA:1748,0
DA:1749,0
DA:1750,0
DA:1751,0
DA:1752,0
DA:1753,0
DA:1754,0
DA:1755,0
DA:1756,0
DA:1757,0
DA:1758,0
DA:1759,0
DA:1760,0
DA:1761,0
DA:1762,0
DA:1763,0
DA:1764,0
DA:1766,0
DA:1767,0
DA:1768,0
DA:1771,0
DA:1773,0
DA:1775,0
DA:1777,0
DA:1779,0
DA:1780,0
DA:1781,0
DA:1782,0
DA:1784,0
DA:1785,0
DA:1787,0
DA:1788,0
DA:1790,0
DA:1791,0
DA:1792,0
DA:1793,0
DA:1794,0
DA:1795,0
DA:1798,0
DA:1799,0
DA:1800,0
DA:1801,0
DA:1802,0
DA:1805,0
DA:1806,0
DA:1809,0
DA:1811,0
DA:1812,0
DA:1813,0
DA:1814,0
DA:1817,0
DA:1819,0
DA:1821,0
DA:1823,0
DA:1825,0
DA:1826,0
DA:1827,0
DA:1829,0
DA:1831,0
DA:1835,0
DA:1836,0
DA:1837,0
DA:1841,44
DA:1843,44
DA:1844,44
DA:1845,44
DA:1846,0
DA:1847,0
DA:1848,0
DA:1850,0
DA:1851,44
DA:1853,44
DA:1855,44
DA:1856,44
DA:1857,44
DA:1859,44
DA:1860,44
DA:1861,44
DA:1863,1
DA:1864,1
DA:1865,1
DA:1866,1
DA:1867,5
DA:1868,4
DA:1869,1
DA:1870,1
DA:1872,88
DA:1874,88
DA:1875,88
DA:1878,0
DA:1880,88
DA:1882,7
DA:1884,7
DA:1886,7
DA:1887,1
DA:1888,1
DA:1889,6
DA:1891,7
DA:1892,7
DA:1893,7
DA:1895,6
DA:1897,7
DA:1899,1
DA:1901,1
DA:1902,1
DA:1903,1
DA:1904,3
DA:1905,1
DA:1906,1
DA:1907,1
DA:1908,1
DA:1909,3
DA:1910,1
DA:1912,1
DA:1919,61
DA:1920,94
DA:1921,61
BRF:0
BRH:0
LF:1288
LH:274
end_of_record
SF:/Users/samcolak/Source Code/rust/distdb/distdb/serverlib/src/engine/database/runtime_index_test.rs
FN:11,_RNvNtNtNtNtCsksqSOdb1Dlf_9serverlib6engine8database13runtime_index5testss_50runtime_index_state_tracks_membership_and_rebuilds
FN:43,_RNvNtNtNtNtCsksqSOdb1Dlf_9serverlib6engine8database13runtime_index5testss_54index_value_tuple_uses_field_names_and_empty_fallbacks
FN:78,_RNvNtNtNtNtCsksqSOdb1Dlf_9serverlib6engine8database13runtime_index5testss_64parsed_allowlist_entries_are_trimmed_normalized_and_deduplicated
FN:90,_RNvNtNtNtNtCsksqSOdb1Dlf_9serverlib6engine8database13runtime_index5testss_71derived_indexes_for_table_and_primary_key_index_prefer_expected_entries
FN:127,_RNCNvNtNtNtNtCsksqSOdb1Dlf_9serverlib6engine8database13runtime_index5testss_71derived_indexes_for_table_and_primary_key_index_prefer_expected_entries0Bb_
FN:129,_RNCNvNtNtNtNtCsksqSOdb1Dlf_9serverlib6engine8database13runtime_index5testss_71derived_indexes_for_table_and_primary_key_index_prefer_expected_entriess0_0Bb_
FN:128,_RNCNvNtNtNtNtCsksqSOdb1Dlf_9serverlib6engine8database13runtime_index5testss_71derived_indexes_for_table_and_primary_key_index_prefer_expected_entriess_0Bb_
FNDA:1,_RNvNtNtNtNtCsksqSOdb1Dlf_9serverlib6engine8database13runtime_index5testss_50runtime_index_state_tracks_membership_and_rebuilds
FNDA:1,_RNvNtNtNtNtCsksqSOdb1Dlf_9serverlib6engine8database13runtime_index5testss_54index_value_tuple_uses_field_names_and_empty_fallbacks
FNDA:1,_RNvNtNtNtNtCsksqSOdb1Dlf_9serverlib6engine8database13runtime_index5testss_64parsed_allowlist_entries_are_trimmed_normalized_and_deduplicated
FNDA:1,_RNvNtNtNtNtCsksqSOdb1Dlf_9serverlib6engine8database13runtime_index5testss_71derived_indexes_for_table_and_primary_key_index_prefer_expected_entries
FNDA:1,_RNCNvNtNtNtNtCsksqSOdb1Dlf_9serverlib6engine8database13runtime_index5testss_71derived_indexes_for_table_and_primary_key_index_prefer_expected_entries0Bb_
FNDA:2,_RNCNvNtNtNtNtCsksqSOdb1Dlf_9serverlib6engine8database13runtime_index5testss_71derived_indexes_for_table_and_primary_key_index_prefer_expected_entriess0_0Bb_
FNDA:2,_RNCNvNtNtNtNtCsksqSOdb1Dlf_9serverlib6engine8database13runtime_index5testss_71derived_indexes_for_table_and_primary_key_index_prefer_expected_entriess_0Bb_
FNF:7
FNH:7
DA:11,1
DA:13,1
DA:14,1
DA:15,1
DA:16,1
DA:18,1
DA:19,1
DA:21,1
DA:22,1
DA:24,1
DA:25,1
DA:26,1
DA:28,1
DA:30,1
DA:31,1
DA:33,1
DA:34,1
DA:35,1
DA:37,1
DA:38,1
DA:40,1
DA:43,1
DA:45,1
DA:46,1
DA:47,1
DA:48,1
DA:51,1
DA:52,1
DA:53,1
DA:55,1
DA:56,1
DA:57,1
DA:60,1
DA:61,1
DA:62,1
DA:63,1
DA:64,1
DA:65,1
DA:66,1
DA:67,1
DA:68,1
DA:70,1
DA:71,1
DA:72,1
DA:75,1
DA:78,1
DA:80,1
DA:82,1
DA:83,1
DA:84,1
DA:85,1
DA:87,1
DA:90,1
DA:92,1
DA:93,1
DA:94,1
DA:95,1
DA:98,1
DA:99,1
DA:100,1
DA:102,1
DA:105,1
DA:106,1
DA:107,1
DA:108,1
DA:109,1
DA:110,1
DA:111,1
DA:112,1
DA:113,1
DA:115,1
DA:116,1
DA:117,1
DA:118,1
DA:119,1
DA:120,1
DA:123,1
DA:125,1
DA:126,1
DA:127,1
DA:128,2
DA:129,2
DA:131,1
DA:132,1
DA:134,1
BRF:0
BRH:0
LF:88
LH:88
end_of_record
SF:/Users/samcolak/Source Code/rust/distdb/distdb/serverlib/src/engine/database/schema/change_payload.rs
FN:21,_RNvMNtNtNtNtCsksqSOdb1Dlf_9serverlib6engine8database6schema14change_payloadNtB2_19SchemaChangePayload6decode
FN:17,_RNvMNtNtNtNtCsksqSOdb1Dlf_9serverlib6engine8database6schema14change_payloadNtB2_19SchemaChangePayload6encode
FNDA:2,_RNvMNtNtNtNtCsksqSOdb1Dlf_9serverlib6engine8database6schema14change_payloadNtB2_19SchemaChangePayload6decode
FNDA:2,_RNvMNtNtNtNtCsksqSOdb1Dlf_9serverlib6engine8database6schema14change_payloadNtB2_19SchemaChangePayload6encode
FNF:2
FNH:2
DA:17,2
DA:18,2
DA:19,2
DA:21,2
DA:22,2
DA:23,2
BRF:0
BRH:0
LF:6
LH:6
end_of_record
SF:/Users/samcolak/Source Code/rust/distdb/distdb/serverlib/src/engine/database/schema/change_state.rs
FN:12,_RNvMNtNtNtNtCsksqSOdb1Dlf_9serverlib6engine8database6schema12change_stateNtB2_17SchemaChangePhase17can_transition_to
FN:66,_RNvMs_NtNtNtNtCsksqSOdb1Dlf_9serverlib6engine8database6schema12change_stateNtB4_18ActiveSchemaChange15update_progress
FN:50,_RNvMs_NtNtNtNtCsksqSOdb1Dlf_9serverlib6engine8database6schema12change_stateNtB4_18ActiveSchemaChange5begin
FNDA:36,_RNvMNtNtNtNtCsksqSOdb1Dlf_9serverlib6engine8database6schema12change_stateNtB2_17SchemaChangePhase17can_transition_to
FNDA:10,_RNvMs_NtNtNtNtCsksqSOdb1Dlf_9serverlib6engine8database6schema12change_stateNtB4_18ActiveSchemaChange15update_progress
FNDA:19,_RNvMs_NtNtNtNtCsksqSOdb1Dlf_9serverlib6engine8database6schema12change_stateNtB4_18ActiveSchemaChange5begin
FNF:3
FNH:3
DA:12,36
DA:14,3
DA:15,36
DA:27,36
DA:50,19
DA:52,19
DA:53,19
DA:54,19
DA:55,19
DA:56,19
DA:57,19
DA:58,19
DA:59,19
DA:60,19
DA:61,19
DA:62,19
DA:64,19
DA:66,10
DA:67,10
DA:68,10
DA:69,10
DA:70,10
DA:71,10
DA:73,10
DA:75,10
DA:76,7
DA:77,7
DA:78,10
DA:79,7
DA:80,7
DA:82,10
DA:84,10
BRF:0
BRH:0
LF:32
LH:32
end_of_record
SF:/Users/samcolak/Source Code/rust/distdb/distdb/serverlib/src/engine/database/schema/change_state_test.rs
FN:30,_RNvNtNtNtNtNtCsksqSOdb1Dlf_9serverlib6engine8database6schema12change_state17change_state_tests_41active_schema_change_begin_assigns_job_id
FN:4,_RNvNtNtNtNtNtCsksqSOdb1Dlf_9serverlib6engine8database6schema12change_state17change_state_tests_48schema_change_phase_enforces_ordered_transitions
FN:15,_RNvNtNtNtNtNtCsksqSOdb1Dlf_9serverlib6engine8database6schema12change_state17change_state_tests_55active_schema_change_progress_checkpoint_updates_fields
FNDA:1,_RNvNtNtNtNtNtCsksqSOdb1Dlf_9serverlib6engine8database6schema12change_state17change_state_tests_41active_schema_change_begin_assigns_job_id
FNDA:1,_RNvNtNtNtNtNtCsksqSOdb1Dlf_9serverlib6engine8database6schema12change_state17change_state_tests_48schema_change_phase_enforces_ordered_transitions
FNDA:1,_RNvNtNtNtNtNtCsksqSOdb1Dlf_9serverlib6engine8database6schema12change_state17change_state_tests_55active_schema_change_progress_checkpoint_updates_fields
FNF:3
FNH:3
DA:4,1
DA:5,1
DA:6,1
DA:7,1
DA:8,1
DA:10,1
DA:11,1
DA:12,1
DA:15,1
DA:17,1
DA:18,1
DA:20,1
DA:22,1
DA:23,1
DA:24,1
DA:25,1
DA:27,1
DA:30,1
DA:32,1
DA:33,1
DA:35,1
BRF:0
BRH:0
LF:21
LH:21
end_of_record
SF:/Users/samcolak/Source Code/rust/distdb/distdb/serverlib/src/engine/database/schema/change_tx.rs
FN:66,_RNvMNtNtNtNtCsksqSOdb1Dlf_9serverlib6engine8database6schema9change_txNtB2_14SchemaChangeTx12update_field
FN:41,_RNvMNtNtNtNtCsksqSOdb1Dlf_9serverlib6engine8database6schema9change_txNtB2_14SchemaChangeTx13next_revision
FN:46,_RNvMNtNtNtNtCsksqSOdb1Dlf_9serverlib6engine8database6schema9change_txNtB2_14SchemaChangeTx14pending_schema
FN:37,_RNvMNtNtNtNtCsksqSOdb1Dlf_9serverlib6engine8database6schema9change_txNtB2_14SchemaChangeTx8table_id
FN:58,_RNvMNtNtNtNtCsksqSOdb1Dlf_9serverlib6engine8database6schema9change_txNtB2_14SchemaChangeTx12remove_field
FN:29,_RNvMNtNtNtNtCsksqSOdb1Dlf_9serverlib6engine8database6schema9change_txNtB2_14SchemaChangeTx3new
FN:109,_RNvMNtNtNtNtCsksqSOdb1Dlf_9serverlib6engine8database6schema9change_txNtB2_14SchemaChangeTx5abort
FN:50,_RNvMNtNtNtNtCsksqSOdb1Dlf_9serverlib6engine8database6schema9change_txNtB2_14SchemaChangeTx9add_field
FN:79,_RINvMNtNtNtNtCsksqSOdb1Dlf_9serverlib6engine8database6schema9change_txNtB3_14SchemaChangeTx6commitNtNtB7_5error13DatabaseErrorNCNvNtNtB7_7catalog5testss_49schema_change_tx_commit_aborts_when_persist_fails0EBb_
FN:79,_RINvMNtNtNtNtCsksqSOdb1Dlf_9serverlib6engine8database6schema9change_txNtB3_14SchemaChangeTx6commitNtNtB7_5error13DatabaseErrorNCNvNtNtB7_7catalog5testss_56schema_change_commit_releases_global_schema_change_guard0EBb_
FN:79,_RINvMNtNtNtNtCsksqSOdb1Dlf_9serverlib6engine8database6schema9change_txNtB3_14SchemaChangeTx6commitNtNtB7_5error13DatabaseErrorNCNvNtNtB7_7catalog5testss_56schema_change_tx_commit_applies_schema_and_returns_ready0EBb_
FNDA:0,_RNvMNtNtNtNtCsksqSOdb1Dlf_9serverlib6engine8database6schema9change_txNtB2_14SchemaChangeTx12update_field
FNDA:0,_RNvMNtNtNtNtCsksqSOdb1Dlf_9serverlib6engine8database6schema9change_txNtB2_14SchemaChangeTx13next_revision
FNDA:0,_RNvMNtNtNtNtCsksqSOdb1Dlf_9serverlib6engine8database6schema9change_txNtB2_14SchemaChangeTx14pending_schema
FNDA:0,_RNvMNtNtNtNtCsksqSOdb1Dlf_9serverlib6engine8database6schema9change_txNtB2_14SchemaChangeTx8table_id
FNDA:1,_RNvMNtNtNtNtCsksqSOdb1Dlf_9serverlib6engine8database6schema9change_txNtB2_14SchemaChangeTx12remove_field
FNDA:17,_RNvMNtNtNtNtCsksqSOdb1Dlf_9serverlib6engine8database6schema9change_txNtB2_14SchemaChangeTx3new
FNDA:2,_RNvMNtNtNtNtCsksqSOdb1Dlf_9serverlib6engine8database6schema9change_txNtB2_14SchemaChangeTx5abort
FNDA:1,_RNvMNtNtNtNtCsksqSOdb1Dlf_9serverlib6engine8database6schema9change_txNtB2_14SchemaChangeTx9add_field
FNDA:1,_RINvMNtNtNtNtCsksqSOdb1Dlf_9serverlib6engine8database6schema9change_txNtB3_14SchemaChangeTx6commitNtNtB7_5error13DatabaseErrorNCNvNtNtB7_7catalog5testss_49schema_change_tx_commit_aborts_when_persist_fails0EBb_
FNDA:1,_RINvMNtNtNtNtCsksqSOdb1Dlf_9serverlib6engine8database6schema9change_txNtB3_14SchemaChangeTx6commitNtNtB7_5error13DatabaseErrorNCNvNtNtB7_7catalog5testss_56schema_change_commit_releases_global_schema_change_guard0EBb_
FNDA:1,_RINvMNtNtNtNtCsksqSOdb1Dlf_9serverlib6engine8database6schema9change_txNtB3_14SchemaChangeTx6commitNtNtB7_5error13DatabaseErrorNCNvNtNtB7_7catalog5testss_56schema_change_tx_commit_applies_schema_and_returns_ready0EBb_
FNF:9
FNH:5
DA:29,17
DA:30,17
DA:31,17
DA:32,17
DA:33,17
DA:34,17
DA:35,17
DA:37,0
DA:38,0
DA:39,0
DA:41,0
DA:42,0
DA:43,0
DA:46,0
DA:47,0
DA:48,0
DA:50,1
DA:52,1
DA:53,1
DA:54,1
DA:56,1
DA:58,1
DA:60,1
DA:61,1
DA:62,1
DA:64,1
DA:66,0
DA:68,0
DA:69,0
DA:70,0
DA:72,0
DA:79,3
DA:80,3
DA:81,3
DA:82,3
DA:85,3
DA:86,3
DA:88,3
DA:89,3
DA:90,3
DA:91,3
DA:92,3
DA:93,3
DA:94,3
DA:96,3
DA:98,1
DA:99,1
DA:100,2
DA:102,2
DA:104,2
DA:106,3
DA:109,2
DA:110,2
DA:111,2
BRF:0
BRH:0
LF:54
LH:38
end_of_record
SF:/Users/samcolak/Source Code/rust/distdb/distdb/serverlib/src/engine/database/schema/error.rs
FN:11,_RNvXNtNtNtNtCsksqSOdb1Dlf_9serverlib6engine8database6schema5errorNtB2_11SchemaErrorNtNtCsfOyy81DYK0U_4core3fmt7Display3fmt
FNDA:0,_RNvXNtNtNtNtCsksqSOdb1Dlf_9serverlib6engine8database6schema5errorNtB2_11SchemaErrorNtNtCsfOyy81DYK0U_4core3fmt7Display3fmt
FNF:1
FNH:0
DA:11,0
DA:12,0
DA:13,0
DA:14,0
DA:15,0
DA:16,0
DA:17,0
DA:19,0
BRF:0
BRH:0
LF:8
LH:0
end_of_record
SF:/Users/samcolak/Source Code/rust/distdb/distdb/serverlib/src/engine/database/schema/migration/conversion.rs
FN:162,_RNvNtNtNtNtNtCsksqSOdb1Dlf_9serverlib6engine8database6schema9migration10conversion26display_stored_field_value
FN:260,_RNvNtNtNtNtNtCsksqSOdb1Dlf_9serverlib6engine8database6schema9migration10conversion12tagged_bytes
FN:337,_RNvNtNtNtNtNtCsksqSOdb1Dlf_9serverlib6engine8database6schema9migration10conversion14numeric_as_f64
FN:304,_RNvNtNtNtNtNtCsksqSOdb1Dlf_9serverlib6engine8database6schema9migration10conversion15numeric_as_i128
FN:320,_RNvNtNtNtNtNtCsksqSOdb1Dlf_9serverlib6engine8database6schema9migration10conversion15numeric_as_u128
FN:360,_RNvNtNtNtNtNtCsksqSOdb1Dlf_9serverlib6engine8database6schema9migration10conversion15parse_f64_bytes
FN:348,_RNvNtNtNtNtNtCsksqSOdb1Dlf_9serverlib6engine8database6schema9migration10conversion16parse_i128_bytes
FN:354,_RNvNtNtNtNtNtCsksqSOdb1Dlf_9serverlib6engine8database6schema9migration10conversion16parse_u128_bytes
FN:267,_RNvNtNtNtNtNtCsksqSOdb1Dlf_9serverlib6engine8database6schema9migration10conversion20decode_numeric_value
FN:250,_RNvNtNtNtNtNtCsksqSOdb1Dlf_9serverlib6engine8database6schema9migration10conversion20encode_float_numeric
FN:224,_RNvNtNtNtNtNtCsksqSOdb1Dlf_9serverlib6engine8database6schema9migration10conversion21encode_signed_numeric
FN:237,_RNvNtNtNtNtNtCsksqSOdb1Dlf_9serverlib6engine8database6schema9migration10conversion23encode_unsigned_numeric
FN:146,_RNvNtNtNtNtNtCsksqSOdb1Dlf_9serverlib6engine8database6schema9migration10conversion25render_stored_field_value
FN:166,_RNvNtNtNtNtNtCsksqSOdb1Dlf_9serverlib6engine8database6schema9migration10conversion27compare_stored_field_values
FN:77,_RNvNtNtNtNtNtCsksqSOdb1Dlf_9serverlib6engine8database6schema9migration10conversion27convert_value_to_field_type
FN:287,_RNvNtNtNtNtNtCsksqSOdb1Dlf_9serverlib6engine8database6schema9migration10conversion27decode_legacy_numeric_value
FN:191,_RNvNtNtNtNtNtCsksqSOdb1Dlf_9serverlib6engine8database6schema9migration10conversion28compare_mixed_numeric_values
FN:29,_RNvNtNtNtNtNtCsksqSOdb1Dlf_9serverlib6engine8database6schema9migration10conversion29apply_schema_rules_to_payload
FN:227,_RNCNvNtNtNtNtNtCsksqSOdb1Dlf_9serverlib6engine8database6schema9migration10conversion21encode_signed_numeric0Bd_
FN:228,_RNCNvNtNtNtNtNtCsksqSOdb1Dlf_9serverlib6engine8database6schema9migration10conversion21encode_signed_numerics0_0Bd_
FN:229,_RNCNvNtNtNtNtNtCsksqSOdb1Dlf_9serverlib6engine8database6schema9migration10conversion21encode_signed_numerics2_0Bd_
FN:230,_RNCNvNtNtNtNtNtCsksqSOdb1Dlf_9serverlib6engine8database6schema9migration10conversion21encode_signed_numerics4_0Bd_
FN:240,_RNCNvNtNtNtNtNtCsksqSOdb1Dlf_9serverlib6engine8database6schema9migration10conversion23encode_unsigned_numeric0Bd_
FN:241,_RNCNvNtNtNtNtNtCsksqSOdb1Dlf_9serverlib6engine8database6schema9migration10conversion23encode_unsigned_numerics0_0Bd_
FN:242,_RNCNvNtNtNtNtNtCsksqSOdb1Dlf_9serverlib6engine8database6schema9migration10conversion23encode_unsigned_numerics2_0Bd_
FN:243,_RNCNvNtNtNtNtNtCsksqSOdb1Dlf_9serverlib6engine8database6schema9migration10conversion23encode_unsigned_numerics4_0Bd_
FN:46,_RNCNvNtNtNtNtNtCsksqSOdb1Dlf_9serverlib6engine8database6schema9migration10conversion29apply_schema_rules_to_payload0Bd_
FN:69,_RNCNvNtNtNtNtNtCsksqSOdb1Dlf_9serverlib6engine8database6schema9migration10conversion29apply_schema_rules_to_payloads_0Bd_
FNDA:0,_RNvNtNtNtNtNtCsksqSOdb1Dlf_9serverlib6engine8database6schema9migration10conversion26display_stored_field_value
FNDA:213,_RNvNtNtNtNtNtCsksqSOdb1Dlf_9serverlib6engine8database6schema9migration10conversion12tagged_bytes
FNDA:0,_RNvNtNtNtNtNtCsksqSOdb1Dlf_9serverlib6engine8database6schema9migration10conversion14numeric_as_f64
FNDA:1,_RNvNtNtNtNtNtCsksqSOdb1Dlf_9serverlib6engine8database6schema9migration10conversion15numeric_as_i128
FNDA:210,_RNvNtNtNtNtNtCsksqSOdb1Dlf_9serverlib6engine8database6schema9migration10conversion15numeric_as_u128
FNDA:288,_RNvNtNtNtNtNtCsksqSOdb1Dlf_9serverlib6engine8database6schema9migration10conversion15parse_f64_bytes
FNDA:577,_RNvNtNtNtNtNtCsksqSOdb1Dlf_9serverlib6engine8database6schema9migration10conversion16parse_i128_bytes
FNDA:288,_RNvNtNtNtNtNtCsksqSOdb1Dlf_9serverlib6engine8database6schema9migration10conversion16parse_u128_bytes
FNDA:720,_RNvNtNtNtNtNtCsksqSOdb1Dlf_9serverlib6engine8database6schema9migration10conversion20decode_numeric_value
FNDA:0,_RNvNtNtNtNtNtCsksqSOdb1Dlf_9serverlib6engine8database6schema9migration10conversion20encode_float_numeric
FNDA:2,_RNvNtNtNtNtNtCsksqSOdb1Dlf_9serverlib6engine8database6schema9migration10conversion21encode_signed_numeric
FNDA:211,_RNvNtNtNtNtNtCsksqSOdb1Dlf_9serverlib6engine8database6schema9migration10conversion23encode_unsigned_numeric
FNDA:287,_RNvNtNtNtNtNtCsksqSOdb1Dlf_9serverlib6engine8database6schema9migration10conversion25render_stored_field_value
FNDA:109,_RNvNtNtNtNtNtCsksqSOdb1Dlf_9serverlib6engine8database6schema9migration10conversion27compare_stored_field_values
FNDA:378,_RNvNtNtNtNtNtCsksqSOdb1Dlf_9serverlib6engine8database6schema9migration10conversion27convert_value_to_field_type
FNDA:577,_RNvNtNtNtNtNtCsksqSOdb1Dlf_9serverlib6engine8database6schema9migration10conversion27decode_legacy_numeric_value
FNDA:40,_RNvNtNtNtNtNtCsksqSOdb1Dlf_9serverlib6engine8database6schema9migration10conversion28compare_mixed_numeric_values
FNDA:3,_RNvNtNtNtNtNtCsksqSOdb1Dlf_9serverlib6engine8database6schema9migration10conversion29apply_schema_rules_to_payload
FNDA:0,_RNCNvNtNtNtNtNtCsksqSOdb1Dlf_9serverlib6engine8database6schema9migration10conversion21encode_signed_numeric0Bd_
FNDA:0,_RNCNvNtNtNtNtNtCsksqSOdb1Dlf_9serverlib6engine8database6schema9migration10conversion21encode_signed_numerics0_0Bd_
FNDA:1,_RNCNvNtNtNtNtNtCsksqSOdb1Dlf_9serverlib6engine8database6schema9migration10conversion21encode_signed_numerics2_0Bd_
FNDA:1,_RNCNvNtNtNtNtNtCsksqSOdb1Dlf_9serverlib6engine8database6schema9migration10conversion21encode_signed_numerics4_0Bd_
FNDA:0,_RNCNvNtNtNtNtNtCsksqSOdb1Dlf_9serverlib6engine8database6schema9migration10conversion23encode_unsigned_numeric0Bd_
FNDA:0,_RNCNvNtNtNtNtNtCsksqSOdb1Dlf_9serverlib6engine8database6schema9migration10conversion23encode_unsigned_numerics0_0Bd_
FNDA:1,_RNCNvNtNtNtNtNtCsksqSOdb1Dlf_9serverlib6engine8database6schema9migration10conversion23encode_unsigned_numerics2_0Bd_
FNDA:210,_RNCNvNtNtNtNtNtCsksqSOdb1Dlf_9serverlib6engine8database6schema9migration10conversion23encode_unsigned_numerics4_0Bd_
FNDA:1,_RNCNvNtNtNtNtNtCsksqSOdb1Dlf_9serverlib6engine8database6schema9migration10conversion29apply_schema_rules_to_payload0Bd_
FNDA:1,_RNCNvNtNtNtNtNtCsksqSOdb1Dlf_9serverlib6engine8database6schema9migration10conversion29apply_schema_rules_to_payloads_0Bd_
FNF:28
FNH:21
DA:29,3
DA:30,3
DA:31,3
DA:32,3
DA:33,3
DA:35,3
DA:36,3
DA:37,0
DA:40,3
DA:42,2
DA:44,2
DA:45,2
DA:46,2
DA:47,1
DA:48,0
DA:52,2
DA:54,1
DA:55,1
DA:57,1
DA:58,1
DA:59,1
DA:63,2
DA:64,1
DA:65,1
DA:67,2
DA:68,1
DA:69,1
DA:72,2
DA:74,3
DA:77,378
DA:78,378
DA:79,378
DA:80,378
DA:81,378
DA:83,378
DA:87,3
DA:88,1
DA:89,2
DA:91,2
DA:92,1
DA:93,1
DA:100,212
DA:101,210
DA:102,2
DA:104,2
DA:105,1
DA:106,1
DA:113,0
DA:114,0
DA:115,0
DA:117,0
DA:118,0
DA:119,0
DA:129,163
DA:131,163
DA:133,0
DA:134,0
DA:135,0
DA:140,0
DA:144,378
DA:146,287
DA:148,287
DA:150,2
DA:152,29
DA:154,0
DA:156,256
DA:160,287
DA:162,0
DA:163,0
DA:164,0
DA:166,109
DA:168,109
DA:169,109
DA:171,109
DA:173,19
DA:175,36
DA:177,40
DA:180,14
DA:181,14
DA:182,14
DA:183,14
DA:184,14
DA:189,109
DA:191,40
DA:192,40
DA:193,40
DA:194,40
DA:196,40
DA:198,0
DA:199,0
DA:200,0
DA:202,0
DA:206,40
DA:207,40
DA:208,0
DA:210,40
DA:214,0
DA:215,0
DA:216,0
DA:217,0
DA:222,40
DA:224,2
DA:226,2
DA:227,0
DA:228,0
DA:229,1
DA:230,1
DA:231,0
DA:232,0
DA:235,2
DA:237,211
DA:239,211
DA:240,0
DA:241,0
DA:242,1
DA:243,210
DA:244,0
DA:245,0
DA:248,211
DA:250,0
DA:252,0
DA:253,0
DA:254,0
DA:255,0
DA:258,0
DA:260,213
DA:261,213
DA:262,213
DA:263,213
DA:264,213
DA:265,213
DA:267,720
DA:269,0
DA:270,0
DA:271,0
DA:272,1
DA:273,1
DA:274,0
DA:275,0
DA:276,0
DA:277,1
DA:278,140
DA:279,0
DA:280,0
DA:281,0
DA:282,577
DA:285,720
DA:287,577
DA:289,577
DA:290,289
DA:291,288
DA:293,288
DA:294,0
DA:295,288
DA:297,288
DA:298,0
DA:299,288
DA:301,288
DA:302,577
DA:304,1
DA:306,1
DA:307,1
DA:308,0
DA:309,0
DA:310,0
DA:311,0
DA:313,0
DA:318,1
DA:320,210
DA:322,210
DA:323,210
DA:324,0
DA:325,0
DA:326,0
DA:327,0
DA:328,0
DA:330,0
DA:335,210
DA:337,0
DA:339,0
DA:340,0
DA:341,0
DA:342,0
DA:345,0
DA:348,577
DA:349,577
DA:350,577
DA:351,577
DA:354,288
DA:355,288
DA:356,288
DA:357,288
DA:360,288
DA:361,288
DA:362,288
DA:363,288
BRF:0
BRH:0
LF:206
LH:135
end_of_record
SF:/Users/samcolak/Source Code/rust/distdb/distdb/serverlib/src/engine/database/schema/migration/conversion_test.rs
FN:5,_RNvNtNtNtNtNtNtCsksqSOdb1Dlf_9serverlib6engine8database6schema9migration10conversion5testss_29convert_numeric_string_to_int
FN:35,_RNvNtNtNtNtNtNtCsksqSOdb1Dlf_9serverlib6engine8database6schema9migration10conversion5testss_33convert_text_preserves_valid_utf8
FN:14,_RNvNtNtNtNtNtNtCsksqSOdb1Dlf_9serverlib6engine8database6schema9migration10conversion5testss_38convert_invalid_to_int_safe_mode_fails
FN:24,_RNvNtNtNtNtNtNtCsksqSOdb1Dlf_9serverlib6engine8database6schema9migration10conversion5testss_41convert_invalid_to_int_force_mode_coerces
FNDA:1,_RNvNtNtNtNtNtNtCsksqSOdb1Dlf_9serverlib6engine8database6schema9migration10conversion5testss_29convert_numeric_string_to_int
FNDA:1,_RNvNtNtNtNtNtNtCsksqSOdb1Dlf_9serverlib6engine8database6schema9migration10conversion5testss_33convert_text_preserves_valid_utf8
FNDA:1,_RNvNtNtNtNtNtNtCsksqSOdb1Dlf_9serverlib6engine8database6schema9migration10conversion5testss_38convert_invalid_to_int_safe_mode_fails
FNDA:1,_RNvNtNtNtNtNtNtCsksqSOdb1Dlf_9serverlib6engine8database6schema9migration10conversion5testss_41convert_invalid_to_int_force_mode_coerces
FNF:4
FNH:4
DA:5,1
DA:6,1
DA:7,1
DA:8,1
DA:9,1
DA:10,1
DA:11,1
DA:14,1
DA:15,1
DA:16,1
DA:17,1
DA:18,1
DA:20,1
DA:21,1
DA:24,1
DA:25,1
DA:26,1
DA:27,1
DA:28,1
DA:30,1
DA:31,1
DA:32,1
DA:35,1
DA:36,1
DA:37,1
DA:38,1
DA:39,1
BRF:0
BRH:0
LF:27
LH:27
end_of_record
SF:/Users/samcolak/Source Code/rust/distdb/distdb/serverlib/src/engine/database/schema/migration/executor.rs
FN:77,_RNvMs_NtNtNtNtNtCsksqSOdb1Dlf_9serverlib6engine8database6schema9migration8executorNtB4_35DiskToMemorySchemaMigrationExecutor19set_rules_for_table
FN:69,_RNvMs_NtNtNtNtNtCsksqSOdb1Dlf_9serverlib6engine8database6schema9migration8executorNtB4_35DiskToMemorySchemaMigrationExecutor3new
FN:23,_RNvXNtNtNtNtNtCsksqSOdb1Dlf_9serverlib6engine8database6schema9migration8executorNtB2_27NoopSchemaMigrationExecutorNtNtB4_5types23SchemaMigrationExecutor12rewrite_rows
FN:37,_RNvXNtNtNtNtNtCsksqSOdb1Dlf_9serverlib6engine8database6schema9migration8executorNtB2_27NoopSchemaMigrationExecutorNtNtB4_5types23SchemaMigrationExecutor15rebuild_indexes
FN:41,_RNvXNtNtNtNtNtCsksqSOdb1Dlf_9serverlib6engine8database6schema9migration8executorNtB2_27NoopSchemaMigrationExecutorNtNtB4_5types23SchemaMigrationExecutor16flush_temp_image
FN:45,_RNvXNtNtNtNtNtCsksqSOdb1Dlf_9serverlib6engine8database6schema9migration8executorNtB2_27NoopSchemaMigrationExecutorNtNtB4_5types23SchemaMigrationExecutor7cutover
FN:94,_RNvXs0_NtNtNtNtNtCsksqSOdb1Dlf_9serverlib6engine8database6schema9migration8executorNtB5_35DiskToMemorySchemaMigrationExecutorNtNtB7_5types23SchemaMigrationExecutor12rewrite_rows
FN:169,_RNvXs0_NtNtNtNtNtCsksqSOdb1Dlf_9serverlib6engine8database6schema9migration8executorNtB5_35DiskToMemorySchemaMigrationExecutorNtNtB7_5types23SchemaMigrationExecutor15rebuild_indexes
FN:186,_RNvXs0_NtNtNtNtNtCsksqSOdb1Dlf_9serverlib6engine8database6schema9migration8executorNtB5_35DiskToMemorySchemaMigrationExecutorNtNtB7_5types23SchemaMigrationExecutor16flush_temp_image
FN:205,_RNvXs0_NtNtNtNtNtCsksqSOdb1Dlf_9serverlib6engine8database6schema9migration8executorNtB5_35DiskToMemorySchemaMigrationExecutorNtNtB7_5types23SchemaMigrationExecutor7cutover
FN:143,_RNCNvXs0_NtNtNtNtNtCsksqSOdb1Dlf_9serverlib6engine8database6schema9migration8executorNtB7_35DiskToMemorySchemaMigrationExecutorNtNtB9_5types23SchemaMigrationExecutor12rewrite_rowss0_0Bh_
FN:130,_RNCNvXs0_NtNtNtNtNtCsksqSOdb1Dlf_9serverlib6engine8database6schema9migration8executorNtB7_35DiskToMemorySchemaMigrationExecutorNtNtB9_5types23SchemaMigrationExecutor12rewrite_rowss_0Bh_
FNDA:5,_RNvMs_NtNtNtNtNtCsksqSOdb1Dlf_9serverlib6engine8database6schema9migration8executorNtB4_35DiskToMemorySchemaMigrationExecutor19set_rules_for_table
FNDA:5,_RNvMs_NtNtNtNtNtCsksqSOdb1Dlf_9serverlib6engine8database6schema9migration8executorNtB4_35DiskToMemorySchemaMigrationExecutor3new
FNDA:1,_RNvXNtNtNtNtNtCsksqSOdb1Dlf_9serverlib6engine8database6schema9migration8executorNtB2_27NoopSchemaMigrationExecutorNtNtB4_5types23SchemaMigrationExecutor12rewrite_rows
FNDA:0,_RNvXNtNtNtNtNtCsksqSOdb1Dlf_9serverlib6engine8database6schema9migration8executorNtB2_27NoopSchemaMigrationExecutorNtNtB4_5types23SchemaMigrationExecutor15rebuild_indexes
FNDA:0,_RNvXNtNtNtNtNtCsksqSOdb1Dlf_9serverlib6engine8database6schema9migration8executorNtB2_27NoopSchemaMigrationExecutorNtNtB4_5types23SchemaMigrationExecutor16flush_temp_image
FNDA:0,_RNvXNtNtNtNtNtCsksqSOdb1Dlf_9serverlib6engine8database6schema9migration8executorNtB2_27NoopSchemaMigrationExecutorNtNtB4_5types23SchemaMigrationExecutor7cutover
FNDA:4,_RNvXs0_NtNtNtNtNtCsksqSOdb1Dlf_9serverlib6engine8database6schema9migration8executorNtB5_35DiskToMemorySchemaMigrationExecutorNtNtB7_5types23SchemaMigrationExecutor12rewrite_rows
FNDA:3,_RNvXs0_NtNtNtNtNtCsksqSOdb1Dlf_9serverlib6engine8database6schema9migration8executorNtB5_35DiskToMemorySchemaMigrationExecutorNtNtB7_5types23SchemaMigrationExecutor15rebuild_indexes
FNDA:3,_RNvXs0_NtNtNtNtNtCsksqSOdb1Dlf_9serverlib6engine8database6schema9migration8executorNtB5_35DiskToMemorySchemaMigrationExecutorNtNtB7_5types23SchemaMigrationExecutor16flush_temp_image
FNDA:3,_RNvXs0_NtNtNtNtNtCsksqSOdb1Dlf_9serverlib6engine8database6schema9migration8executorNtB5_35DiskToMemorySchemaMigrationExecutorNtNtB7_5types23SchemaMigrationExecutor7cutover
FNDA:3,_RNCNvXs0_NtNtNtNtNtCsksqSOdb1Dlf_9serverlib6engine8database6schema9migration8executorNtB7_35DiskToMemorySchemaMigrationExecutorNtNtB9_5types23SchemaMigrationExecutor12rewrite_rowss0_0Bh_
FNDA:6,_RNCNvXs0_NtNtNtNtNtCsksqSOdb1Dlf_9serverlib6engine8database6schema9migration8executorNtB7_35DiskToMemorySchemaMigrationExecutorNtNtB9_5types23SchemaMigrationExecutor12rewrite_rowss_0Bh_
FNF:12
FNH:9
DA:23,1
DA:24,1
DA:25,1
DA:26,1
DA:27,1
DA:29,1
DA:30,1
DA:31,1
DA:32,1
DA:33,1
DA:35,1
DA:37,0
DA:38,0
DA:39,0
DA:41,0
DA:42,0
DA:43,0
DA:45,0
DA:46,0
DA:47,0
DA:69,5
DA:70,5
DA:71,5
DA:72,5
DA:73,5
DA:74,5
DA:75,5
DA:77,5
DA:78,5
DA:79,5
DA:80,5
DA:81,5
DA:83,5
DA:84,5
DA:86,5
DA:88,5
DA:94,4
DA:95,4
DA:96,4
DA:97,4
DA:98,4
DA:100,4
DA:101,4
DA:103,4
DA:104,4
DA:105,4
DA:107,4
DA:108,4
DA:109,4
DA:111,4
DA:112,4
DA:113,4
DA:115,4
DA:116,4
DA:117,4
DA:118,4
DA:119,4
DA:120,4
DA:122,4
DA:123,4
DA:124,4
DA:126,4
DA:128,5
DA:129,4
DA:130,6
DA:132,5
DA:133,5
DA:134,3
DA:135,3
DA:136,3
DA:137,3
DA:138,2
DA:139,4
DA:142,3
DA:143,3
DA:145,3
DA:146,3
DA:147,3
DA:148,3
DA:150,3
DA:151,3
DA:152,3
DA:153,3
DA:154,3
DA:155,3
DA:156,3
DA:157,3
DA:158,3
DA:159,3
DA:161,3
DA:162,3
DA:163,3
DA:164,3
DA:165,3
DA:167,4
DA:169,3
DA:171,3
DA:172,3
DA:173,3
DA:174,3
DA:176,3
DA:178,3
DA:179,3
DA:181,0
DA:184,3
DA:186,3
DA:188,3
DA:190,3
DA:191,3
DA:192,3
DA:193,3
DA:195,3
DA:197,3
DA:198,3
DA:199,3
DA:201,3
DA:203,3
DA:205,3
DA:207,3
DA:209,3
DA:210,3
DA:211,3
DA:212,3
DA:214,3
DA:216,3
DA:218,3
DA:219,3
DA:220,3
DA:221,0
DA:223,3
DA:224,0
DA:225,0
DA:226,0
DA:227,0
DA:228,3
DA:230,3
DA:231,3
DA:232,0
DA:234,3
DA:236,3
BRF:0
BRH:0
LF:142
LH:126
end_of_record
SF:/Users/samcolak/Source Code/rust/distdb/distdb/serverlib/src/engine/database/schema/migration/executor_test.rs
FN:4,_RNvNtNtNtNtNtNtCsksqSOdb1Dlf_9serverlib6engine8database6schema9migration8executor5testss_36noop_executor_returns_empty_progress
FN:19,_RNvNtNtNtNtNtNtCsksqSOdb1Dlf_9serverlib6engine8database6schema9migration8executor5testss_43disk_executor_set_rules_normalizes_table_id
FNDA:1,_RNvNtNtNtNtNtNtCsksqSOdb1Dlf_9serverlib6engine8database6schema9migration8executor5testss_36noop_executor_returns_empty_progress
FNDA:1,_RNvNtNtNtNtNtNtCsksqSOdb1Dlf_9serverlib6engine8database6schema9migration8executor5testss_43disk_executor_set_rules_normalizes_table_id
FNF:2
FNH:2
DA:4,1
DA:5,1
DA:6,1
DA:7,1
DA:8,1
DA:9,1
DA:11,1
DA:13,1
DA:14,1
DA:15,1
DA:16,1
DA:19,1
DA:20,1
DA:21,1
DA:23,1
DA:24,1
DA:25,1
DA:27,1
DA:28,1
DA:29,1
DA:30,1
BRF:0
BRH:0
LF:21
LH:21
end_of_record
SF:/Users/samcolak/Source Code/rust/distdb/distdb/serverlib/src/engine/database/schema/migration/io.rs
FN:17,_RNvNtNtNtNtNtCsksqSOdb1Dlf_9serverlib6engine8database6schema9migration2io20stream_key_for_table
FN:38,_RNvNtNtNtNtNtCsksqSOdb1Dlf_9serverlib6engine8database6schema9migration2io22load_records_from_path
FN:108,_RNvNtNtNtNtNtCsksqSOdb1Dlf_9serverlib6engine8database6schema9migration2io25frame_records_as_wal_file
FN:43,_RNvNtNtNtNtNtCsksqSOdb1Dlf_9serverlib6engine8database6schema9migration2io25payload_context_for_table
FN:28,_RNvNtNtNtNtNtCsksqSOdb1Dlf_9serverlib6engine8database6schema9migration2io29map_io_error_to_catalog_error
FN:71,_RNvNtNtNtNtNtCsksqSOdb1Dlf_9serverlib6engine8database6schema9migration2io35load_records_from_path_with_context
FN:113,_RNvNtNtNtNtNtCsksqSOdb1Dlf_9serverlib6engine8database6schema9migration2io38frame_records_as_wal_file_with_context
FNDA:21,_RNvNtNtNtNtNtCsksqSOdb1Dlf_9serverlib6engine8database6schema9migration2io20stream_key_for_table
FNDA:4,_RNvNtNtNtNtNtCsksqSOdb1Dlf_9serverlib6engine8database6schema9migration2io22load_records_from_path
FNDA:5,_RNvNtNtNtNtNtCsksqSOdb1Dlf_9serverlib6engine8database6schema9migration2io25frame_records_as_wal_file
FNDA:9,_RNvNtNtNtNtNtCsksqSOdb1Dlf_9serverlib6engine8database6schema9migration2io25payload_context_for_table
FNDA:0,_RNvNtNtNtNtNtCsksqSOdb1Dlf_9serverlib6engine8database6schema9migration2io29map_io_error_to_catalog_error
FNDA:9,_RNvNtNtNtNtNtCsksqSOdb1Dlf_9serverlib6engine8database6schema9migration2io35load_records_from_path_with_context
FNDA:8,_RNvNtNtNtNtNtCsksqSOdb1Dlf_9serverlib6engine8database6schema9migration2io38frame_records_as_wal_file_with_context
FNF:7
FNH:6
DA:17,21
DA:19,21
DA:20,21
DA:21,1
DA:22,20
DA:24,20
DA:26,21
DA:28,0
DA:30,0
DA:31,0
DA:33,0
DA:36,0
DA:38,4
DA:39,4
DA:40,4
DA:41,4
DA:43,9
DA:44,9
DA:45,9
DA:46,9
DA:48,9
DA:50,9
DA:51,0
DA:52,9
DA:54,9
DA:55,9
DA:56,9
DA:57,9
DA:58,9
DA:60,9
DA:61,2
DA:62,2
DA:63,2
DA:64,2
DA:65,7
DA:67,9
DA:69,9
DA:71,9
DA:72,9
DA:73,9
DA:74,9
DA:76,9
DA:77,1
DA:78,8
DA:80,8
DA:81,8
DA:83,8
DA:84,8
DA:86,18
DA:87,11
DA:88,11
DA:89,11
DA:90,11
DA:91,11
DA:93,11
DA:94,11
DA:95,0
DA:96,11
DA:98,11
DA:99,11
DA:100,10
DA:101,10
DA:104,7
DA:106,9
DA:108,5
DA:109,5
DA:110,5
DA:111,5
DA:113,8
DA:114,8
DA:115,8
DA:116,8
DA:118,8
DA:119,8
DA:121,11
DA:122,11
DA:123,11
DA:124,11
DA:125,11
DA:128,8
DA:130,8
BRF:0
BRH:0
LF:81
LH:74
end_of_record
SF:/Users/samcolak/Source Code/rust/distdb/distdb/serverlib/src/engine/database/schema/migration/io_test.rs
FN:15,_RNvNtNtNtNtNtNtCsksqSOdb1Dlf_9serverlib6engine8database6schema9migration2io5testss_32stream_key_for_empty_table_fails
FN:8,_RNvNtNtNtNtNtNtCsksqSOdb1Dlf_9serverlib6engine8database6schema9migration2io5testss_42stream_key_for_table_normalizes_identifier
FN:21,_RNvNtNtNtNtNtNtCsksqSOdb1Dlf_9serverlib6engine8database6schema9migration2io5testss_48load_records_from_nonexistent_path_returns_empty
FN:27,_RNvNtNtNtNtNtNtCsksqSOdb1Dlf_9serverlib6engine8database6schema9migration2io5testss_62payload_context_for_table_includes_catalog_encryption_metadata
FN:47,_RNvNtNtNtNtNtNtCsksqSOdb1Dlf_9serverlib6engine8database6schema9migration2io5testss_78load_records_from_path_with_context_rejects_encrypted_payload_without_provider
FNDA:1,_RNvNtNtNtNtNtNtCsksqSOdb1Dlf_9serverlib6engine8database6schema9migration2io5testss_32stream_key_for_empty_table_fails
FNDA:1,_RNvNtNtNtNtNtNtCsksqSOdb1Dlf_9serverlib6engine8database6schema9migration2io5testss_42stream_key_for_table_normalizes_identifier
FNDA:1,_RNvNtNtNtNtNtNtCsksqSOdb1Dlf_9serverlib6engine8database6schema9migration2io5testss_48load_records_from_nonexistent_path_returns_empty
FNDA:1,_RNvNtNtNtNtNtNtCsksqSOdb1Dlf_9serverlib6engine8database6schema9migration2io5testss_62payload_context_for_table_includes_catalog_encryption_metadata
FNDA:1,_RNvNtNtNtNtNtNtCsksqSOdb1Dlf_9serverlib6engine8database6schema9migration2io5testss_78load_records_from_path_with_context_rejects_encrypted_payload_without_provider
FNF:5
FNH:5
DA:8,1
DA:9,1
DA:10,1
DA:11,1
DA:12,1
DA:15,1
DA:16,1
DA:17,1
DA:18,1
DA:21,1
DA:22,1
DA:23,1
DA:24,1
DA:27,1
DA:28,1
DA:29,1
DA:30,1
DA:31,1
DA:32,1
DA:34,1
DA:36,1
DA:37,1
DA:38,1
DA:39,1
DA:40,1
DA:43,1
DA:44,1
DA:47,1
DA:48,1
DA:49,1
DA:50,1
DA:51,1
DA:52,1
DA:53,1
DA:55,1
DA:56,1
DA:57,1
DA:58,1
DA:59,1
DA:61,1
DA:62,1
DA:63,1
DA:64,1
DA:65,1
DA:67,1
DA:68,1
DA:69,1
DA:71,1
DA:72,1
DA:73,1
DA:74,1
DA:75,1
DA:77,1
DA:78,1
DA:79,1
DA:81,1
DA:82,1
DA:84,1
DA:85,1
DA:87,1
DA:89,1
DA:90,1
BRF:0
BRH:0
LF:62
LH:62
end_of_record
SF:/Users/samcolak/Source Code/rust/distdb/distdb/serverlib/src/engine/database/schema/migration/mod.rs
FN:18,_RINvNtNtNtNtCsksqSOdb1Dlf_9serverlib6engine8database6schema9migration20run_schema_migrationNtNtB2_5tests11SpyExecutorEBa_
FN:18,_RINvNtNtNtNtCsksqSOdb1Dlf_9serverlib6engine8database6schema9migration20run_schema_migrationNtNtB2_8executor27NoopSchemaMigrationExecutorEBa_
FN:18,_RINvNtNtNtNtCsksqSOdb1Dlf_9serverlib6engine8database6schema9migration20run_schema_migrationNtNtB2_8executor35DiskToMemorySchemaMigrationExecutorEBa_
FNDA:1,_RINvNtNtNtNtCsksqSOdb1Dlf_9serverlib6engine8database6schema9migration20run_schema_migrationNtNtB2_5tests11SpyExecutorEBa_
FNDA:1,_RINvNtNtNtNtCsksqSOdb1Dlf_9serverlib6engine8database6schema9migration20run_schema_migrationNtNtB2_8executor27NoopSchemaMigrationExecutorEBa_
FNDA:4,_RINvNtNtNtNtCsksqSOdb1Dlf_9serverlib6engine8database6schema9migration20run_schema_migrationNtNtB2_8executor35DiskToMemorySchemaMigrationExecutorEBa_
FNF:1
FNH:1
DA:18,6
DA:19,6
DA:20,6
DA:21,6
DA:22,6
DA:24,6
DA:26,6
DA:27,5
DA:28,4
DA:29,4
DA:30,4
DA:31,4
DA:32,4
DA:33,0
DA:35,4
DA:36,4
DA:38,4
DA:39,4
DA:41,4
DA:42,4
DA:44,6
BRF:0
BRH:0
LF:21
LH:20
end_of_record
SF:/Users/samcolak/Source Code/rust/distdb/distdb/serverlib/src/engine/database/schema/migration/mod_test.rs
FN:16,_RNvMNtNtNtNtNtCsksqSOdb1Dlf_9serverlib6engine8database6schema9migration5testsNtB2_11SpyExecutor5calls
FN:94,_RNvNtNtNtNtNtCsksqSOdb1Dlf_9serverlib6engine8database6schema9migration5testss_41run_schema_migration_requires_active_lock
FN:108,_RNvNtNtNtNtNtCsksqSOdb1Dlf_9serverlib6engine8database6schema9migration5testss_44disk_executor_rewrites_flushes_and_cuts_over
FN:61,_RNvNtNtNtNtNtCsksqSOdb1Dlf_9serverlib6engine8database6schema9migration5testss_47run_schema_migration_updates_progress_and_order
FN:270,_RNvNtNtNtNtNtCsksqSOdb1Dlf_9serverlib6engine8database6schema9migration5testss_52disk_executor_safe_type_change_rejects_invalid_value
FN:340,_RNvNtNtNtNtNtCsksqSOdb1Dlf_9serverlib6engine8database6schema9migration5testss_53disk_executor_force_type_change_coerces_invalid_value
FN:188,_RNvNtNtNtNtNtCsksqSOdb1Dlf_9serverlib6engine8database6schema9migration5testss_59disk_executor_applies_schema_mutation_rules_to_row_payloads
FN:22,_RNvXs_NtNtNtNtNtCsksqSOdb1Dlf_9serverlib6engine8database6schema9migration5testsNtB4_11SpyExecutorNtNtB6_5types23SchemaMigrationExecutor12rewrite_rows
FN:38,_RNvXs_NtNtNtNtNtCsksqSOdb1Dlf_9serverlib6engine8database6schema9migration5testsNtB4_11SpyExecutorNtNtB6_5types23SchemaMigrationExecutor15rebuild_indexes
FN:46,_RNvXs_NtNtNtNtNtCsksqSOdb1Dlf_9serverlib6engine8database6schema9migration5testsNtB4_11SpyExecutorNtNtB6_5types23SchemaMigrationExecutor16flush_temp_image
FN:51,_RNvXs_NtNtNtNtNtCsksqSOdb1Dlf_9serverlib6engine8database6schema9migration5testsNtB4_11SpyExecutorNtNtB6_5types23SchemaMigrationExecutor7cutover
FN:177,_RNCNvNtNtNtNtNtCsksqSOdb1Dlf_9serverlib6engine8database6schema9migration5testss_44disk_executor_rewrites_flushes_and_cuts_over0Bd_
FN:417,_RNCNvNtNtNtNtNtCsksqSOdb1Dlf_9serverlib6engine8database6schema9migration5testss_53disk_executor_force_type_change_coerces_invalid_value0Bd_
FNDA:1,_RNvMNtNtNtNtNtCsksqSOdb1Dlf_9serverlib6engine8database6schema9migration5testsNtB2_11SpyExecutor5calls
FNDA:1,_RNvNtNtNtNtNtCsksqSOdb1Dlf_9serverlib6engine8database6schema9migration5testss_41run_schema_migration_requires_active_lock
FNDA:1,_RNvNtNtNtNtNtCsksqSOdb1Dlf_9serverlib6engine8database6schema9migration5testss_44disk_executor_rewrites_flushes_and_cuts_over
FNDA:1,_RNvNtNtNtNtNtCsksqSOdb1Dlf_9serverlib6engine8database6schema9migration5testss_47run_schema_migration_updates_progress_and_order
FNDA:1,_RNvNtNtNtNtNtCsksqSOdb1Dlf_9serverlib6engine8database6schema9migration5testss_52disk_executor_safe_type_change_rejects_invalid_value
FNDA:1,_RNvNtNtNtNtNtCsksqSOdb1Dlf_9serverlib6engine8database6schema9migration5testss_53disk_executor_force_type_change_coerces_invalid_value
FNDA:1,_RNvNtNtNtNtNtCsksqSOdb1Dlf_9serverlib6engine8database6schema9migration5testss_59disk_executor_applies_schema_mutation_rules_to_row_payloads
FNDA:1,_RNvXs_NtNtNtNtNtCsksqSOdb1Dlf_9serverlib6engine8database6schema9migration5testsNtB4_11SpyExecutorNtNtB6_5types23SchemaMigrationExecutor12rewrite_rows
FNDA:1,_RNvXs_NtNtNtNtNtCsksqSOdb1Dlf_9serverlib6engine8database6schema9migration5testsNtB4_11SpyExecutorNtNtB6_5types23SchemaMigrationExecutor15rebuild_indexes
FNDA:1,_RNvXs_NtNtNtNtNtCsksqSOdb1Dlf_9serverlib6engine8database6schema9migration5testsNtB4_11SpyExecutorNtNtB6_5types23SchemaMigrationExecutor16flush_temp_image
FNDA:1,_RNvXs_NtNtNtNtNtCsksqSOdb1Dlf_9serverlib6engine8database6schema9migration5testsNtB4_11SpyExecutorNtNtB6_5types23SchemaMigrationExecutor7cutover
FNDA:2,_RNCNvNtNtNtNtNtCsksqSOdb1Dlf_9serverlib6engine8database6schema9migration5testss_44disk_executor_rewrites_flushes_and_cuts_over0Bd_
FNDA:1,_RNCNvNtNtNtNtNtCsksqSOdb1Dlf_9serverlib6engine8database6schema9migration5testss_53disk_executor_force_type_change_coerces_invalid_value0Bd_
FNF:13
FNH:13
DA:16,1
DA:17,1
DA:18,1
DA:22,1
DA:23,1
DA:24,1
DA:25,1
DA:26,1
DA:27,1
DA:28,1
DA:29,1
DA:30,1
DA:31,1
DA:32,1
DA:33,1
DA:34,1
DA:35,1
DA:36,1
DA:38,1
DA:39,1
DA:40,1
DA:41,1
DA:42,1
DA:43,1
DA:44,1
DA:46,1
DA:47,1
DA:48,1
DA:49,1
DA:51,1
DA:52,1
DA:53,1
DA:54,1
DA:55,1
DA:56,1
DA:57,1
DA:61,1
DA:62,1
DA:63,1
DA:64,1
DA:65,1
DA:66,1
DA:67,1
DA:68,1
DA:69,1
DA:70,1
DA:71,1
DA:72,1
DA:74,1
DA:75,1
DA:76,1
DA:78,1
DA:79,1
DA:81,1
DA:82,1
DA:84,1
DA:85,1
DA:86,1
DA:87,1
DA:88,1
DA:89,1
DA:90,1
DA:91,1
DA:94,1
DA:95,1
DA:96,1
DA:97,1
DA:98,1
DA:99,1
DA:101,1
DA:102,1
DA:104,1
DA:105,1
DA:108,1
DA:109,1
DA:110,1
DA:111,1
DA:112,1
DA:113,1
DA:114,1
DA:115,1
DA:116,1
DA:117,1
DA:118,1
DA:119,1
DA:121,1
DA:122,1
DA:123,1
DA:125,1
DA:126,1
DA:127,1
DA:128,1
DA:129,1
DA:131,1
DA:133,1
DA:134,1
DA:136,1
DA:137,1
DA:138,1
DA:139,1
DA:140,1
DA:141,1
DA:143,1
DA:144,1
DA:145,1
DA:147,1
DA:148,1
DA:149,1
DA:150,1
DA:152,1
DA:153,1
DA:155,1
DA:156,1
DA:157,1
DA:158,1
DA:160,1
DA:161,1
DA:162,1
DA:166,1
DA:167,1
DA:169,1
DA:171,1
DA:173,1
DA:174,1
DA:175,1
DA:176,1
DA:177,2
DA:179,1
DA:180,1
DA:181,1
DA:182,1
DA:184,1
DA:185,1
DA:188,1
DA:189,1
DA:190,1
DA:191,1
DA:192,1
DA:193,1
DA:194,1
DA:195,1
DA:196,1
DA:197,1
DA:198,1
DA:199,1
DA:201,1
DA:202,1
DA:203,1
DA:205,1
DA:206,1
DA:207,1
DA:208,1
DA:209,1
DA:211,1
DA:213,1
DA:214,1
DA:216,1
DA:217,1
DA:218,1
DA:219,1
DA:221,1
DA:222,1
DA:223,1
DA:224,1
DA:226,1
DA:227,1
DA:228,1
DA:231,1
DA:232,1
DA:234,1
DA:235,1
DA:236,1
DA:237,1
DA:238,1
DA:239,1
DA:240,1
DA:241,1
DA:242,1
DA:243,1
DA:244,1
DA:246,1
DA:248,1
DA:250,1
DA:251,1
DA:253,1
DA:254,1
DA:255,1
DA:256,1
DA:257,1
DA:259,1
DA:261,1
DA:262,1
DA:263,1
DA:264,1
DA:266,1
DA:267,1
DA:270,1
DA:273,1
DA:274,1
DA:275,1
DA:276,1
DA:277,1
DA:278,1
DA:279,1
DA:280,1
DA:281,1
DA:282,1
DA:283,1
DA:285,1
DA:286,1
DA:287,1
DA:289,1
DA:290,1
DA:291,1
DA:292,1
DA:293,1
DA:294,1
DA:296,1
DA:297,1
DA:299,1
DA:300,1
DA:301,1
DA:303,1
DA:304,1
DA:305,1
DA:306,1
DA:308,1
DA:309,1
DA:310,1
DA:313,1
DA:314,1
DA:316,1
DA:317,1
DA:318,1
DA:319,1
DA:320,1
DA:321,1
DA:322,1
DA:323,1
DA:324,1
DA:325,1
DA:326,1
DA:327,1
DA:328,1
DA:329,1
DA:331,1
DA:333,1
DA:334,1
DA:336,1
DA:337,1
DA:340,1
DA:343,1
DA:344,1
DA:345,1
DA:346,1
DA:347,1
DA:348,1
DA:349,1
DA:350,1
DA:351,1
DA:352,1
DA:353,1
DA:355,1
DA:356,1
DA:357,1
DA:359,1
DA:360,1
DA:361,1
DA:362,1
DA:363,1
DA:364,1
DA:366,1
DA:367,1
DA:369,1
DA:370,1
DA:371,1
DA:373,1
DA:374,1
DA:375,1
DA:376,1
DA:378,1
DA:379,1
DA:380,1
DA:383,1
DA:384,1
DA:386,1
DA:387,1
DA:388,1
DA:389,1
DA:390,1
DA:391,1
DA:392,1
DA:393,1
DA:394,1
DA:395,1
DA:396,1
DA:397,1
DA:398,1
DA:399,1
DA:401,1
DA:403,1
DA:404,1
DA:406,1
DA:407,1
DA:408,1
DA:409,1
DA:410,1
DA:411,1
DA:413,1
DA:414,1
DA:415,1
DA:416,1
DA:417,1
DA:418,1
DA:421,1
DA:422,1
BRF:0
BRH:0
LF:318
LH:318
end_of_record
SF:/Users/samcolak/Source Code/rust/distdb/distdb/serverlib/src/engine/database/sql_definition_payload.rs
FN:34,_RNvMNtNtNtCsksqSOdb1Dlf_9serverlib6engine8database22sql_definition_payloadNtB2_20SqlDefinitionPayload6decode
FN:30,_RNvMNtNtNtCsksqSOdb1Dlf_9serverlib6engine8database22sql_definition_payloadNtB2_20SqlDefinitionPayload6encode
FNDA:0,_RNvMNtNtNtCsksqSOdb1Dlf_9serverlib6engine8database22sql_definition_payloadNtB2_20SqlDefinitionPayload6decode
FNDA:1,_RNvMNtNtNtCsksqSOdb1Dlf_9serverlib6engine8database22sql_definition_payloadNtB2_20SqlDefinitionPayload6encode
FNF:2
FNH:1
DA:30,1
DA:31,1
DA:32,1
DA:34,0
DA:35,0
DA:36,0
BRF:0
BRH:0
LF:6
LH:3
end_of_record
SF:/Users/samcolak/Source Code/rust/distdb/distdb/serverlib/src/engine/database/status.rs
FN:77,_RNvMs_NtNtNtCsksqSOdb1Dlf_9serverlib6engine8database6statusNtB4_12ObjectStatus17can_transition_to
FN:16,_RNvXNtNtNtCsksqSOdb1Dlf_9serverlib6engine8database6statusNtB2_12ObjectStatusNtNtCsfOyy81DYK0U_4core3fmt7Display3fmt
FNDA:132,_RNvMs_NtNtNtCsksqSOdb1Dlf_9serverlib6engine8database6statusNtB4_12ObjectStatus17can_transition_to
FNDA:0,_RNvXNtNtNtCsksqSOdb1Dlf_9serverlib6engine8database6statusNtB2_12ObjectStatusNtNtCsfOyy81DYK0U_4core3fmt7Display3fmt
FNF:2
FNH:1
DA:16,0
DA:18,0
DA:19,0
DA:20,0
DA:21,0
DA:22,0
DA:23,0
DA:26,0
DA:77,132
DA:78,0
DA:79,132
DA:97,132
BRF:0
BRH:0
LF:12
LH:3
end_of_record
SF:/Users/samcolak/Source Code/rust/distdb/distdb/serverlib/src/engine/database/status_test.rs
FN:10,_RNvNtNtNtNtCsksqSOdb1Dlf_9serverlib6engine8database6status5testss_43object_status_supports_indexing_transitions
FN:5,_RNvNtNtNtNtCsksqSOdb1Dlf_9serverlib6engine8database6status5testss_51object_status_lock_to_ready_is_valid_for_abort_path
FNDA:1,_RNvNtNtNtNtCsksqSOdb1Dlf_9serverlib6engine8database6status5testss_43object_status_supports_indexing_transitions
FNDA:1,_RNvNtNtNtNtCsksqSOdb1Dlf_9serverlib6engine8database6status5testss_51object_status_lock_to_ready_is_valid_for_abort_path
FNF:2
FNH:2
DA:5,1
DA:6,1
DA:7,1
DA:10,1
DA:11,1
DA:12,1
DA:13,1
DA:14,1
DA:15,1
BRF:0
BRH:0
LF:9
LH:9
end_of_record
SF:/Users/samcolak/Source Code/rust/distdb/distdb/serverlib/src/engine/database/stored_procedure.rs
FN:69,_RNvXs_NtNtNtCsksqSOdb1Dlf_9serverlib6engine8database16stored_procedureNtB4_23DatabaseStoredProcedureNtNtNtB6_6entity6aspect20DatabaseEntityAspect4kind
FN:97,_RNvXs_NtNtNtCsksqSOdb1Dlf_9serverlib6engine8database16stored_procedureNtB4_23DatabaseStoredProcedureNtNtNtB6_6entity6aspect20DatabaseEntityAspect6schema
FN:85,_RNvXs_NtNtNtCsksqSOdb1Dlf_9serverlib6engine8database16stored_procedureNtB4_23DatabaseStoredProcedureNtNtNtB6_6entity6aspect20DatabaseEntityAspect8metadata
FN:57,_RNvMNtNtNtCsksqSOdb1Dlf_9serverlib6engine8database16stored_procedureNtB2_23DatabaseStoredProcedure16if_else_end_plan
FN:48,_RNvMNtNtNtCsksqSOdb1Dlf_9serverlib6engine8database16stored_procedureNtB2_23DatabaseStoredProcedure31refresh_control_flow_plan_cache
FN:25,_RNvMNtNtNtCsksqSOdb1Dlf_9serverlib6engine8database16stored_procedureNtB2_23DatabaseStoredProcedure3new
FN:41,_RNvMNtNtNtCsksqSOdb1Dlf_9serverlib6engine8database16stored_procedureNtB2_23DatabaseStoredProcedure7set_sql
FN:73,_RNvXs_NtNtNtCsksqSOdb1Dlf_9serverlib6engine8database16stored_procedureNtB4_23DatabaseStoredProcedureNtNtNtB6_6entity6aspect20DatabaseEntityAspect11storage_key
FN:77,_RNvXs_NtNtNtCsksqSOdb1Dlf_9serverlib6engine8database16stored_procedureNtB4_23DatabaseStoredProcedureNtNtNtB6_6entity6aspect20DatabaseEntityAspect13set_entity_id
FN:89,_RNvXs_NtNtNtCsksqSOdb1Dlf_9serverlib6engine8database16stored_procedureNtB4_23DatabaseStoredProcedureNtNtNtB6_6entity6aspect20DatabaseEntityAspect13wal_stream_id
FN:93,_RNvXs_NtNtNtCsksqSOdb1Dlf_9serverlib6engine8database16stored_procedureNtB4_23DatabaseStoredProcedureNtNtNtB6_6entity6aspect20DatabaseEntityAspect15schema_revision
FN:101,_RNvXs_NtNtNtCsksqSOdb1Dlf_9serverlib6engine8database16stored_procedureNtB4_23DatabaseStoredProcedureNtNtNtB6_6entity6aspect20DatabaseEntityAspect18normalize_in_place
FN:65,_RNvXs_NtNtNtCsksqSOdb1Dlf_9serverlib6engine8database16stored_procedureNtB4_23DatabaseStoredProcedureNtNtNtB6_6entity6aspect20DatabaseEntityAspect4name
FN:81,_RNvXs_NtNtNtCsksqSOdb1Dlf_9serverlib6engine8database16stored_procedureNtB4_23DatabaseStoredProcedureNtNtNtB6_6entity6aspect20DatabaseEntityAspect6status
FN:108,_RNCNvXs_NtNtNtCsksqSOdb1Dlf_9serverlib6engine8database16stored_procedureNtB6_23DatabaseStoredProcedureNtNtNtB8_6entity6aspect20DatabaseEntityAspect18normalize_in_place0Bc_
FNDA:0,_RNvXs_NtNtNtCsksqSOdb1Dlf_9serverlib6engine8database16stored_procedureNtB4_23DatabaseStoredProcedureNtNtNtB6_6entity6aspect20DatabaseEntityAspect4kind
FNDA:0,_RNvXs_NtNtNtCsksqSOdb1Dlf_9serverlib6engine8database16stored_procedureNtB4_23DatabaseStoredProcedureNtNtNtB6_6entity6aspect20DatabaseEntityAspect6schema
FNDA:0,_RNvXs_NtNtNtCsksqSOdb1Dlf_9serverlib6engine8database16stored_procedureNtB4_23DatabaseStoredProcedureNtNtNtB6_6entity6aspect20DatabaseEntityAspect8metadata
FNDA:13,_RNvMNtNtNtCsksqSOdb1Dlf_9serverlib6engine8database16stored_procedureNtB2_23DatabaseStoredProcedure16if_else_end_plan
FNDA:16,_RNvMNtNtNtCsksqSOdb1Dlf_9serverlib6engine8database16stored_procedureNtB2_23DatabaseStoredProcedure31refresh_control_flow_plan_cache
FNDA:14,_RNvMNtNtNtCsksqSOdb1Dlf_9serverlib6engine8database16stored_procedureNtB2_23DatabaseStoredProcedure3new
FNDA:2,_RNvMNtNtNtCsksqSOdb1Dlf_9serverlib6engine8database16stored_procedureNtB2_23DatabaseStoredProcedure7set_sql
FNDA:14,_RNvXs_NtNtNtCsksqSOdb1Dlf_9serverlib6engine8database16stored_procedureNtB4_23DatabaseStoredProcedureNtNtNtB6_6entity6aspect20DatabaseEntityAspect11storage_key
FNDA:0,_RNvXs_NtNtNtCsksqSOdb1Dlf_9serverlib6engine8database16stored_procedureNtB4_23DatabaseStoredProcedureNtNtNtB6_6entity6aspect20DatabaseEntityAspect13set_entity_id
FNDA:0,_RNvXs_NtNtNtCsksqSOdb1Dlf_9serverlib6engine8database16stored_procedureNtB4_23DatabaseStoredProcedureNtNtNtB6_6entity6aspect20DatabaseEntityAspect13wal_stream_id
FNDA:0,_RNvXs_NtNtNtCsksqSOdb1Dlf_9serverlib6engine8database16stored_procedureNtB4_23DatabaseStoredProcedureNtNtNtB6_6entity6aspect20DatabaseEntityAspect15schema_revision
FNDA:0,_RNvXs_NtNtNtCsksqSOdb1Dlf_9serverlib6engine8database16stored_procedureNtB4_23DatabaseStoredProcedureNtNtNtB6_6entity6aspect20DatabaseEntityAspect18normalize_in_place
FNDA:44,_RNvXs_NtNtNtCsksqSOdb1Dlf_9serverlib6engine8database16stored_procedureNtB4_23DatabaseStoredProcedureNtNtNtB6_6entity6aspect20DatabaseEntityAspect4name
FNDA:0,_RNvXs_NtNtNtCsksqSOdb1Dlf_9serverlib6engine8database16stored_procedureNtB4_23DatabaseStoredProcedureNtNtNtB6_6entity6aspect20DatabaseEntityAspect6status
FNDA:0,_RNCNvXs_NtNtNtCsksqSOdb1Dlf_9serverlib6engine8database16stored_procedureNtB6_23DatabaseStoredProcedureNtNtNtB8_6entity6aspect20DatabaseEntityAspect18normalize_in_place0Bc_
FNF:15
FNH:6
DA:25,14
DA:27,14
DA:28,14
DA:29,14
DA:30,14
DA:31,14
DA:32,14
DA:33,14
DA:34,14
DA:36,14
DA:37,14
DA:39,14
DA:41,2
DA:43,2
DA:44,2
DA:46,2
DA:48,16
DA:50,16
DA:51,16
DA:52,16
DA:53,16
DA:55,16
DA:57,13
DA:58,13
DA:59,13
DA:65,44
DA:66,44
DA:67,44
DA:69,0
DA:70,0
DA:71,0
DA:73,14
DA:74,14
DA:75,14
DA:77,0
DA:78,0
DA:79,0
DA:81,0
DA:82,0
DA:83,0
DA:85,0
DA:86,0
DA:87,0
DA:89,0
DA:90,0
DA:91,0
DA:93,0
DA:94,0
DA:95,0
DA:97,0
DA:98,0
DA:99,0
DA:101,0
DA:103,0
DA:105,0
DA:106,0
DA:107,0
DA:108,0
DA:109,0
DA:111,0
DA:113,0
BRF:0
BRH:0
LF:62
LH:31
end_of_record
SF:/Users/samcolak/Source Code/rust/distdb/distdb/serverlib/src/engine/database/table/lifecycle_payload.rs
FN:28,_RNvMNtNtNtNtCsksqSOdb1Dlf_9serverlib6engine8database5table17lifecycle_payloadNtB2_21TableLifecyclePayload6decode
FN:24,_RNvMNtNtNtNtCsksqSOdb1Dlf_9serverlib6engine8database5table17lifecycle_payloadNtB2_21TableLifecyclePayload6encode
FNDA:0,_RNvMNtNtNtNtCsksqSOdb1Dlf_9serverlib6engine8database5table17lifecycle_payloadNtB2_21TableLifecyclePayload6decode
FNDA:2,_RNvMNtNtNtNtCsksqSOdb1Dlf_9serverlib6engine8database5table17lifecycle_payloadNtB2_21TableLifecyclePayload6encode
FNF:2
FNH:1
DA:24,2
DA:25,2
DA:26,2
DA:28,0
DA:29,0
DA:30,0
BRF:0
BRH:0
LF:6
LH:3
end_of_record
SF:/Users/samcolak/Source Code/rust/distdb/distdb/serverlib/src/engine/database/table/mod.rs
FN:90,_RNvMNtNtNtCsksqSOdb1Dlf_9serverlib6engine8database5tableNtB2_13DatabaseTable14begin_indexing
FN:100,_RNvMNtNtNtCsksqSOdb1Dlf_9serverlib6engine8database5tableNtB2_13DatabaseTable17complete_indexing
FN:179,_RNvXs_NtNtNtCsksqSOdb1Dlf_9serverlib6engine8database5tableNtB4_13DatabaseTableNtNtNtB6_6entity6aspect20DatabaseEntityAspect15schema_revision
FN:155,_RNvXs_NtNtNtCsksqSOdb1Dlf_9serverlib6engine8database5tableNtB4_13DatabaseTableNtNtNtB6_6entity6aspect20DatabaseEntityAspect4kind
FN:183,_RNvXs_NtNtNtCsksqSOdb1Dlf_9serverlib6engine8database5tableNtB4_13DatabaseTableNtNtNtB6_6entity6aspect20DatabaseEntityAspect6schema
FN:167,_RNvXs_NtNtNtCsksqSOdb1Dlf_9serverlib6engine8database5tableNtB4_13DatabaseTableNtNtNtB6_6entity6aspect20DatabaseEntityAspect6status
FN:171,_RNvXs_NtNtNtCsksqSOdb1Dlf_9serverlib6engine8database5tableNtB4_13DatabaseTableNtNtNtB6_6entity6aspect20DatabaseEntityAspect8metadata
FN:79,_RNvMNtNtNtCsksqSOdb1Dlf_9serverlib6engine8database5tableNtB2_13DatabaseTable10begin_sync
FN:120,_RNvMNtNtNtCsksqSOdb1Dlf_9serverlib6engine8database5tableNtB2_13DatabaseTable10transition
FN:60,_RNvMNtNtNtCsksqSOdb1Dlf_9serverlib6engine8database5tableNtB2_13DatabaseTable12is_temporary
FN:85,_RNvMNtNtNtCsksqSOdb1Dlf_9serverlib6engine8database5tableNtB2_13DatabaseTable13complete_sync
FN:109,_RNvMNtNtNtCsksqSOdb1Dlf_9serverlib6engine8database5tableNtB2_13DatabaseTable14replace_schema
FN:56,_RNvMNtNtNtCsksqSOdb1Dlf_9serverlib6engine8database5tableNtB2_13DatabaseTable15schema_revision
FN:31,_RNvMNtNtNtCsksqSOdb1Dlf_9serverlib6engine8database5tableNtB2_13DatabaseTable3new
FN:66,_RNvMNtNtNtCsksqSOdb1Dlf_9serverlib6engine8database5tableNtB2_13DatabaseTable4lock
FN:72,_RNvMNtNtNtCsksqSOdb1Dlf_9serverlib6engine8database5tableNtB2_13DatabaseTable5abort
FN:52,_RNvMNtNtNtCsksqSOdb1Dlf_9serverlib6engine8database5tableNtB2_13DatabaseTable6schema
FN:48,_RNvMNtNtNtCsksqSOdb1Dlf_9serverlib6engine8database5tableNtB2_13DatabaseTable6status
FN:159,_RNvXs_NtNtNtCsksqSOdb1Dlf_9serverlib6engine8database5tableNtB4_13DatabaseTableNtNtNtB6_6entity6aspect20DatabaseEntityAspect11storage_key
FN:163,_RNvXs_NtNtNtCsksqSOdb1Dlf_9serverlib6engine8database5tableNtB4_13DatabaseTableNtNtNtB6_6entity6aspect20DatabaseEntityAspect13set_entity_id
FN:175,_RNvXs_NtNtNtCsksqSOdb1Dlf_9serverlib6engine8database5tableNtB4_13DatabaseTableNtNtNtB6_6entity6aspect20DatabaseEntityAspect13wal_stream_id
FN:187,_RNvXs_NtNtNtCsksqSOdb1Dlf_9serverlib6engine8database5tableNtB4_13DatabaseTableNtNtNtB6_6entity6aspect20DatabaseEntityAspect18normalize_in_place
FN:151,_RNvXs_NtNtNtCsksqSOdb1Dlf_9serverlib6engine8database5tableNtB4_13DatabaseTableNtNtNtB6_6entity6aspect20DatabaseEntityAspect4name
FN:205,_RNCNvXs_NtNtNtCsksqSOdb1Dlf_9serverlib6engine8database5tableNtB6_13DatabaseTableNtNtNtB8_6entity6aspect20DatabaseEntityAspect18normalize_in_place0Bc_
FNDA:0,_RNvMNtNtNtCsksqSOdb1Dlf_9serverlib6engine8database5tableNtB2_13DatabaseTable14begin_indexing
FNDA:0,_RNvMNtNtNtCsksqSOdb1Dlf_9serverlib6engine8database5tableNtB2_13DatabaseTable17complete_indexing
FNDA:0,_RNvXs_NtNtNtCsksqSOdb1Dlf_9serverlib6engine8database5tableNtB4_13DatabaseTableNtNtNtB6_6entity6aspect20DatabaseEntityAspect15schema_revision
FNDA:0,_RNvXs_NtNtNtCsksqSOdb1Dlf_9serverlib6engine8database5tableNtB4_13DatabaseTableNtNtNtB6_6entity6aspect20DatabaseEntityAspect4kind
FNDA:0,_RNvXs_NtNtNtCsksqSOdb1Dlf_9serverlib6engine8database5tableNtB4_13DatabaseTableNtNtNtB6_6entity6aspect20DatabaseEntityAspect6schema
FNDA:0,_RNvXs_NtNtNtCsksqSOdb1Dlf_9serverlib6engine8database5tableNtB4_13DatabaseTableNtNtNtB6_6entity6aspect20DatabaseEntityAspect6status
FNDA:0,_RNvXs_NtNtNtCsksqSOdb1Dlf_9serverlib6engine8database5tableNtB4_13DatabaseTableNtNtNtB6_6entity6aspect20DatabaseEntityAspect8metadata
FNDA:35,_RNvMNtNtNtCsksqSOdb1Dlf_9serverlib6engine8database5tableNtB2_13DatabaseTable10begin_sync
FNDA:90,_RNvMNtNtNtCsksqSOdb1Dlf_9serverlib6engine8database5tableNtB2_13DatabaseTable10transition
FNDA:6,_RNvMNtNtNtCsksqSOdb1Dlf_9serverlib6engine8database5tableNtB2_13DatabaseTable12is_temporary
FNDA:35,_RNvMNtNtNtCsksqSOdb1Dlf_9serverlib6engine8database5tableNtB2_13DatabaseTable13complete_sync
FNDA:6,_RNvMNtNtNtCsksqSOdb1Dlf_9serverlib6engine8database5tableNtB2_13DatabaseTable14replace_schema
FNDA:28,_RNvMNtNtNtCsksqSOdb1Dlf_9serverlib6engine8database5tableNtB2_13DatabaseTable15schema_revision
FNDA:133,_RNvMNtNtNtCsksqSOdb1Dlf_9serverlib6engine8database5tableNtB2_13DatabaseTable3new
FNDA:17,_RNvMNtNtNtCsksqSOdb1Dlf_9serverlib6engine8database5tableNtB2_13DatabaseTable4lock
FNDA:3,_RNvMNtNtNtCsksqSOdb1Dlf_9serverlib6engine8database5tableNtB2_13DatabaseTable5abort
FNDA:122,_RNvMNtNtNtCsksqSOdb1Dlf_9serverlib6engine8database5tableNtB2_13DatabaseTable6schema
FNDA:8,_RNvMNtNtNtCsksqSOdb1Dlf_9serverlib6engine8database5tableNtB2_13DatabaseTable6status
FNDA:194,_RNvXs_NtNtNtCsksqSOdb1Dlf_9serverlib6engine8database5tableNtB4_13DatabaseTableNtNtNtB6_6entity6aspect20DatabaseEntityAspect11storage_key
FNDA:1,_RNvXs_NtNtNtCsksqSOdb1Dlf_9serverlib6engine8database5tableNtB4_13DatabaseTableNtNtNtB6_6entity6aspect20DatabaseEntityAspect13set_entity_id
FNDA:55,_RNvXs_NtNtNtCsksqSOdb1Dlf_9serverlib6engine8database5tableNtB4_13DatabaseTableNtNtNtB6_6entity6aspect20DatabaseEntityAspect13wal_stream_id
FNDA:2,_RNvXs_NtNtNtCsksqSOdb1Dlf_9serverlib6engine8database5tableNtB4_13DatabaseTableNtNtNtB6_6entity6aspect20DatabaseEntityAspect18normalize_in_place
FNDA:592,_RNvXs_NtNtNtCsksqSOdb1Dlf_9serverlib6engine8database5tableNtB4_13DatabaseTableNtNtNtB6_6entity6aspect20DatabaseEntityAspect4name
FNDA:1,_RNCNvXs_NtNtNtCsksqSOdb1Dlf_9serverlib6engine8database5tableNtB6_13DatabaseTableNtNtNtB8_6entity6aspect20DatabaseEntityAspect18normalize_in_place0Bc_
FNF:24
FNH:17
DA:31,133
DA:32,133
DA:33,133
DA:34,133
DA:35,133
DA:36,133
DA:37,133
DA:38,133
DA:39,133
DA:40,133
DA:41,133
DA:42,133
DA:43,133
DA:44,133
DA:45,133
DA:46,133
DA:48,8
DA:49,8
DA:50,8
DA:52,122
DA:53,122
DA:54,122
DA:56,28
DA:57,28
DA:58,28
DA:60,6
DA:61,6
DA:62,6
DA:66,17
DA:67,17
DA:68,17
DA:72,3
DA:73,3
DA:74,3
DA:79,35
DA:80,35
DA:81,35
DA:85,35
DA:86,35
DA:87,35
DA:90,0
DA:92,0
DA:93,0
DA:94,0
DA:96,0
DA:97,0
DA:100,0
DA:102,0
DA:103,0
DA:104,0
DA:106,0
DA:107,0
DA:109,6
DA:110,6
DA:111,6
DA:112,6
DA:113,6
DA:114,6
DA:115,6
DA:116,6
DA:117,6
DA:118,6
DA:120,90
DA:122,90
DA:124,90
DA:125,0
DA:132,0
DA:133,90
DA:135,90
DA:136,90
DA:143,90
DA:145,90
DA:151,592
DA:152,592
DA:153,592
DA:155,0
DA:156,0
DA:157,0
DA:159,194
DA:160,194
DA:161,194
DA:163,1
DA:164,1
DA:165,1
DA:167,0
DA:168,0
DA:169,0
DA:171,0
DA:172,0
DA:173,0
DA:175,55
DA:176,55
DA:177,55
DA:179,0
DA:180,0
DA:181,0
DA:183,0
DA:184,0
DA:185,0
DA:187,2
DA:189,2
DA:190,2
DA:192,2
DA:194,2
DA:196,1
DA:198,1
DA:199,0
DA:200,1
DA:202,1
DA:203,1
DA:204,1
DA:205,1
DA:206,1
DA:208,1
DA:209,1
DA:211,1
DA:215,2
DA:217,2
BRF:0
BRH:0
LF:119
LH:89
end_of_record
SF:/Users/samcolak/Source Code/rust/distdb/distdb/serverlib/src/engine/database/table/schema_def.rs
FN:76,_RNvMNtNtNtNtCsksqSOdb1Dlf_9serverlib6engine8database5table10schema_defNtB2_11TableSchema12remove_field
FN:94,_RNvMNtNtNtNtCsksqSOdb1Dlf_9serverlib6engine8database5table10schema_defNtB2_11TableSchema12update_field
FN:15,_RNvMNtNtNtNtCsksqSOdb1Dlf_9serverlib6engine8database5table10schema_defNtB2_11TableSchema3new
FN:19,_RNvMNtNtNtNtCsksqSOdb1Dlf_9serverlib6engine8database5table10schema_defNtB2_11TableSchema5field
FN:26,_RNvMNtNtNtNtCsksqSOdb1Dlf_9serverlib6engine8database5table10schema_defNtB2_11TableSchema8validate
FN:54,_RNvMNtNtNtNtCsksqSOdb1Dlf_9serverlib6engine8database5table10schema_defNtB2_11TableSchema9add_field
FN:82,_RNCNvMNtNtNtNtCsksqSOdb1Dlf_9serverlib6engine8database5table10schema_defNtB4_11TableSchema12remove_field0Bc_
FN:104,_RNCNvMNtNtNtNtCsksqSOdb1Dlf_9serverlib6engine8database5table10schema_defNtB4_11TableSchema12update_fields0_0Bc_
FN:111,_RNCNvMNtNtNtNtCsksqSOdb1Dlf_9serverlib6engine8database5table10schema_defNtB4_11TableSchema12update_fields1_0Bc_
FN:21,_RNCNvMNtNtNtNtCsksqSOdb1Dlf_9serverlib6engine8database5table10schema_defNtB4_11TableSchema5field0Bc_
FN:61,_RNCNvMNtNtNtNtCsksqSOdb1Dlf_9serverlib6engine8database5table10schema_defNtB4_11TableSchema9add_fields0_0Bc_
FN:65,_RNCNvMNtNtNtNtCsksqSOdb1Dlf_9serverlib6engine8database5table10schema_defNtB4_11TableSchema9add_fields1_0Bc_
FNDA:3,_RNvMNtNtNtNtCsksqSOdb1Dlf_9serverlib6engine8database5table10schema_defNtB2_11TableSchema12remove_field
FNDA:3,_RNvMNtNtNtNtCsksqSOdb1Dlf_9serverlib6engine8database5table10schema_defNtB2_11TableSchema12update_field
FNDA:161,_RNvMNtNtNtNtCsksqSOdb1Dlf_9serverlib6engine8database5table10schema_defNtB2_11TableSchema3new
FNDA:445,_RNvMNtNtNtNtCsksqSOdb1Dlf_9serverlib6engine8database5table10schema_defNtB2_11TableSchema5field
FNDA:141,_RNvMNtNtNtNtCsksqSOdb1Dlf_9serverlib6engine8database5table10schema_defNtB2_11TableSchema8validate
FNDA:4,_RNvMNtNtNtNtCsksqSOdb1Dlf_9serverlib6engine8database5table10schema_defNtB2_11TableSchema9add_field
FNDA:2,_RNCNvMNtNtNtNtCsksqSOdb1Dlf_9serverlib6engine8database5table10schema_defNtB4_11TableSchema12remove_field0Bc_
FNDA:2,_RNCNvMNtNtNtNtCsksqSOdb1Dlf_9serverlib6engine8database5table10schema_defNtB4_11TableSchema12update_fields0_0Bc_
FNDA:3,_RNCNvMNtNtNtNtCsksqSOdb1Dlf_9serverlib6engine8database5table10schema_defNtB4_11TableSchema12update_fields1_0Bc_
FNDA:774,_RNCNvMNtNtNtNtCsksqSOdb1Dlf_9serverlib6engine8database5table10schema_defNtB4_11TableSchema5field0Bc_
FNDA:2,_RNCNvMNtNtNtNtCsksqSOdb1Dlf_9serverlib6engine8database5table10schema_defNtB4_11TableSchema9add_fields0_0Bc_
FNDA:1,_RNCNvMNtNtNtNtCsksqSOdb1Dlf_9serverlib6engine8database5table10schema_defNtB4_11TableSchema9add_fields1_0Bc_
FNF:12
FNH:12
DA:15,161
DA:16,161
DA:17,161
DA:19,445
DA:20,445
DA:21,774
DA:22,445
DA:26,141
DA:28,141
DA:29,141
DA:31,256
DA:33,256
DA:34,256
DA:36,256
DA:38,256
DA:39,0
DA:40,256
DA:42,256
DA:43,1
DA:44,255
DA:48,140
DA:50,141
DA:54,4
DA:56,4
DA:57,4
DA:59,4
DA:61,4
DA:62,1
DA:63,3
DA:65,3
DA:66,1
DA:67,2
DA:69,2
DA:71,2
DA:73,4
DA:76,3
DA:78,3
DA:79,3
DA:80,3
DA:81,3
DA:82,3
DA:83,3
DA:85,2
DA:87,2
DA:89,3
DA:94,3
DA:96,3
DA:97,3
DA:99,3
DA:101,3
DA:102,3
DA:103,3
DA:104,3
DA:105,3
DA:107,2
DA:108,2
DA:109,2
DA:110,2
DA:111,3
DA:113,1
DA:114,1
DA:116,1
DA:118,1
DA:120,3
BRF:0
BRH:0
LF:70
LH:69
end_of_record
SF:/Users/samcolak/Source Code/rust/distdb/distdb/serverlib/src/engine/database/table/schema_def_test.rs
FN:5,_RNvNtNtNtNtNtCsksqSOdb1Dlf_9serverlib6engine8database5table10schema_def15schema_def_test10text_field
FN:18,_RNvNtNtNtNtNtCsksqSOdb1Dlf_9serverlib6engine8database5table10schema_def15schema_def_tests_25add_field_normalizes_name
FN:25,_RNvNtNtNtNtNtCsksqSOdb1Dlf_9serverlib6engine8database5table10schema_def15schema_def_tests_32add_field_rejects_duplicate_name
FN:32,_RNvNtNtNtNtNtCsksqSOdb1Dlf_9serverlib6engine8database5table10schema_def15schema_def_tests_33add_field_rejects_duplicate_seqno
FN:39,_RNvNtNtNtNtNtCsksqSOdb1Dlf_9serverlib6engine8database5table10schema_def15schema_def_tests_39remove_field_removes_by_normalized_name
FN:47,_RNvNtNtNtNtNtCsksqSOdb1Dlf_9serverlib6engine8database5table10schema_def15schema_def_tests_41remove_field_returns_error_when_not_found
FN:54,_RNvNtNtNtNtNtCsksqSOdb1Dlf_9serverlib6engine8database5table10schema_def15schema_def_tests_41update_field_replaces_existing_definition
FN:75,_RNvNtNtNtNtNtCsksqSOdb1Dlf_9serverlib6engine8database5table10schema_def15schema_def_tests_41update_field_returns_error_when_not_found
FN:101,_RNvNtNtNtNtNtCsksqSOdb1Dlf_9serverlib6engine8database5table10schema_def15schema_def_tests_48validate_rejects_duplicate_seqno_from_raw_schema
FN:82,_RNvNtNtNtNtNtCsksqSOdb1Dlf_9serverlib6engine8database5table10schema_def15schema_def_tests_52update_field_rejects_seqno_conflict_with_other_field
FNDA:13,_RNvNtNtNtNtNtCsksqSOdb1Dlf_9serverlib6engine8database5table10schema_def15schema_def_test10text_field
FNDA:1,_RNvNtNtNtNtNtCsksqSOdb1Dlf_9serverlib6engine8database5table10schema_def15schema_def_tests_25add_field_normalizes_name
FNDA:1,_RNvNtNtNtNtNtCsksqSOdb1Dlf_9serverlib6engine8database5table10schema_def15schema_def_tests_32add_field_rejects_duplicate_name
FNDA:1,_RNvNtNtNtNtNtCsksqSOdb1Dlf_9serverlib6engine8database5table10schema_def15schema_def_tests_33add_field_rejects_duplicate_seqno
FNDA:1,_RNvNtNtNtNtNtCsksqSOdb1Dlf_9serverlib6engine8database5table10schema_def15schema_def_tests_39remove_field_removes_by_normalized_name
FNDA:1,_RNvNtNtNtNtNtCsksqSOdb1Dlf_9serverlib6engine8database5table10schema_def15schema_def_tests_41remove_field_returns_error_when_not_found
FNDA:1,_RNvNtNtNtNtNtCsksqSOdb1Dlf_9serverlib6engine8database5table10schema_def15schema_def_tests_41update_field_replaces_existing_definition
FNDA:1,_RNvNtNtNtNtNtCsksqSOdb1Dlf_9serverlib6engine8database5table10schema_def15schema_def_tests_41update_field_returns_error_when_not_found
FNDA:1,_RNvNtNtNtNtNtCsksqSOdb1Dlf_9serverlib6engine8database5table10schema_def15schema_def_tests_48validate_rejects_duplicate_seqno_from_raw_schema
FNDA:1,_RNvNtNtNtNtNtCsksqSOdb1Dlf_9serverlib6engine8database5table10schema_def15schema_def_tests_52update_field_rejects_seqno_conflict_with_other_field
FNF:10
FNH:10
DA:5,13
DA:6,13
DA:7,13
DA:8,13
DA:9,13
DA:10,13
DA:11,13
DA:12,13
DA:13,13
DA:14,13
DA:15,13
DA:18,1
DA:19,1
DA:20,1
DA:21,1
DA:22,1
DA:25,1
DA:26,1
DA:27,1
DA:28,1
DA:29,1
DA:32,1
DA:33,1
DA:34,1
DA:35,1
DA:36,1
DA:39,1
DA:40,1
DA:41,1
DA:42,1
DA:43,1
DA:44,1
DA:47,1
DA:48,1
DA:49,1
DA:50,1
DA:51,1
DA:54,1
DA:56,1
DA:58,1
DA:59,1
DA:60,1
DA:61,1
DA:62,1
DA:63,1
DA:64,1
DA:65,1
DA:66,1
DA:68,1
DA:70,1
DA:72,1
DA:75,1
DA:76,1
DA:77,1
DA:78,1
DA:79,1
DA:82,1
DA:83,1
DA:85,1
DA:86,1
DA:87,1
DA:88,1
DA:89,1
DA:90,1
DA:91,1
DA:92,1
DA:93,1
DA:94,1
DA:95,1
DA:97,1
DA:98,1
DA:101,1
DA:102,1
DA:103,1
DA:104,1
DA:105,1
BRF:0
BRH:0
LF:76
LH:76
end_of_record
SF:/Users/samcolak/Source Code/rust/distdb/distdb/serverlib/src/engine/database/transaction/log.rs
FN:28,_RNCNvYpNtNtNtNtNtCsksqSOdb1Dlf_9serverlib6engine8database11transaction3log14TransactionLog11since_kinds0Bf_
FN:15,_RNvYpNtNtNtNtNtCsksqSOdb1Dlf_9serverlib6engine8database11transaction3log14TransactionLog11since_kindsBd_
FNDA:0,_RNCNvYpNtNtNtNtNtCsksqSOdb1Dlf_9serverlib6engine8database11transaction3log14TransactionLog11since_kinds0Bf_
FNDA:0,_RNvYpNtNtNtNtNtCsksqSOdb1Dlf_9serverlib6engine8database11transaction3log14TransactionLog11since_kindsBd_
FNF:2
FNH:0
DA:15,0
DA:16,0
DA:17,0
DA:18,0
DA:19,0
DA:20,0
DA:22,0
DA:23,0
DA:24,0
DA:26,0
DA:27,0
DA:28,0
DA:29,0
DA:31,0
BRF:0
BRH:0
LF:15
LH:0
end_of_record
SF:/Users/samcolak/Source Code/rust/distdb/distdb/serverlib/src/engine/database/transaction/payload.rs
FN:133,_RNvNtNtNtNtNtCsksqSOdb1Dlf_9serverlib6engine8database11transaction7payload5testss_45kind_dispatch_decodes_entity_metadata_payload
FN:107,_RNvNtNtNtNtNtCsksqSOdb1Dlf_9serverlib6engine8database11transaction7payload5testss_54schema_change_payload_round_trips_through_common_codec
FN:76,_RNvMs3_NtNtNtNtCsksqSOdb1Dlf_9serverlib6engine8database11transaction7payloadNtB5_25DecodedTransactionPayload6decode
FN:37,_RNvXNtNtNtNtCsksqSOdb1Dlf_9serverlib6engine8database11transaction7payloadNtNtNtB6_6schema14change_payload19SchemaChangePayloadNtB2_23TransactionPayloadCodec14decode_payloadBa_
FN:33,_RNvXNtNtNtNtCsksqSOdb1Dlf_9serverlib6engine8database11transaction7payloadNtNtNtB6_6schema14change_payload19SchemaChangePayloadNtB2_23TransactionPayloadCodec14encode_payloadBa_
FN:37,_RNvXNtNtNtNtCsksqSOdb1Dlf_9serverlib6engine8database11transaction7payloadNtNtNtB6_5table17lifecycle_payload21TableLifecyclePayloadNtB2_23TransactionPayloadCodec14decode_payloadBa_
FN:33,_RNvXNtNtNtNtCsksqSOdb1Dlf_9serverlib6engine8database11transaction7payloadNtNtNtB6_5table17lifecycle_payload21TableLifecyclePayloadNtB2_23TransactionPayloadCodec14encode_payloadBa_
FN:37,_RNvXNtNtNtNtCsksqSOdb1Dlf_9serverlib6engine8database11transaction7payloadNtNtNtB6_6entity7payload21EntityMetadataPayloadNtB2_23TransactionPayloadCodec14decode_payloadBa_
FN:33,_RNvXNtNtNtNtCsksqSOdb1Dlf_9serverlib6engine8database11transaction7payloadNtNtNtB6_6entity7payload21EntityMetadataPayloadNtB2_23TransactionPayloadCodec14encode_payloadBa_
FN:37,_RNvXNtNtNtNtCsksqSOdb1Dlf_9serverlib6engine8database11transaction7payloadNtNtB6_22sql_definition_payload20SqlDefinitionPayloadNtB2_23TransactionPayloadCodec14decode_payloadBa_
FN:33,_RNvXNtNtNtNtCsksqSOdb1Dlf_9serverlib6engine8database11transaction7payloadNtNtB6_22sql_definition_payload20SqlDefinitionPayloadNtB2_23TransactionPayloadCodec14encode_payloadBa_
FNDA:1,_RNvNtNtNtNtNtCsksqSOdb1Dlf_9serverlib6engine8database11transaction7payload5testss_45kind_dispatch_decodes_entity_metadata_payload
FNDA:1,_RNvNtNtNtNtNtCsksqSOdb1Dlf_9serverlib6engine8database11transaction7payload5testss_54schema_change_payload_round_trips_through_common_codec
FNDA:5,_RNvMs3_NtNtNtNtCsksqSOdb1Dlf_9serverlib6engine8database11transaction7payloadNtB5_25DecodedTransactionPayload6decode
FNDA:3,_RNvXNtNtNtNtCsksqSOdb1Dlf_9serverlib6engine8database11transaction7payloadNtNtNtB6_6schema14change_payload19SchemaChangePayloadNtB2_23TransactionPayloadCodec14decode_payloadBa_
FNDA:3,_RNvXNtNtNtNtCsksqSOdb1Dlf_9serverlib6engine8database11transaction7payloadNtNtNtB6_6schema14change_payload19SchemaChangePayloadNtB2_23TransactionPayloadCodec14encode_payloadBa_
FNDA:2,_RNvXNtNtNtNtCsksqSOdb1Dlf_9serverlib6engine8database11transaction7payloadNtNtNtB6_5table17lifecycle_payload21TableLifecyclePayloadNtB2_23TransactionPayloadCodec14decode_payloadBa_
FNDA:2,_RNvXNtNtNtNtCsksqSOdb1Dlf_9serverlib6engine8database11transaction7payloadNtNtNtB6_5table17lifecycle_payload21TableLifecyclePayloadNtB2_23TransactionPayloadCodec14encode_payloadBa_
FNDA:2,_RNvXNtNtNtNtCsksqSOdb1Dlf_9serverlib6engine8database11transaction7payloadNtNtNtB6_6entity7payload21EntityMetadataPayloadNtB2_23TransactionPayloadCodec14decode_payloadBa_
FNDA:2,_RNvXNtNtNtNtCsksqSOdb1Dlf_9serverlib6engine8database11transaction7payloadNtNtNtB6_6entity7payload21EntityMetadataPayloadNtB2_23TransactionPayloadCodec14encode_payloadBa_
FNDA:1,_RNvXNtNtNtNtCsksqSOdb1Dlf_9serverlib6engine8database11transaction7payloadNtNtB6_22sql_definition_payload20SqlDefinitionPayloadNtB2_23TransactionPayloadCodec14decode_payloadBa_
FNDA:1,_RNvXNtNtNtNtCsksqSOdb1Dlf_9serverlib6engine8database11transaction7payloadNtNtB6_22sql_definition_payload20SqlDefinitionPayloadNtB2_23TransactionPayloadCodec14encode_payloadBa_
FNF:5
FNH:5
DA:33,8
DA:34,8
DA:35,8
DA:37,8
DA:38,8
DA:39,8
DA:76,5
DA:78,5
DA:80,0
DA:81,0
DA:83,2
DA:84,2
DA:87,2
DA:90,1
DA:91,1
DA:93,0
DA:97,5
DA:107,1
DA:109,1
DA:110,1
DA:111,1
DA:112,1
DA:113,1
DA:114,1
DA:115,1
DA:116,1
DA:117,1
DA:118,1
DA:119,1
DA:120,1
DA:121,1
DA:122,1
DA:123,1
DA:125,1
DA:126,1
DA:128,1
DA:130,1
DA:133,1
DA:135,1
DA:136,1
DA:137,1
DA:138,1
DA:140,1
DA:141,1
DA:142,1
DA:144,1
DA:146,1
BRF:0
BRH:0
LF:47
LH:44
end_of_record
SF:/Users/samcolak/Source Code/rust/distdb/distdb/serverlib/src/engine/database/transaction/record.rs
FN:144,_RINvMs1_NtNtNtNtCsksqSOdb1Dlf_9serverlib6engine8database11transaction6recordNtB6_33ChainedTransactionPayloadResolver14push_transformpEBe_
FN:194,_RINvMs3_NtNtNtNtCsksqSOdb1Dlf_9serverlib6engine8database11transaction6recordNtB6_31ChainedTransactionPayloadWriter14push_transformpEBe_
FN:97,_RNvMs0_NtNtNtNtCsksqSOdb1Dlf_9serverlib6engine8database11transaction6recordNtB5_25TransactionPayloadContext26at_rest_encryption_enabled
FN:428,_RNvMs7_NtNtNtNtCsksqSOdb1Dlf_9serverlib6engine8database11transaction6recordNtB5_17TransactionRecord11has_payload
FN:418,_RNvMs7_NtNtNtNtCsksqSOdb1Dlf_9serverlib6engine8database11transaction6recordNtB5_17TransactionRecord11payload_mut
FN:370,_RNvMs7_NtNtNtNtCsksqSOdb1Dlf_9serverlib6engine8database11transaction6recordNtB5_17TransactionRecord13payload_bytes
FN:22,_RNvXNtNtNtNtCsksqSOdb1Dlf_9serverlib6engine8database11transaction6recordNtB2_21PayloadTransformErrorNtNtCsfOyy81DYK0U_4core3fmt7Display3fmt
FN:484,_RNvNtNtNtNtNtCsksqSOdb1Dlf_9serverlib6engine8database11transaction6record5tests12sample_frame
FN:500,_RNvNtNtNtNtNtCsksqSOdb1Dlf_9serverlib6engine8database11transaction6record5testss_31wal_frame_roundtrip_uses_base64
FN:509,_RNvNtNtNtNtNtCsksqSOdb1Dlf_9serverlib6engine8database11transaction6record5testss_35wal_frame_decode_accepts_legacy_hex
FN:565,_RNvNtNtNtNtNtCsksqSOdb1Dlf_9serverlib6engine8database11transaction6record5testss_45plain_payload_resolver_preserves_none_payload
FN:664,_RNvNtNtNtNtNtCsksqSOdb1Dlf_9serverlib6engine8database11transaction6record5testss_50chained_payload_writer_applies_transforms_in_order
FN:748,_RNvNtNtNtNtNtCsksqSOdb1Dlf_9serverlib6engine8database11transaction6record5testss_51chained_payload_writer_passes_context_to_transforms
FN:583,_RNvNtNtNtNtNtCsksqSOdb1Dlf_9serverlib6engine8database11transaction6record5testss_52chained_payload_resolver_applies_transforms_in_order
FN:522,_RNvNtNtNtNtNtCsksqSOdb1Dlf_9serverlib6engine8database11transaction6record5testss_56plain_payload_resolver_returns_raw_bytes_and_caches_once
FN:785,_RNvNtNtNtNtNtCsksqSOdb1Dlf_9serverlib6engine8database11transaction6record5testss_60resolve_payload_with_context_recomputes_when_context_changes
FN:716,_RNvNtNtNtNtNtCsksqSOdb1Dlf_9serverlib6engine8database11transaction6record5testss_73chained_payload_writer_leaves_payload_unchanged_when_no_transform_matches
FN:635,_RNvNtNtNtNtNtCsksqSOdb1Dlf_9serverlib6engine8database11transaction6record5testss_75chained_payload_resolver_leaves_payload_unchanged_when_no_transform_matches
FN:668,_RNvXNvNtNtNtNtNtCsksqSOdb1Dlf_9serverlib6engine8database11transaction6record5testss_50chained_payload_writer_applies_transforms_in_orderNtB2_20PrefixWriteTransformNtB6_32TransactionPayloadWriteTransform27transform_payload_for_write
FN:752,_RNvXNvNtNtNtNtNtCsksqSOdb1Dlf_9serverlib6engine8database11transaction6record5testss_51chained_payload_writer_passes_context_to_transformsNtB2_26ContextAwareWriteTransformNtB6_32TransactionPayloadWriteTransform27transform_payload_for_write
FN:587,_RNvXNvNtNtNtNtNtCsksqSOdb1Dlf_9serverlib6engine8database11transaction6record5testss_52chained_payload_resolver_applies_transforms_in_orderNtB2_15PrefixTransformNtB6_27TransactionPayloadTransform17transform_payload
FN:529,_RNvXNvNtNtNtNtNtCsksqSOdb1Dlf_9serverlib6engine8database11transaction6record5testss_56plain_payload_resolver_returns_raw_bytes_and_caches_onceNtB2_16CountingResolverNtB6_26TransactionPayloadResolver15resolve_payload
FN:789,_RNvXNvNtNtNtNtNtCsksqSOdb1Dlf_9serverlib6engine8database11transaction6record5testss_60resolve_payload_with_context_recomputes_when_context_changesNtB2_20ContextAwareResolverNtB6_26TransactionPayloadResolver15resolve_payload
FN:720,_RNvXNvNtNtNtNtNtCsksqSOdb1Dlf_9serverlib6engine8database11transaction6record5testss_73chained_payload_writer_leaves_payload_unchanged_when_no_transform_matchesNtB2_18NoopWriteTransformNtB6_32TransactionPayloadWriteTransform27transform_payload_for_write
FN:639,_RNvXNvNtNtNtNtNtCsksqSOdb1Dlf_9serverlib6engine8database11transaction6record5testss_75chained_payload_resolver_leaves_payload_unchanged_when_no_transform_matchesNtB2_13NoopTransformNtB6_27TransactionPayloadTransform17transform_payload
FN:683,_RNvXs_NvNtNtNtNtNtCsksqSOdb1Dlf_9serverlib6engine8database11transaction6record5testss_50chained_payload_writer_applies_transforms_in_orderNtB4_20SuffixWriteTransformNtB8_32TransactionPayloadWriteTransform27transform_payload_for_write
FN:601,_RNvXs_NvNtNtNtNtNtCsksqSOdb1Dlf_9serverlib6engine8database11transaction6record5testss_52chained_payload_resolver_applies_transforms_in_orderNtB4_15SuffixTransformNtB8_27TransactionPayloadTransform17transform_payload
FN:62,_RINvMs0_NtNtNtNtCsksqSOdb1Dlf_9serverlib6engine8database11transaction6recordNtB6_25TransactionPayloadContext13with_table_idNtNtCslDfkGcRelIg_5alloc6string6StringEBe_
FN:62,_RINvMs0_NtNtNtNtCsksqSOdb1Dlf_9serverlib6engine8database11transaction6recordNtB6_25TransactionPayloadContext13with_table_idReEBe_
FN:52,_RINvMs0_NtNtNtNtCsksqSOdb1Dlf_9serverlib6engine8database11transaction6recordNtB6_25TransactionPayloadContext14with_stream_idNtNtCslDfkGcRelIg_5alloc6string6StringEBe_
FN:57,_RINvMs0_NtNtNtNtCsksqSOdb1Dlf_9serverlib6engine8database11transaction6recordNtB6_25TransactionPayloadContext16with_database_idNtNtCslDfkGcRelIg_5alloc6string6StringEBe_
FN:57,_RINvMs0_NtNtNtNtCsksqSOdb1Dlf_9serverlib6engine8database11transaction6recordNtB6_25TransactionPayloadContext16with_database_idReEBe_
FN:67,_RINvMs0_NtNtNtNtCsksqSOdb1Dlf_9serverlib6engine8database11transaction6recordNtB6_25TransactionPayloadContext23with_at_rest_encryptionNtNtCslDfkGcRelIg_5alloc6string6StringEBe_
FN:67,_RINvMs0_NtNtNtNtCsksqSOdb1Dlf_9serverlib6engine8database11transaction6recordNtB6_25TransactionPayloadContext23with_at_rest_encryptionReEBe_
FN:139,_RINvMs1_NtNtNtNtCsksqSOdb1Dlf_9serverlib6engine8database11transaction6recordNtB6_33ChainedTransactionPayloadResolver14with_transformNtNvNtB6_5testss_52chained_payload_resolver_applies_transforms_in_order15PrefixTransformEBe_
FN:139,_RINvMs1_NtNtNtNtCsksqSOdb1Dlf_9serverlib6engine8database11transaction6recordNtB6_33ChainedTransactionPayloadResolver14with_transformNtNvNtB6_5testss_52chained_payload_resolver_applies_transforms_in_order15SuffixTransformEBe_
FN:139,_RINvMs1_NtNtNtNtCsksqSOdb1Dlf_9serverlib6engine8database11transaction6recordNtB6_33ChainedTransactionPayloadResolver14with_transformNtNvNtB6_5testss_75chained_payload_resolver_leaves_payload_unchanged_when_no_transform_matches13NoopTransformEBe_
FN:189,_RINvMs3_NtNtNtNtCsksqSOdb1Dlf_9serverlib6engine8database11transaction6recordNtB6_31ChainedTransactionPayloadWriter14with_transformNtNvNtB6_5testss_50chained_payload_writer_applies_transforms_in_order20PrefixWriteTransformEBe_
FN:189,_RINvMs3_NtNtNtNtCsksqSOdb1Dlf_9serverlib6engine8database11transaction6recordNtB6_31ChainedTransactionPayloadWriter14with_transformNtNvNtB6_5testss_50chained_payload_writer_applies_transforms_in_order20SuffixWriteTransformEBe_
FN:189,_RINvMs3_NtNtNtNtCsksqSOdb1Dlf_9serverlib6engine8database11transaction6recordNtB6_31ChainedTransactionPayloadWriter14with_transformNtNvNtB6_5testss_51chained_payload_writer_passes_context_to_transforms26ContextAwareWriteTransformEBe_
FN:189,_RINvMs3_NtNtNtNtCsksqSOdb1Dlf_9serverlib6engine8database11transaction6recordNtB6_31ChainedTransactionPayloadWriter14with_transformNtNvNtB6_5testss_73chained_payload_writer_leaves_payload_unchanged_when_no_transform_matches18NoopWriteTransformEBe_
FN:382,_RINvMs7_NtNtNtNtCsksqSOdb1Dlf_9serverlib6engine8database11transaction6recordNtB6_17TransactionRecord20resolve_payload_withNtB6_31PlainTransactionPayloadResolverEBe_
FN:382,_RINvMs7_NtNtNtNtCsksqSOdb1Dlf_9serverlib6engine8database11transaction6recordNtB6_17TransactionRecord20resolve_payload_withNtB6_33ChainedTransactionPayloadResolverEBe_
FN:382,_RINvMs7_NtNtNtNtCsksqSOdb1Dlf_9serverlib6engine8database11transaction6recordNtB6_17TransactionRecord20resolve_payload_withNtNvNtB6_5testss_56plain_payload_resolver_returns_raw_bytes_and_caches_once16CountingResolverEBe_
FN:392,_RINvMs7_NtNtNtNtCsksqSOdb1Dlf_9serverlib6engine8database11transaction6recordNtB6_17TransactionRecord28resolve_payload_with_contextNtB6_31PlainTransactionPayloadResolverEBe_
FN:392,_RINvMs7_NtNtNtNtCsksqSOdb1Dlf_9serverlib6engine8database11transaction6recordNtB6_17TransactionRecord28resolve_payload_with_contextNtB6_33ChainedTransactionPayloadResolverEBe_
FN:392,_RINvMs7_NtNtNtNtCsksqSOdb1Dlf_9serverlib6engine8database11transaction6recordNtB6_17TransactionRecord28resolve_payload_with_contextNtNvNtB6_5testss_56plain_payload_resolver_returns_raw_bytes_and_caches_once16CountingResolverEBe_
FN:392,_RINvMs7_NtNtNtNtCsksqSOdb1Dlf_9serverlib6engine8database11transaction6recordNtB6_17TransactionRecord28resolve_payload_with_contextNtNvNtB6_5testss_60resolve_payload_with_context_recomputes_when_context_changes20ContextAwareResolverEBe_
FN:363,_RNCNvMs7_NtNtNtNtCsksqSOdb1Dlf_9serverlib6engine8database11transaction6recordNtB7_17TransactionRecord15payload_logical0Bf_
FN:467,_RNCNvNtNtNtNtCsksqSOdb1Dlf_9serverlib6engine8database11transaction6record16decode_wal_frame0Bb_
FN:475,_RNCNvNtNtNtNtCsksqSOdb1Dlf_9serverlib6engine8database11transaction6record16decode_wal_frames0_0Bb_
FN:469,_RNCNvNtNtNtNtCsksqSOdb1Dlf_9serverlib6engine8database11transaction6record16decode_wal_frames_0Bb_
FN:439,_RNCNvNtNtNtNtCsksqSOdb1Dlf_9serverlib6engine8database11transaction6record16encode_wal_frame0Bb_
FN:252,_RNCNvXs4_NtNtNtNtCsksqSOdb1Dlf_9serverlib6engine8database11transaction6recordNtB7_31PlainTransactionPayloadResolverNtB7_26TransactionPayloadResolver15resolve_payload0Bf_
FN:514,_RNCNvNtNtNtNtNtCsksqSOdb1Dlf_9serverlib6engine8database11transaction6record5testss_35wal_frame_decode_accepts_legacy_hex0Bd_
FN:535,_RNCNvXNvNtNtNtNtNtCsksqSOdb1Dlf_9serverlib6engine8database11transaction6record5testss_56plain_payload_resolver_returns_raw_bytes_and_caches_onceNtB4_16CountingResolverNtB8_26TransactionPayloadResolver15resolve_payload0Bg_
FN:81,_RNvMs0_NtNtNtNtCsksqSOdb1Dlf_9serverlib6engine8database11transaction6recordNtB5_25TransactionPayloadContext11database_id
FN:89,_RNvMs0_NtNtNtNtCsksqSOdb1Dlf_9serverlib6engine8database11transaction6recordNtB5_25TransactionPayloadContext26at_rest_encryption_key_ref
FN:93,_RNvMs0_NtNtNtNtCsksqSOdb1Dlf_9serverlib6engine8database11transaction6recordNtB5_25TransactionPayloadContext30at_rest_encryption_key_version
FN:48,_RNvMs0_NtNtNtNtCsksqSOdb1Dlf_9serverlib6engine8database11transaction6recordNtB5_25TransactionPayloadContext3new
FN:85,_RNvMs0_NtNtNtNtCsksqSOdb1Dlf_9serverlib6engine8database11transaction6recordNtB5_25TransactionPayloadContext8table_id
FN:77,_RNvMs0_NtNtNtNtCsksqSOdb1Dlf_9serverlib6engine8database11transaction6recordNtB5_25TransactionPayloadContext9stream_id
FN:135,_RNvMs1_NtNtNtNtCsksqSOdb1Dlf_9serverlib6engine8database11transaction6recordNtB5_33ChainedTransactionPayloadResolver3new
FN:198,_RNvMs3_NtNtNtNtCsksqSOdb1Dlf_9serverlib6engine8database11transaction6recordNtB5_31ChainedTransactionPayloadWriter13write_payload
FN:209,_RNvMs3_NtNtNtNtCsksqSOdb1Dlf_9serverlib6engine8database11transaction6recordNtB5_31ChainedTransactionPayloadWriter26write_payload_with_context
FN:185,_RNvMs3_NtNtNtNtCsksqSOdb1Dlf_9serverlib6engine8database11transaction6recordNtB5_31ChainedTransactionPayloadWriter3new
FN:366,_RNvMs7_NtNtNtNtCsksqSOdb1Dlf_9serverlib6engine8database11transaction6recordNtB5_17TransactionRecord11payload_raw
FN:413,_RNvMs7_NtNtNtNtCsksqSOdb1Dlf_9serverlib6engine8database11transaction6recordNtB5_17TransactionRecord11set_payload
FN:323,_RNvMs7_NtNtNtNtCsksqSOdb1Dlf_9serverlib6engine8database11transaction6recordNtB5_17TransactionRecord12with_payload
FN:423,_RNvMs7_NtNtNtNtCsksqSOdb1Dlf_9serverlib6engine8database11transaction6recordNtB5_17TransactionRecord13clear_payload
FN:362,_RNvMs7_NtNtNtNtCsksqSOdb1Dlf_9serverlib6engine8database11transaction6recordNtB5_17TransactionRecord15payload_logical
FN:345,_RNvMs7_NtNtNtNtCsksqSOdb1Dlf_9serverlib6engine8database11transaction6recordNtB5_17TransactionRecord15without_payload
FN:374,_RNvMs7_NtNtNtNtCsksqSOdb1Dlf_9serverlib6engine8database11transaction6recordNtB5_17TransactionRecord16resolved_payload
FN:300,_RNvMs7_NtNtNtNtCsksqSOdb1Dlf_9serverlib6engine8database11transaction6recordNtB5_17TransactionRecord3new
FN:358,_RNvMs7_NtNtNtNtCsksqSOdb1Dlf_9serverlib6engine8database11transaction6recordNtB5_17TransactionRecord7payload
FN:448,_RNvNtNtNtNtCsksqSOdb1Dlf_9serverlib6engine8database11transaction6record16decode_wal_frame
FN:436,_RNvNtNtNtNtCsksqSOdb1Dlf_9serverlib6engine8database11transaction6record16encode_wal_frame
FN:151,_RNvXs2_NtNtNtNtCsksqSOdb1Dlf_9serverlib6engine8database11transaction6recordNtB5_33ChainedTransactionPayloadResolverNtB5_26TransactionPayloadResolver15resolve_payload
FN:246,_RNvXs4_NtNtNtNtCsksqSOdb1Dlf_9serverlib6engine8database11transaction6recordNtB5_31PlainTransactionPayloadResolverNtB5_26TransactionPayloadResolver15resolve_payload
FN:282,_RNvXs5_NtNtNtNtCsksqSOdb1Dlf_9serverlib6engine8database11transaction6recordNtB5_17TransactionRecordNtNtCsfOyy81DYK0U_4core3cmp9PartialEq2eq
FNDA:0,_RINvMs1_NtNtNtNtCsksqSOdb1Dlf_9serverlib6engine8database11transaction6recordNtB6_33ChainedTransactionPayloadResolver14push_transformpEBe_
FNDA:0,_RINvMs3_NtNtNtNtCsksqSOdb1Dlf_9serverlib6engine8database11transaction6recordNtB6_31ChainedTransactionPayloadWriter14push_transformpEBe_
FNDA:0,_RNvMs0_NtNtNtNtCsksqSOdb1Dlf_9serverlib6engine8database11transaction6recordNtB5_25TransactionPayloadContext26at_rest_encryption_enabled
FNDA:0,_RNvMs7_NtNtNtNtCsksqSOdb1Dlf_9serverlib6engine8database11transaction6recordNtB5_17TransactionRecord11has_payload
FNDA:0,_RNvMs7_NtNtNtNtCsksqSOdb1Dlf_9serverlib6engine8database11transaction6recordNtB5_17TransactionRecord11payload_mut
FNDA:0,_RNvMs7_NtNtNtNtCsksqSOdb1Dlf_9serverlib6engine8database11transaction6recordNtB5_17TransactionRecord13payload_bytes
FNDA:0,_RNvXNtNtNtNtCsksqSOdb1Dlf_9serverlib6engine8database11transaction6recordNtB2_21PayloadTransformErrorNtNtCsfOyy81DYK0U_4core3fmt7Display3fmt
FNDA:2,_RNvNtNtNtNtNtCsksqSOdb1Dlf_9serverlib6engine8database11transaction6record5tests12sample_frame
FNDA:1,_RNvNtNtNtNtNtCsksqSOdb1Dlf_9serverlib6engine8database11transaction6record5testss_31wal_frame_roundtrip_uses_base64
FNDA:1,_RNvNtNtNtNtNtCsksqSOdb1Dlf_9serverlib6engine8database11transaction6record5testss_35wal_frame_decode_accepts_legacy_hex
FNDA:1,_RNvNtNtNtNtNtCsksqSOdb1Dlf_9serverlib6engine8database11transaction6record5testss_45plain_payload_resolver_preserves_none_payload
FNDA:1,_RNvNtNtNtNtNtCsksqSOdb1Dlf_9serverlib6engine8database11transaction6record5testss_50chained_payload_writer_applies_transforms_in_order
FNDA:1,_RNvNtNtNtNtNtCsksqSOdb1Dlf_9serverlib6engine8database11transaction6record5testss_51chained_payload_writer_passes_context_to_transforms
FNDA:1,_RNvNtNtNtNtNtCsksqSOdb1Dlf_9serverlib6engine8database11transaction6record5testss_52chained_payload_resolver_applies_transforms_in_order
FNDA:1,_RNvNtNtNtNtNtCsksqSOdb1Dlf_9serverlib6engine8database11transaction6record5testss_56plain_payload_resolver_returns_raw_bytes_and_caches_once
FNDA:1,_RNvNtNtNtNtNtCsksqSOdb1Dlf_9serverlib6engine8database11transaction6record5testss_60resolve_payload_with_context_recomputes_when_context_changes
FNDA:1,_RNvNtNtNtNtNtCsksqSOdb1Dlf_9serverlib6engine8database11transaction6record5testss_73chained_payload_writer_leaves_payload_unchanged_when_no_transform_matches
FNDA:1,_RNvNtNtNtNtNtCsksqSOdb1Dlf_9serverlib6engine8database11transaction6record5testss_75chained_payload_resolver_leaves_payload_unchanged_when_no_transform_matches
FNDA:1,_RNvXNvNtNtNtNtNtCsksqSOdb1Dlf_9serverlib6engine8database11transaction6record5testss_50chained_payload_writer_applies_transforms_in_orderNtB2_20PrefixWriteTransformNtB6_32TransactionPayloadWriteTransform27transform_payload_for_write
FNDA:1,_RNvXNvNtNtNtNtNtCsksqSOdb1Dlf_9serverlib6engine8database11transaction6record5testss_51chained_payload_writer_passes_context_to_transformsNtB2_26ContextAwareWriteTransformNtB6_32TransactionPayloadWriteTransform27transform_payload_for_write
FNDA:1,_RNvXNvNtNtNtNtNtCsksqSOdb1Dlf_9serverlib6engine8database11transaction6record5testss_52chained_payload_resolver_applies_transforms_in_orderNtB2_15PrefixTransformNtB6_27TransactionPayloadTransform17transform_payload
FNDA:2,_RNvXNvNtNtNtNtNtCsksqSOdb1Dlf_9serverlib6engine8database11transaction6record5testss_56plain_payload_resolver_returns_raw_bytes_and_caches_onceNtB2_16CountingResolverNtB6_26TransactionPayloadResolver15resolve_payload
FNDA:2,_RNvXNvNtNtNtNtNtCsksqSOdb1Dlf_9serverlib6engine8database11transaction6record5testss_60resolve_payload_with_context_recomputes_when_context_changesNtB2_20ContextAwareResolverNtB6_26TransactionPayloadResolver15resolve_payload
